   1              		.syntax unified
   2              		.cpu cortex-m3
   3              		.fpu softvfp
   4              		.eabi_attribute 20, 1
   5              		.eabi_attribute 21, 1
   6              		.eabi_attribute 23, 3
   7              		.eabi_attribute 24, 1
   8              		.eabi_attribute 25, 1
   9              		.eabi_attribute 26, 1
  10              		.eabi_attribute 30, 6
  11              		.eabi_attribute 34, 1
  12              		.eabi_attribute 18, 4
  13              		.thumb
  14              		.file	"ELT240320TP.c"
  15              		.text
  16              	.Ltext0:
  17              		.cfi_sections	.debug_frame
  18              		.global	font
  19              		.section	.rodata
  20              		.align	2
  23              	font:
  24 0000 00       		.byte	0
  25 0001 00       		.byte	0
  26 0002 00       		.byte	0
  27 0003 00       		.byte	0
  28 0004 00       		.byte	0
  29 0005 00       		.byte	0
  30 0006 00       		.byte	0
  31 0007 00       		.byte	0
  32 0008 00       		.byte	0
  33 0009 00       		.byte	0
  34 000a 00       		.byte	0
  35 000b 00       		.byte	0
  36 000c 00       		.byte	0
  37 000d 00       		.byte	0
  38 000e 00       		.byte	0
  39 000f 00       		.byte	0
  40 0010 00       		.byte	0
  41 0011 00       		.byte	0
  42 0012 00       		.byte	0
  43 0013 00       		.byte	0
  44 0014 00       		.byte	0
  45 0015 00       		.byte	0
  46 0016 07       		.byte	7
  47 0017 D0       		.byte	-48
  48 0018 00       		.byte	0
  49 0019 00       		.byte	0
  50 001a 00       		.byte	0
  51 001b 00       		.byte	0
  52 001c 00       		.byte	0
  53 001d 00       		.byte	0
  54 001e 00       		.byte	0
  55 001f 00       		.byte	0
  56 0020 00       		.byte	0
  57 0021 00       		.byte	0
  58 0022 00       		.byte	0
  59 0023 00       		.byte	0
  60 0024 07       		.byte	7
  61 0025 00       		.byte	0
  62 0026 00       		.byte	0
  63 0027 00       		.byte	0
  64 0028 07       		.byte	7
  65 0029 00       		.byte	0
  66 002a 00       		.byte	0
  67 002b 00       		.byte	0
  68 002c 00       		.byte	0
  69 002d 00       		.byte	0
  70 002e 00       		.byte	0
  71 002f 00       		.byte	0
  72 0030 00       		.byte	0
  73 0031 00       		.byte	0
  74 0032 01       		.byte	1
  75 0033 28       		.byte	40
  76 0034 03       		.byte	3
  77 0035 F0       		.byte	-16
  78 0036 05       		.byte	5
  79 0037 28       		.byte	40
  80 0038 03       		.byte	3
  81 0039 F0       		.byte	-16
  82 003a 05       		.byte	5
  83 003b 20       		.byte	32
  84 003c 00       		.byte	0
  85 003d 00       		.byte	0
  86 003e 00       		.byte	0
  87 003f 00       		.byte	0
  88 0040 00       		.byte	0
  89 0041 00       		.byte	0
  90 0042 00       		.byte	0
  91 0043 00       		.byte	0
  92 0044 01       		.byte	1
  93 0045 20       		.byte	32
  94 0046 02       		.byte	2
  95 0047 B8       		.byte	-72
  96 0048 06       		.byte	6
  97 0049 A0       		.byte	-96
  98 004a 02       		.byte	2
  99 004b 40       		.byte	64
 100 004c 00       		.byte	0
 101 004d 00       		.byte	0
 102 004e 00       		.byte	0
 103 004f 00       		.byte	0
 104 0050 00       		.byte	0
 105 0051 00       		.byte	0
 106 0052 00       		.byte	0
 107 0053 00       		.byte	0
 108 0054 00       		.byte	0
 109 0055 00       		.byte	0
 110 0056 02       		.byte	2
 111 0057 80       		.byte	-128
 112 0058 05       		.byte	5
 113 0059 A0       		.byte	-96
 114 005a 02       		.byte	2
 115 005b D0       		.byte	-48
 116 005c 00       		.byte	0
 117 005d A0       		.byte	-96
 118 005e 00       		.byte	0
 119 005f 00       		.byte	0
 120 0060 00       		.byte	0
 121 0061 00       		.byte	0
 122 0062 00       		.byte	0
 123 0063 60       		.byte	96
 124 0064 01       		.byte	1
 125 0065 90       		.byte	-112
 126 0066 02       		.byte	2
 127 0067 50       		.byte	80
 128 0068 02       		.byte	2
 129 0069 70       		.byte	112
 130 006a 00       		.byte	0
 131 006b 10       		.byte	16
 132 006c 00       		.byte	0
 133 006d 00       		.byte	0
 134 006e 00       		.byte	0
 135 006f 00       		.byte	0
 136 0070 00       		.byte	0
 137 0071 00       		.byte	0
 138 0072 00       		.byte	0
 139 0073 00       		.byte	0
 140 0074 00       		.byte	0
 141 0075 00       		.byte	0
 142 0076 07       		.byte	7
 143 0077 00       		.byte	0
 144 0078 00       		.byte	0
 145 0079 00       		.byte	0
 146 007a 00       		.byte	0
 147 007b 00       		.byte	0
 148 007c 00       		.byte	0
 149 007d 00       		.byte	0
 150 007e 00       		.byte	0
 151 007f 00       		.byte	0
 152 0080 00       		.byte	0
 153 0081 00       		.byte	0
 154 0082 00       		.byte	0
 155 0083 00       		.byte	0
 156 0084 01       		.byte	1
 157 0085 E0       		.byte	-32
 158 0086 06       		.byte	6
 159 0087 18       		.byte	24
 160 0088 00       		.byte	0
 161 0089 00       		.byte	0
 162 008a 00       		.byte	0
 163 008b 00       		.byte	0
 164 008c 00       		.byte	0
 165 008d 00       		.byte	0
 166 008e 00       		.byte	0
 167 008f 00       		.byte	0
 168 0090 00       		.byte	0
 169 0091 00       		.byte	0
 170 0092 00       		.byte	0
 171 0093 00       		.byte	0
 172 0094 00       		.byte	0
 173 0095 00       		.byte	0
 174 0096 00       		.byte	0
 175 0097 00       		.byte	0
 176 0098 06       		.byte	6
 177 0099 18       		.byte	24
 178 009a 01       		.byte	1
 179 009b E0       		.byte	-32
 180 009c 00       		.byte	0
 181 009d 00       		.byte	0
 182 009e 00       		.byte	0
 183 009f 00       		.byte	0
 184 00a0 00       		.byte	0
 185 00a1 00       		.byte	0
 186 00a2 00       		.byte	0
 187 00a3 00       		.byte	0
 188 00a4 02       		.byte	2
 189 00a5 00       		.byte	0
 190 00a6 02       		.byte	2
 191 00a7 80       		.byte	-128
 192 00a8 07       		.byte	7
 193 00a9 00       		.byte	0
 194 00aa 02       		.byte	2
 195 00ab 80       		.byte	-128
 196 00ac 02       		.byte	2
 197 00ad 00       		.byte	0
 198 00ae 00       		.byte	0
 199 00af 00       		.byte	0
 200 00b0 00       		.byte	0
 201 00b1 00       		.byte	0
 202 00b2 00       		.byte	0
 203 00b3 80       		.byte	-128
 204 00b4 00       		.byte	0
 205 00b5 80       		.byte	-128
 206 00b6 07       		.byte	7
 207 00b7 F0       		.byte	-16
 208 00b8 00       		.byte	0
 209 00b9 80       		.byte	-128
 210 00ba 00       		.byte	0
 211 00bb 80       		.byte	-128
 212 00bc 00       		.byte	0
 213 00bd 00       		.byte	0
 214 00be 00       		.byte	0
 215 00bf 00       		.byte	0
 216 00c0 00       		.byte	0
 217 00c1 00       		.byte	0
 218 00c2 00       		.byte	0
 219 00c3 00       		.byte	0
 220 00c4 00       		.byte	0
 221 00c5 0C       		.byte	12
 222 00c6 00       		.byte	0
 223 00c7 18       		.byte	24
 224 00c8 00       		.byte	0
 225 00c9 10       		.byte	16
 226 00ca 00       		.byte	0
 227 00cb 00       		.byte	0
 228 00cc 00       		.byte	0
 229 00cd 00       		.byte	0
 230 00ce 00       		.byte	0
 231 00cf 00       		.byte	0
 232 00d0 00       		.byte	0
 233 00d1 00       		.byte	0
 234 00d2 00       		.byte	0
 235 00d3 80       		.byte	-128
 236 00d4 00       		.byte	0
 237 00d5 80       		.byte	-128
 238 00d6 00       		.byte	0
 239 00d7 80       		.byte	-128
 240 00d8 00       		.byte	0
 241 00d9 80       		.byte	-128
 242 00da 00       		.byte	0
 243 00db 80       		.byte	-128
 244 00dc 00       		.byte	0
 245 00dd 00       		.byte	0
 246 00de 00       		.byte	0
 247 00df 00       		.byte	0
 248 00e0 00       		.byte	0
 249 00e1 00       		.byte	0
 250 00e2 00       		.byte	0
 251 00e3 00       		.byte	0
 252 00e4 00       		.byte	0
 253 00e5 00       		.byte	0
 254 00e6 00       		.byte	0
 255 00e7 10       		.byte	16
 256 00e8 00       		.byte	0
 257 00e9 10       		.byte	16
 258 00ea 00       		.byte	0
 259 00eb 00       		.byte	0
 260 00ec 00       		.byte	0
 261 00ed 00       		.byte	0
 262 00ee 00       		.byte	0
 263 00ef 00       		.byte	0
 264 00f0 00       		.byte	0
 265 00f1 00       		.byte	0
 266 00f2 00       		.byte	0
 267 00f3 00       		.byte	0
 268 00f4 00       		.byte	0
 269 00f5 08       		.byte	8
 270 00f6 00       		.byte	0
 271 00f7 30       		.byte	48
 272 00f8 00       		.byte	0
 273 00f9 C0       		.byte	-64
 274 00fa 03       		.byte	3
 275 00fb 00       		.byte	0
 276 00fc 04       		.byte	4
 277 00fd 00       		.byte	0
 278 00fe 00       		.byte	0
 279 00ff 00       		.byte	0
 280 0100 00       		.byte	0
 281 0101 00       		.byte	0
 282 0102 00       		.byte	0
 283 0103 00       		.byte	0
 284 0104 03       		.byte	3
 285 0105 E0       		.byte	-32
 286 0106 04       		.byte	4
 287 0107 10       		.byte	16
 288 0108 04       		.byte	4
 289 0109 10       		.byte	16
 290 010a 04       		.byte	4
 291 010b 10       		.byte	16
 292 010c 03       		.byte	3
 293 010d E0       		.byte	-32
 294 010e 00       		.byte	0
 295 010f 00       		.byte	0
 296 0110 00       		.byte	0
 297 0111 00       		.byte	0
 298 0112 00       		.byte	0
 299 0113 00       		.byte	0
 300 0114 00       		.byte	0
 301 0115 10       		.byte	16
 302 0116 04       		.byte	4
 303 0117 10       		.byte	16
 304 0118 07       		.byte	7
 305 0119 F0       		.byte	-16
 306 011a 00       		.byte	0
 307 011b 10       		.byte	16
 308 011c 00       		.byte	0
 309 011d 10       		.byte	16
 310 011e 00       		.byte	0
 311 011f 00       		.byte	0
 312 0120 00       		.byte	0
 313 0121 00       		.byte	0
 314 0122 00       		.byte	0
 315 0123 00       		.byte	0
 316 0124 02       		.byte	2
 317 0125 30       		.byte	48
 318 0126 04       		.byte	4
 319 0127 50       		.byte	80
 320 0128 04       		.byte	4
 321 0129 90       		.byte	-112
 322 012a 05       		.byte	5
 323 012b 10       		.byte	16
 324 012c 02       		.byte	2
 325 012d 10       		.byte	16
 326 012e 00       		.byte	0
 327 012f 00       		.byte	0
 328 0130 00       		.byte	0
 329 0131 00       		.byte	0
 330 0132 00       		.byte	0
 331 0133 00       		.byte	0
 332 0134 02       		.byte	2
 333 0135 20       		.byte	32
 334 0136 04       		.byte	4
 335 0137 10       		.byte	16
 336 0138 04       		.byte	4
 337 0139 90       		.byte	-112
 338 013a 04       		.byte	4
 339 013b 90       		.byte	-112
 340 013c 03       		.byte	3
 341 013d 60       		.byte	96
 342 013e 00       		.byte	0
 343 013f 00       		.byte	0
 344 0140 00       		.byte	0
 345 0141 00       		.byte	0
 346 0142 00       		.byte	0
 347 0143 C0       		.byte	-64
 348 0144 01       		.byte	1
 349 0145 40       		.byte	64
 350 0146 02       		.byte	2
 351 0147 50       		.byte	80
 352 0148 07       		.byte	7
 353 0149 F0       		.byte	-16
 354 014a 00       		.byte	0
 355 014b 50       		.byte	80
 356 014c 00       		.byte	0
 357 014d 00       		.byte	0
 358 014e 00       		.byte	0
 359 014f 00       		.byte	0
 360 0150 00       		.byte	0
 361 0151 00       		.byte	0
 362 0152 00       		.byte	0
 363 0153 00       		.byte	0
 364 0154 00       		.byte	0
 365 0155 20       		.byte	32
 366 0156 07       		.byte	7
 367 0157 90       		.byte	-112
 368 0158 04       		.byte	4
 369 0159 90       		.byte	-112
 370 015a 04       		.byte	4
 371 015b 90       		.byte	-112
 372 015c 04       		.byte	4
 373 015d 60       		.byte	96
 374 015e 00       		.byte	0
 375 015f 00       		.byte	0
 376 0160 00       		.byte	0
 377 0161 00       		.byte	0
 378 0162 01       		.byte	1
 379 0163 E0       		.byte	-32
 380 0164 02       		.byte	2
 381 0165 90       		.byte	-112
 382 0166 04       		.byte	4
 383 0167 90       		.byte	-112
 384 0168 04       		.byte	4
 385 0169 90       		.byte	-112
 386 016a 04       		.byte	4
 387 016b 60       		.byte	96
 388 016c 00       		.byte	0
 389 016d 00       		.byte	0
 390 016e 00       		.byte	0
 391 016f 00       		.byte	0
 392 0170 00       		.byte	0
 393 0171 00       		.byte	0
 394 0172 00       		.byte	0
 395 0173 00       		.byte	0
 396 0174 06       		.byte	6
 397 0175 00       		.byte	0
 398 0176 04       		.byte	4
 399 0177 00       		.byte	0
 400 0178 04       		.byte	4
 401 0179 30       		.byte	48
 402 017a 04       		.byte	4
 403 017b C0       		.byte	-64
 404 017c 07       		.byte	7
 405 017d 00       		.byte	0
 406 017e 00       		.byte	0
 407 017f 00       		.byte	0
 408 0180 00       		.byte	0
 409 0181 00       		.byte	0
 410 0182 03       		.byte	3
 411 0183 60       		.byte	96
 412 0184 04       		.byte	4
 413 0185 90       		.byte	-112
 414 0186 04       		.byte	4
 415 0187 90       		.byte	-112
 416 0188 04       		.byte	4
 417 0189 90       		.byte	-112
 418 018a 03       		.byte	3
 419 018b 60       		.byte	96
 420 018c 00       		.byte	0
 421 018d 00       		.byte	0
 422 018e 00       		.byte	0
 423 018f 00       		.byte	0
 424 0190 00       		.byte	0
 425 0191 00       		.byte	0
 426 0192 03       		.byte	3
 427 0193 10       		.byte	16
 428 0194 04       		.byte	4
 429 0195 90       		.byte	-112
 430 0196 04       		.byte	4
 431 0197 90       		.byte	-112
 432 0198 04       		.byte	4
 433 0199 A0       		.byte	-96
 434 019a 03       		.byte	3
 435 019b C0       		.byte	-64
 436 019c 00       		.byte	0
 437 019d 00       		.byte	0
 438 019e 00       		.byte	0
 439 019f 00       		.byte	0
 440 01a0 00       		.byte	0
 441 01a1 00       		.byte	0
 442 01a2 00       		.byte	0
 443 01a3 00       		.byte	0
 444 01a4 01       		.byte	1
 445 01a5 10       		.byte	16
 446 01a6 01       		.byte	1
 447 01a7 10       		.byte	16
 448 01a8 00       		.byte	0
 449 01a9 00       		.byte	0
 450 01aa 00       		.byte	0
 451 01ab 00       		.byte	0
 452 01ac 00       		.byte	0
 453 01ad 00       		.byte	0
 454 01ae 00       		.byte	0
 455 01af 00       		.byte	0
 456 01b0 00       		.byte	0
 457 01b1 00       		.byte	0
 458 01b2 00       		.byte	0
 459 01b3 00       		.byte	0
 460 01b4 00       		.byte	0
 461 01b5 18       		.byte	24
 462 01b6 01       		.byte	1
 463 01b7 30       		.byte	48
 464 01b8 01       		.byte	1
 465 01b9 20       		.byte	32
 466 01ba 00       		.byte	0
 467 01bb 00       		.byte	0
 468 01bc 00       		.byte	0
 469 01bd 00       		.byte	0
 470 01be 00       		.byte	0
 471 01bf 00       		.byte	0
 472 01c0 00       		.byte	0
 473 01c1 00       		.byte	0
 474 01c2 00       		.byte	0
 475 01c3 00       		.byte	0
 476 01c4 00       		.byte	0
 477 01c5 80       		.byte	-128
 478 01c6 00       		.byte	0
 479 01c7 80       		.byte	-128
 480 01c8 01       		.byte	1
 481 01c9 40       		.byte	64
 482 01ca 01       		.byte	1
 483 01cb 40       		.byte	64
 484 01cc 02       		.byte	2
 485 01cd 20       		.byte	32
 486 01ce 00       		.byte	0
 487 01cf 00       		.byte	0
 488 01d0 00       		.byte	0
 489 01d1 00       		.byte	0
 490 01d2 00       		.byte	0
 491 01d3 00       		.byte	0
 492 01d4 01       		.byte	1
 493 01d5 40       		.byte	64
 494 01d6 01       		.byte	1
 495 01d7 40       		.byte	64
 496 01d8 01       		.byte	1
 497 01d9 40       		.byte	64
 498 01da 01       		.byte	1
 499 01db 40       		.byte	64
 500 01dc 01       		.byte	1
 501 01dd 40       		.byte	64
 502 01de 00       		.byte	0
 503 01df 00       		.byte	0
 504 01e0 00       		.byte	0
 505 01e1 00       		.byte	0
 506 01e2 02       		.byte	2
 507 01e3 20       		.byte	32
 508 01e4 01       		.byte	1
 509 01e5 40       		.byte	64
 510 01e6 01       		.byte	1
 511 01e7 40       		.byte	64
 512 01e8 00       		.byte	0
 513 01e9 80       		.byte	-128
 514 01ea 00       		.byte	0
 515 01eb 80       		.byte	-128
 516 01ec 00       		.byte	0
 517 01ed 00       		.byte	0
 518 01ee 00       		.byte	0
 519 01ef 00       		.byte	0
 520 01f0 00       		.byte	0
 521 01f1 00       		.byte	0
 522 01f2 00       		.byte	0
 523 01f3 00       		.byte	0
 524 01f4 02       		.byte	2
 525 01f5 00       		.byte	0
 526 01f6 04       		.byte	4
 527 01f7 10       		.byte	16
 528 01f8 04       		.byte	4
 529 01f9 D0       		.byte	-48
 530 01fa 03       		.byte	3
 531 01fb 00       		.byte	0
 532 01fc 00       		.byte	0
 533 01fd 00       		.byte	0
 534 01fe 00       		.byte	0
 535 01ff 00       		.byte	0
 536 0200 00       		.byte	0
 537 0201 00       		.byte	0
 538 0202 00       		.byte	0
 539 0203 00       		.byte	0
 540 0204 03       		.byte	3
 541 0205 F0       		.byte	-16
 542 0206 04       		.byte	4
 543 0207 08       		.byte	8
 544 0208 04       		.byte	4
 545 0209 C8       		.byte	-56
 546 020a 05       		.byte	5
 547 020b 28       		.byte	40
 548 020c 03       		.byte	3
 549 020d E8       		.byte	-24
 550 020e 00       		.byte	0
 551 020f 00       		.byte	0
 552 0210 00       		.byte	0
 553 0211 10       		.byte	16
 554 0212 00       		.byte	0
 555 0213 30       		.byte	48
 556 0214 05       		.byte	5
 557 0215 D0       		.byte	-48
 558 0216 06       		.byte	6
 559 0217 40       		.byte	64
 560 0218 01       		.byte	1
 561 0219 D0       		.byte	-48
 562 021a 00       		.byte	0
 563 021b 30       		.byte	48
 564 021c 00       		.byte	0
 565 021d 10       		.byte	16
 566 021e 00       		.byte	0
 567 021f 00       		.byte	0
 568 0220 00       		.byte	0
 569 0221 00       		.byte	0
 570 0222 04       		.byte	4
 571 0223 10       		.byte	16
 572 0224 07       		.byte	7
 573 0225 F0       		.byte	-16
 574 0226 04       		.byte	4
 575 0227 90       		.byte	-112
 576 0228 04       		.byte	4
 577 0229 90       		.byte	-112
 578 022a 04       		.byte	4
 579 022b 90       		.byte	-112
 580 022c 03       		.byte	3
 581 022d 60       		.byte	96
 582 022e 00       		.byte	0
 583 022f 00       		.byte	0
 584 0230 00       		.byte	0
 585 0231 00       		.byte	0
 586 0232 03       		.byte	3
 587 0233 E0       		.byte	-32
 588 0234 04       		.byte	4
 589 0235 10       		.byte	16
 590 0236 04       		.byte	4
 591 0237 10       		.byte	16
 592 0238 04       		.byte	4
 593 0239 10       		.byte	16
 594 023a 06       		.byte	6
 595 023b 20       		.byte	32
 596 023c 00       		.byte	0
 597 023d 00       		.byte	0
 598 023e 00       		.byte	0
 599 023f 00       		.byte	0
 600 0240 00       		.byte	0
 601 0241 00       		.byte	0
 602 0242 04       		.byte	4
 603 0243 10       		.byte	16
 604 0244 07       		.byte	7
 605 0245 F0       		.byte	-16
 606 0246 04       		.byte	4
 607 0247 10       		.byte	16
 608 0248 04       		.byte	4
 609 0249 10       		.byte	16
 610 024a 02       		.byte	2
 611 024b 20       		.byte	32
 612 024c 01       		.byte	1
 613 024d C0       		.byte	-64
 614 024e 00       		.byte	0
 615 024f 00       		.byte	0
 616 0250 00       		.byte	0
 617 0251 00       		.byte	0
 618 0252 00       		.byte	0
 619 0253 00       		.byte	0
 620 0254 04       		.byte	4
 621 0255 10       		.byte	16
 622 0256 07       		.byte	7
 623 0257 F0       		.byte	-16
 624 0258 04       		.byte	4
 625 0259 90       		.byte	-112
 626 025a 05       		.byte	5
 627 025b D0       		.byte	-48
 628 025c 06       		.byte	6
 629 025d 30       		.byte	48
 630 025e 00       		.byte	0
 631 025f 00       		.byte	0
 632 0260 00       		.byte	0
 633 0261 00       		.byte	0
 634 0262 04       		.byte	4
 635 0263 10       		.byte	16
 636 0264 07       		.byte	7
 637 0265 F0       		.byte	-16
 638 0266 04       		.byte	4
 639 0267 90       		.byte	-112
 640 0268 05       		.byte	5
 641 0269 C0       		.byte	-64
 642 026a 06       		.byte	6
 643 026b 00       		.byte	0
 644 026c 00       		.byte	0
 645 026d 00       		.byte	0
 646 026e 00       		.byte	0
 647 026f 00       		.byte	0
 648 0270 00       		.byte	0
 649 0271 00       		.byte	0
 650 0272 03       		.byte	3
 651 0273 E0       		.byte	-32
 652 0274 04       		.byte	4
 653 0275 10       		.byte	16
 654 0276 04       		.byte	4
 655 0277 10       		.byte	16
 656 0278 04       		.byte	4
 657 0279 50       		.byte	80
 658 027a 06       		.byte	6
 659 027b 60       		.byte	96
 660 027c 00       		.byte	0
 661 027d 40       		.byte	64
 662 027e 00       		.byte	0
 663 027f 00       		.byte	0
 664 0280 04       		.byte	4
 665 0281 10       		.byte	16
 666 0282 07       		.byte	7
 667 0283 F0       		.byte	-16
 668 0284 04       		.byte	4
 669 0285 90       		.byte	-112
 670 0286 00       		.byte	0
 671 0287 80       		.byte	-128
 672 0288 04       		.byte	4
 673 0289 90       		.byte	-112
 674 028a 07       		.byte	7
 675 028b F0       		.byte	-16
 676 028c 04       		.byte	4
 677 028d 10       		.byte	16
 678 028e 00       		.byte	0
 679 028f 00       		.byte	0
 680 0290 00       		.byte	0
 681 0291 00       		.byte	0
 682 0292 04       		.byte	4
 683 0293 10       		.byte	16
 684 0294 04       		.byte	4
 685 0295 10       		.byte	16
 686 0296 07       		.byte	7
 687 0297 F0       		.byte	-16
 688 0298 04       		.byte	4
 689 0299 10       		.byte	16
 690 029a 04       		.byte	4
 691 029b 10       		.byte	16
 692 029c 00       		.byte	0
 693 029d 00       		.byte	0
 694 029e 00       		.byte	0
 695 029f 00       		.byte	0
 696 02a0 00       		.byte	0
 697 02a1 00       		.byte	0
 698 02a2 00       		.byte	0
 699 02a3 60       		.byte	96
 700 02a4 04       		.byte	4
 701 02a5 10       		.byte	16
 702 02a6 04       		.byte	4
 703 02a7 10       		.byte	16
 704 02a8 07       		.byte	7
 705 02a9 E0       		.byte	-32
 706 02aa 04       		.byte	4
 707 02ab 00       		.byte	0
 708 02ac 00       		.byte	0
 709 02ad 00       		.byte	0
 710 02ae 00       		.byte	0
 711 02af 00       		.byte	0
 712 02b0 04       		.byte	4
 713 02b1 10       		.byte	16
 714 02b2 07       		.byte	7
 715 02b3 F0       		.byte	-16
 716 02b4 04       		.byte	4
 717 02b5 90       		.byte	-112
 718 02b6 00       		.byte	0
 719 02b7 80       		.byte	-128
 720 02b8 05       		.byte	5
 721 02b9 40       		.byte	64
 722 02ba 06       		.byte	6
 723 02bb 30       		.byte	48
 724 02bc 04       		.byte	4
 725 02bd 10       		.byte	16
 726 02be 00       		.byte	0
 727 02bf 00       		.byte	0
 728 02c0 00       		.byte	0
 729 02c1 00       		.byte	0
 730 02c2 04       		.byte	4
 731 02c3 10       		.byte	16
 732 02c4 07       		.byte	7
 733 02c5 F0       		.byte	-16
 734 02c6 04       		.byte	4
 735 02c7 10       		.byte	16
 736 02c8 00       		.byte	0
 737 02c9 10       		.byte	16
 738 02ca 00       		.byte	0
 739 02cb 70       		.byte	112
 740 02cc 00       		.byte	0
 741 02cd 00       		.byte	0
 742 02ce 00       		.byte	0
 743 02cf 00       		.byte	0
 744 02d0 00       		.byte	0
 745 02d1 00       		.byte	0
 746 02d2 04       		.byte	4
 747 02d3 10       		.byte	16
 748 02d4 07       		.byte	7
 749 02d5 F0       		.byte	-16
 750 02d6 07       		.byte	7
 751 02d7 10       		.byte	16
 752 02d8 00       		.byte	0
 753 02d9 80       		.byte	-128
 754 02da 07       		.byte	7
 755 02db 10       		.byte	16
 756 02dc 07       		.byte	7
 757 02dd F0       		.byte	-16
 758 02de 04       		.byte	4
 759 02df 10       		.byte	16
 760 02e0 00       		.byte	0
 761 02e1 00       		.byte	0
 762 02e2 04       		.byte	4
 763 02e3 10       		.byte	16
 764 02e4 07       		.byte	7
 765 02e5 F0       		.byte	-16
 766 02e6 07       		.byte	7
 767 02e7 10       		.byte	16
 768 02e8 00       		.byte	0
 769 02e9 C0       		.byte	-64
 770 02ea 04       		.byte	4
 771 02eb 30       		.byte	48
 772 02ec 07       		.byte	7
 773 02ed F0       		.byte	-16
 774 02ee 04       		.byte	4
 775 02ef 00       		.byte	0
 776 02f0 00       		.byte	0
 777 02f1 00       		.byte	0
 778 02f2 03       		.byte	3
 779 02f3 E0       		.byte	-32
 780 02f4 04       		.byte	4
 781 02f5 10       		.byte	16
 782 02f6 04       		.byte	4
 783 02f7 10       		.byte	16
 784 02f8 04       		.byte	4
 785 02f9 10       		.byte	16
 786 02fa 03       		.byte	3
 787 02fb E0       		.byte	-32
 788 02fc 00       		.byte	0
 789 02fd 00       		.byte	0
 790 02fe 00       		.byte	0
 791 02ff 00       		.byte	0
 792 0300 00       		.byte	0
 793 0301 00       		.byte	0
 794 0302 00       		.byte	0
 795 0303 00       		.byte	0
 796 0304 04       		.byte	4
 797 0305 10       		.byte	16
 798 0306 07       		.byte	7
 799 0307 F0       		.byte	-16
 800 0308 04       		.byte	4
 801 0309 50       		.byte	80
 802 030a 04       		.byte	4
 803 030b 40       		.byte	64
 804 030c 03       		.byte	3
 805 030d 80       		.byte	-128
 806 030e 00       		.byte	0
 807 030f 00       		.byte	0
 808 0310 00       		.byte	0
 809 0311 00       		.byte	0
 810 0312 00       		.byte	0
 811 0313 00       		.byte	0
 812 0314 03       		.byte	3
 813 0315 E0       		.byte	-32
 814 0316 04       		.byte	4
 815 0317 10       		.byte	16
 816 0318 04       		.byte	4
 817 0319 18       		.byte	24
 818 031a 04       		.byte	4
 819 031b 18       		.byte	24
 820 031c 03       		.byte	3
 821 031d E8       		.byte	-24
 822 031e 00       		.byte	0
 823 031f 00       		.byte	0
 824 0320 00       		.byte	0
 825 0321 00       		.byte	0
 826 0322 04       		.byte	4
 827 0323 10       		.byte	16
 828 0324 07       		.byte	7
 829 0325 F0       		.byte	-16
 830 0326 04       		.byte	4
 831 0327 50       		.byte	80
 832 0328 04       		.byte	4
 833 0329 40       		.byte	64
 834 032a 03       		.byte	3
 835 032b A0       		.byte	-96
 836 032c 00       		.byte	0
 837 032d 10       		.byte	16
 838 032e 00       		.byte	0
 839 032f 00       		.byte	0
 840 0330 00       		.byte	0
 841 0331 00       		.byte	0
 842 0332 00       		.byte	0
 843 0333 00       		.byte	0
 844 0334 03       		.byte	3
 845 0335 30       		.byte	48
 846 0336 04       		.byte	4
 847 0337 90       		.byte	-112
 848 0338 04       		.byte	4
 849 0339 90       		.byte	-112
 850 033a 02       		.byte	2
 851 033b 90       		.byte	-112
 852 033c 06       		.byte	6
 853 033d 60       		.byte	96
 854 033e 00       		.byte	0
 855 033f 00       		.byte	0
 856 0340 00       		.byte	0
 857 0341 00       		.byte	0
 858 0342 00       		.byte	0
 859 0343 00       		.byte	0
 860 0344 06       		.byte	6
 861 0345 00       		.byte	0
 862 0346 04       		.byte	4
 863 0347 10       		.byte	16
 864 0348 07       		.byte	7
 865 0349 F0       		.byte	-16
 866 034a 04       		.byte	4
 867 034b 10       		.byte	16
 868 034c 06       		.byte	6
 869 034d 00       		.byte	0
 870 034e 00       		.byte	0
 871 034f 00       		.byte	0
 872 0350 00       		.byte	0
 873 0351 00       		.byte	0
 874 0352 04       		.byte	4
 875 0353 00       		.byte	0
 876 0354 07       		.byte	7
 877 0355 E0       		.byte	-32
 878 0356 04       		.byte	4
 879 0357 10       		.byte	16
 880 0358 00       		.byte	0
 881 0359 10       		.byte	16
 882 035a 04       		.byte	4
 883 035b 10       		.byte	16
 884 035c 07       		.byte	7
 885 035d E0       		.byte	-32
 886 035e 04       		.byte	4
 887 035f 00       		.byte	0
 888 0360 04       		.byte	4
 889 0361 00       		.byte	0
 890 0362 07       		.byte	7
 891 0363 80       		.byte	-128
 892 0364 04       		.byte	4
 893 0365 70       		.byte	112
 894 0366 00       		.byte	0
 895 0367 10       		.byte	16
 896 0368 04       		.byte	4
 897 0369 E0       		.byte	-32
 898 036a 07       		.byte	7
 899 036b 00       		.byte	0
 900 036c 04       		.byte	4
 901 036d 00       		.byte	0
 902 036e 00       		.byte	0
 903 036f 00       		.byte	0
 904 0370 04       		.byte	4
 905 0371 00       		.byte	0
 906 0372 07       		.byte	7
 907 0373 E0       		.byte	-32
 908 0374 04       		.byte	4
 909 0375 10       		.byte	16
 910 0376 01       		.byte	1
 911 0377 E0       		.byte	-32
 912 0378 04       		.byte	4
 913 0379 10       		.byte	16
 914 037a 07       		.byte	7
 915 037b E0       		.byte	-32
 916 037c 04       		.byte	4
 917 037d 00       		.byte	0
 918 037e 00       		.byte	0
 919 037f 00       		.byte	0
 920 0380 00       		.byte	0
 921 0381 00       		.byte	0
 922 0382 04       		.byte	4
 923 0383 10       		.byte	16
 924 0384 06       		.byte	6
 925 0385 30       		.byte	48
 926 0386 01       		.byte	1
 927 0387 40       		.byte	64
 928 0388 00       		.byte	0
 929 0389 80       		.byte	-128
 930 038a 01       		.byte	1
 931 038b 40       		.byte	64
 932 038c 06       		.byte	6
 933 038d 30       		.byte	48
 934 038e 04       		.byte	4
 935 038f 10       		.byte	16
 936 0390 04       		.byte	4
 937 0391 00       		.byte	0
 938 0392 06       		.byte	6
 939 0393 00       		.byte	0
 940 0394 05       		.byte	5
 941 0395 10       		.byte	16
 942 0396 00       		.byte	0
 943 0397 F0       		.byte	-16
 944 0398 05       		.byte	5
 945 0399 10       		.byte	16
 946 039a 06       		.byte	6
 947 039b 00       		.byte	0
 948 039c 04       		.byte	4
 949 039d 00       		.byte	0
 950 039e 00       		.byte	0
 951 039f 00       		.byte	0
 952 03a0 00       		.byte	0
 953 03a1 00       		.byte	0
 954 03a2 06       		.byte	6
 955 03a3 30       		.byte	48
 956 03a4 04       		.byte	4
 957 03a5 50       		.byte	80
 958 03a6 04       		.byte	4
 959 03a7 90       		.byte	-112
 960 03a8 05       		.byte	5
 961 03a9 10       		.byte	16
 962 03aa 06       		.byte	6
 963 03ab 30       		.byte	48
 964 03ac 00       		.byte	0
 965 03ad 00       		.byte	0
 966 03ae 00       		.byte	0
 967 03af 00       		.byte	0
 968 03b0 00       		.byte	0
 969 03b1 00       		.byte	0
 970 03b2 00       		.byte	0
 971 03b3 00       		.byte	0
 972 03b4 00       		.byte	0
 973 03b5 00       		.byte	0
 974 03b6 07       		.byte	7
 975 03b7 F8       		.byte	-8
 976 03b8 04       		.byte	4
 977 03b9 08       		.byte	8
 978 03ba 00       		.byte	0
 979 03bb 00       		.byte	0
 980 03bc 00       		.byte	0
 981 03bd 00       		.byte	0
 982 03be 00       		.byte	0
 983 03bf 00       		.byte	0
 984 03c0 00       		.byte	0
 985 03c1 00       		.byte	0
 986 03c2 00       		.byte	0
 987 03c3 00       		.byte	0
 988 03c4 04       		.byte	4
 989 03c5 00       		.byte	0
 990 03c6 03       		.byte	3
 991 03c7 00       		.byte	0
 992 03c8 00       		.byte	0
 993 03c9 E0       		.byte	-32
 994 03ca 00       		.byte	0
 995 03cb 18       		.byte	24
 996 03cc 00       		.byte	0
 997 03cd 00       		.byte	0
 998 03ce 00       		.byte	0
 999 03cf 00       		.byte	0
 1000 03d0 00       		.byte	0
 1001 03d1 00       		.byte	0
 1002 03d2 00       		.byte	0
 1003 03d3 00       		.byte	0
 1004 03d4 00       		.byte	0
 1005 03d5 00       		.byte	0
 1006 03d6 04       		.byte	4
 1007 03d7 08       		.byte	8
 1008 03d8 07       		.byte	7
 1009 03d9 F8       		.byte	-8
 1010 03da 00       		.byte	0
 1011 03db 00       		.byte	0
 1012 03dc 00       		.byte	0
 1013 03dd 00       		.byte	0
 1014 03de 00       		.byte	0
 1015 03df 00       		.byte	0
 1016 03e0 00       		.byte	0
 1017 03e1 00       		.byte	0
 1018 03e2 00       		.byte	0
 1019 03e3 00       		.byte	0
 1020 03e4 01       		.byte	1
 1021 03e5 00       		.byte	0
 1022 03e6 02       		.byte	2
 1023 03e7 00       		.byte	0
 1024 03e8 04       		.byte	4
 1025 03e9 00       		.byte	0
 1026 03ea 02       		.byte	2
 1027 03eb 00       		.byte	0
 1028 03ec 01       		.byte	1
 1029 03ed 00       		.byte	0
 1030 03ee 00       		.byte	0
 1031 03ef 00       		.byte	0
 1032 03f0 00       		.byte	0
 1033 03f1 00       		.byte	0
 1034 03f2 00       		.byte	0
 1035 03f3 04       		.byte	4
 1036 03f4 00       		.byte	0
 1037 03f5 04       		.byte	4
 1038 03f6 00       		.byte	0
 1039 03f7 04       		.byte	4
 1040 03f8 00       		.byte	0
 1041 03f9 04       		.byte	4
 1042 03fa 00       		.byte	0
 1043 03fb 04       		.byte	4
 1044 03fc 00       		.byte	0
 1045 03fd 04       		.byte	4
 1046 03fe 00       		.byte	0
 1047 03ff 04       		.byte	4
 1048 0400 00       		.byte	0
 1049 0401 00       		.byte	0
 1050 0402 00       		.byte	0
 1051 0403 00       		.byte	0
 1052 0404 00       		.byte	0
 1053 0405 00       		.byte	0
 1054 0406 03       		.byte	3
 1055 0407 00       		.byte	0
 1056 0408 00       		.byte	0
 1057 0409 80       		.byte	-128
 1058 040a 00       		.byte	0
 1059 040b 00       		.byte	0
 1060 040c 00       		.byte	0
 1061 040d 00       		.byte	0
 1062 040e 00       		.byte	0
 1063 040f 00       		.byte	0
 1064 0410 00       		.byte	0
 1065 0411 00       		.byte	0
 1066 0412 00       		.byte	0
 1067 0413 B0       		.byte	-80
 1068 0414 01       		.byte	1
 1069 0415 50       		.byte	80
 1070 0416 01       		.byte	1
 1071 0417 50       		.byte	80
 1072 0418 01       		.byte	1
 1073 0419 50       		.byte	80
 1074 041a 00       		.byte	0
 1075 041b F0       		.byte	-16
 1076 041c 00       		.byte	0
 1077 041d 10       		.byte	16
 1078 041e 00       		.byte	0
 1079 041f 00       		.byte	0
 1080 0420 00       		.byte	0
 1081 0421 00       		.byte	0
 1082 0422 04       		.byte	4
 1083 0423 10       		.byte	16
 1084 0424 07       		.byte	7
 1085 0425 F0       		.byte	-16
 1086 0426 00       		.byte	0
 1087 0427 90       		.byte	-112
 1088 0428 01       		.byte	1
 1089 0429 10       		.byte	16
 1090 042a 01       		.byte	1
 1091 042b 10       		.byte	16
 1092 042c 00       		.byte	0
 1093 042d E0       		.byte	-32
 1094 042e 00       		.byte	0
 1095 042f 00       		.byte	0
 1096 0430 00       		.byte	0
 1097 0431 00       		.byte	0
 1098 0432 00       		.byte	0
 1099 0433 E0       		.byte	-32
 1100 0434 01       		.byte	1
 1101 0435 10       		.byte	16
 1102 0436 01       		.byte	1
 1103 0437 10       		.byte	16
 1104 0438 01       		.byte	1
 1105 0439 10       		.byte	16
 1106 043a 01       		.byte	1
 1107 043b 90       		.byte	-112
 1108 043c 00       		.byte	0
 1109 043d 00       		.byte	0
 1110 043e 00       		.byte	0
 1111 043f 00       		.byte	0
 1112 0440 00       		.byte	0
 1113 0441 00       		.byte	0
 1114 0442 00       		.byte	0
 1115 0443 E0       		.byte	-32
 1116 0444 01       		.byte	1
 1117 0445 10       		.byte	16
 1118 0446 01       		.byte	1
 1119 0447 10       		.byte	16
 1120 0448 04       		.byte	4
 1121 0449 90       		.byte	-112
 1122 044a 07       		.byte	7
 1123 044b F0       		.byte	-16
 1124 044c 00       		.byte	0
 1125 044d 10       		.byte	16
 1126 044e 00       		.byte	0
 1127 044f 00       		.byte	0
 1128 0450 00       		.byte	0
 1129 0451 00       		.byte	0
 1130 0452 00       		.byte	0
 1131 0453 00       		.byte	0
 1132 0454 00       		.byte	0
 1133 0455 E0       		.byte	-32
 1134 0456 01       		.byte	1
 1135 0457 50       		.byte	80
 1136 0458 01       		.byte	1
 1137 0459 50       		.byte	80
 1138 045a 01       		.byte	1
 1139 045b 50       		.byte	80
 1140 045c 00       		.byte	0
 1141 045d D0       		.byte	-48
 1142 045e 00       		.byte	0
 1143 045f 00       		.byte	0
 1144 0460 00       		.byte	0
 1145 0461 00       		.byte	0
 1146 0462 00       		.byte	0
 1147 0463 00       		.byte	0
 1148 0464 01       		.byte	1
 1149 0465 10       		.byte	16
 1150 0466 03       		.byte	3
 1151 0467 F0       		.byte	-16
 1152 0468 05       		.byte	5
 1153 0469 10       		.byte	16
 1154 046a 05       		.byte	5
 1155 046b 10       		.byte	16
 1156 046c 00       		.byte	0
 1157 046d 00       		.byte	0
 1158 046e 00       		.byte	0
 1159 046f 00       		.byte	0
 1160 0470 00       		.byte	0
 1161 0471 00       		.byte	0
 1162 0472 00       		.byte	0
 1163 0473 E0       		.byte	-32
 1164 0474 01       		.byte	1
 1165 0475 14       		.byte	20
 1166 0476 01       		.byte	1
 1167 0477 14       		.byte	20
 1168 0478 00       		.byte	0
 1169 0479 94       		.byte	-108
 1170 047a 01       		.byte	1
 1171 047b F8       		.byte	-8
 1172 047c 01       		.byte	1
 1173 047d 00       		.byte	0
 1174 047e 00       		.byte	0
 1175 047f 00       		.byte	0
 1176 0480 00       		.byte	0
 1177 0481 00       		.byte	0
 1178 0482 04       		.byte	4
 1179 0483 10       		.byte	16
 1180 0484 07       		.byte	7
 1181 0485 F0       		.byte	-16
 1182 0486 00       		.byte	0
 1183 0487 90       		.byte	-112
 1184 0488 01       		.byte	1
 1185 0489 00       		.byte	0
 1186 048a 01       		.byte	1
 1187 048b 10       		.byte	16
 1188 048c 00       		.byte	0
 1189 048d F0       		.byte	-16
 1190 048e 00       		.byte	0
 1191 048f 10       		.byte	16
 1192 0490 00       		.byte	0
 1193 0491 00       		.byte	0
 1194 0492 01       		.byte	1
 1195 0493 10       		.byte	16
 1196 0494 01       		.byte	1
 1197 0495 10       		.byte	16
 1198 0496 05       		.byte	5
 1199 0497 F0       		.byte	-16
 1200 0498 00       		.byte	0
 1201 0499 10       		.byte	16
 1202 049a 00       		.byte	0
 1203 049b 10       		.byte	16
 1204 049c 00       		.byte	0
 1205 049d 00       		.byte	0
 1206 049e 00       		.byte	0
 1207 049f 00       		.byte	0
 1208 04a0 00       		.byte	0
 1209 04a1 00       		.byte	0
 1210 04a2 01       		.byte	1
 1211 04a3 04       		.byte	4
 1212 04a4 01       		.byte	1
 1213 04a5 04       		.byte	4
 1214 04a6 05       		.byte	5
 1215 04a7 04       		.byte	4
 1216 04a8 01       		.byte	1
 1217 04a9 F8       		.byte	-8
 1218 04aa 00       		.byte	0
 1219 04ab 00       		.byte	0
 1220 04ac 00       		.byte	0
 1221 04ad 00       		.byte	0
 1222 04ae 00       		.byte	0
 1223 04af 00       		.byte	0
 1224 04b0 00       		.byte	0
 1225 04b1 00       		.byte	0
 1226 04b2 04       		.byte	4
 1227 04b3 10       		.byte	16
 1228 04b4 07       		.byte	7
 1229 04b5 F0       		.byte	-16
 1230 04b6 00       		.byte	0
 1231 04b7 40       		.byte	64
 1232 04b8 01       		.byte	1
 1233 04b9 50       		.byte	80
 1234 04ba 01       		.byte	1
 1235 04bb B0       		.byte	-80
 1236 04bc 01       		.byte	1
 1237 04bd 10       		.byte	16
 1238 04be 00       		.byte	0
 1239 04bf 00       		.byte	0
 1240 04c0 00       		.byte	0
 1241 04c1 00       		.byte	0
 1242 04c2 00       		.byte	0
 1243 04c3 00       		.byte	0
 1244 04c4 00       		.byte	0
 1245 04c5 10       		.byte	16
 1246 04c6 04       		.byte	4
 1247 04c7 10       		.byte	16
 1248 04c8 07       		.byte	7
 1249 04c9 F0       		.byte	-16
 1250 04ca 00       		.byte	0
 1251 04cb 10       		.byte	16
 1252 04cc 00       		.byte	0
 1253 04cd 10       		.byte	16
 1254 04ce 00       		.byte	0
 1255 04cf 00       		.byte	0
 1256 04d0 01       		.byte	1
 1257 04d1 10       		.byte	16
 1258 04d2 01       		.byte	1
 1259 04d3 F0       		.byte	-16
 1260 04d4 01       		.byte	1
 1261 04d5 10       		.byte	16
 1262 04d6 00       		.byte	0
 1263 04d7 F0       		.byte	-16
 1264 04d8 01       		.byte	1
 1265 04d9 10       		.byte	16
 1266 04da 00       		.byte	0
 1267 04db F0       		.byte	-16
 1268 04dc 00       		.byte	0
 1269 04dd 10       		.byte	16
 1270 04de 00       		.byte	0
 1271 04df 00       		.byte	0
 1272 04e0 00       		.byte	0
 1273 04e1 00       		.byte	0
 1274 04e2 01       		.byte	1
 1275 04e3 10       		.byte	16
 1276 04e4 01       		.byte	1
 1277 04e5 F0       		.byte	-16
 1278 04e6 00       		.byte	0
 1279 04e7 90       		.byte	-112
 1280 04e8 01       		.byte	1
 1281 04e9 00       		.byte	0
 1282 04ea 01       		.byte	1
 1283 04eb 10       		.byte	16
 1284 04ec 00       		.byte	0
 1285 04ed F0       		.byte	-16
 1286 04ee 00       		.byte	0
 1287 04ef 10       		.byte	16
 1288 04f0 00       		.byte	0
 1289 04f1 00       		.byte	0
 1290 04f2 00       		.byte	0
 1291 04f3 00       		.byte	0
 1292 04f4 00       		.byte	0
 1293 04f5 E0       		.byte	-32
 1294 04f6 01       		.byte	1
 1295 04f7 10       		.byte	16
 1296 04f8 01       		.byte	1
 1297 04f9 10       		.byte	16
 1298 04fa 01       		.byte	1
 1299 04fb 10       		.byte	16
 1300 04fc 00       		.byte	0
 1301 04fd E0       		.byte	-32
 1302 04fe 00       		.byte	0
 1303 04ff 00       		.byte	0
 1304 0500 00       		.byte	0
 1305 0501 00       		.byte	0
 1306 0502 00       		.byte	0
 1307 0503 00       		.byte	0
 1308 0504 01       		.byte	1
 1309 0505 04       		.byte	4
 1310 0506 01       		.byte	1
 1311 0507 FC       		.byte	-4
 1312 0508 00       		.byte	0
 1313 0509 94       		.byte	-108
 1314 050a 01       		.byte	1
 1315 050b 10       		.byte	16
 1316 050c 01       		.byte	1
 1317 050d 10       		.byte	16
 1318 050e 00       		.byte	0
 1319 050f E0       		.byte	-32
 1320 0510 00       		.byte	0
 1321 0511 00       		.byte	0
 1322 0512 00       		.byte	0
 1323 0513 E0       		.byte	-32
 1324 0514 01       		.byte	1
 1325 0515 10       		.byte	16
 1326 0516 01       		.byte	1
 1327 0517 10       		.byte	16
 1328 0518 00       		.byte	0
 1329 0519 94       		.byte	-108
 1330 051a 01       		.byte	1
 1331 051b FC       		.byte	-4
 1332 051c 01       		.byte	1
 1333 051d 04       		.byte	4
 1334 051e 00       		.byte	0
 1335 051f 00       		.byte	0
 1336 0520 00       		.byte	0
 1337 0521 00       		.byte	0
 1338 0522 00       		.byte	0
 1339 0523 00       		.byte	0
 1340 0524 01       		.byte	1
 1341 0525 10       		.byte	16
 1342 0526 01       		.byte	1
 1343 0527 F0       		.byte	-16
 1344 0528 00       		.byte	0
 1345 0529 90       		.byte	-112
 1346 052a 01       		.byte	1
 1347 052b 10       		.byte	16
 1348 052c 01       		.byte	1
 1349 052d 00       		.byte	0
 1350 052e 00       		.byte	0
 1351 052f 00       		.byte	0
 1352 0530 00       		.byte	0
 1353 0531 00       		.byte	0
 1354 0532 00       		.byte	0
 1355 0533 90       		.byte	-112
 1356 0534 01       		.byte	1
 1357 0535 50       		.byte	80
 1358 0536 01       		.byte	1
 1359 0537 50       		.byte	80
 1360 0538 01       		.byte	1
 1361 0539 50       		.byte	80
 1362 053a 01       		.byte	1
 1363 053b 20       		.byte	32
 1364 053c 00       		.byte	0
 1365 053d 00       		.byte	0
 1366 053e 00       		.byte	0
 1367 053f 00       		.byte	0
 1368 0540 00       		.byte	0
 1369 0541 00       		.byte	0
 1370 0542 01       		.byte	1
 1371 0543 00       		.byte	0
 1372 0544 03       		.byte	3
 1373 0545 E0       		.byte	-32
 1374 0546 01       		.byte	1
 1375 0547 10       		.byte	16
 1376 0548 01       		.byte	1
 1377 0549 10       		.byte	16
 1378 054a 01       		.byte	1
 1379 054b 10       		.byte	16
 1380 054c 00       		.byte	0
 1381 054d 20       		.byte	32
 1382 054e 00       		.byte	0
 1383 054f 00       		.byte	0
 1384 0550 00       		.byte	0
 1385 0551 00       		.byte	0
 1386 0552 01       		.byte	1
 1387 0553 00       		.byte	0
 1388 0554 01       		.byte	1
 1389 0555 E0       		.byte	-32
 1390 0556 00       		.byte	0
 1391 0557 10       		.byte	16
 1392 0558 00       		.byte	0
 1393 0559 10       		.byte	16
 1394 055a 01       		.byte	1
 1395 055b 20       		.byte	32
 1396 055c 01       		.byte	1
 1397 055d F0       		.byte	-16
 1398 055e 00       		.byte	0
 1399 055f 10       		.byte	16
 1400 0560 00       		.byte	0
 1401 0561 00       		.byte	0
 1402 0562 01       		.byte	1
 1403 0563 00       		.byte	0
 1404 0564 01       		.byte	1
 1405 0565 C0       		.byte	-64
 1406 0566 01       		.byte	1
 1407 0567 30       		.byte	48
 1408 0568 00       		.byte	0
 1409 0569 10       		.byte	16
 1410 056a 01       		.byte	1
 1411 056b 60       		.byte	96
 1412 056c 01       		.byte	1
 1413 056d 80       		.byte	-128
 1414 056e 01       		.byte	1
 1415 056f 00       		.byte	0
 1416 0570 00       		.byte	0
 1417 0571 00       		.byte	0
 1418 0572 01       		.byte	1
 1419 0573 00       		.byte	0
 1420 0574 01       		.byte	1
 1421 0575 E0       		.byte	-32
 1422 0576 01       		.byte	1
 1423 0577 10       		.byte	16
 1424 0578 00       		.byte	0
 1425 0579 60       		.byte	96
 1426 057a 01       		.byte	1
 1427 057b 10       		.byte	16
 1428 057c 01       		.byte	1
 1429 057d E0       		.byte	-32
 1430 057e 01       		.byte	1
 1431 057f 00       		.byte	0
 1432 0580 00       		.byte	0
 1433 0581 00       		.byte	0
 1434 0582 00       		.byte	0
 1435 0583 00       		.byte	0
 1436 0584 01       		.byte	1
 1437 0585 10       		.byte	16
 1438 0586 01       		.byte	1
 1439 0587 B0       		.byte	-80
 1440 0588 00       		.byte	0
 1441 0589 40       		.byte	64
 1442 058a 01       		.byte	1
 1443 058b B0       		.byte	-80
 1444 058c 01       		.byte	1
 1445 058d 10       		.byte	16
 1446 058e 00       		.byte	0
 1447 058f 00       		.byte	0
 1448 0590 00       		.byte	0
 1449 0591 00       		.byte	0
 1450 0592 01       		.byte	1
 1451 0593 00       		.byte	0
 1452 0594 01       		.byte	1
 1453 0595 84       		.byte	-124
 1454 0596 01       		.byte	1
 1455 0597 64       		.byte	100
 1456 0598 00       		.byte	0
 1457 0599 1C       		.byte	28
 1458 059a 01       		.byte	1
 1459 059b 60       		.byte	96
 1460 059c 01       		.byte	1
 1461 059d 80       		.byte	-128
 1462 059e 01       		.byte	1
 1463 059f 00       		.byte	0
 1464 05a0 00       		.byte	0
 1465 05a1 00       		.byte	0
 1466 05a2 00       		.byte	0
 1467 05a3 00       		.byte	0
 1468 05a4 01       		.byte	1
 1469 05a5 90       		.byte	-112
 1470 05a6 01       		.byte	1
 1471 05a7 30       		.byte	48
 1472 05a8 01       		.byte	1
 1473 05a9 50       		.byte	80
 1474 05aa 01       		.byte	1
 1475 05ab 90       		.byte	-112
 1476 05ac 01       		.byte	1
 1477 05ad 30       		.byte	48
 1478 05ae 00       		.byte	0
 1479 05af 00       		.byte	0
 1480 05b0 00       		.byte	0
 1481 05b1 00       		.byte	0
 1482 05b2 00       		.byte	0
 1483 05b3 00       		.byte	0
 1484 05b4 00       		.byte	0
 1485 05b5 80       		.byte	-128
 1486 05b6 07       		.byte	7
 1487 05b7 F0       		.byte	-16
 1488 05b8 08       		.byte	8
 1489 05b9 08       		.byte	8
 1490 05ba 00       		.byte	0
 1491 05bb 00       		.byte	0
 1492 05bc 00       		.byte	0
 1493 05bd 00       		.byte	0
 1494 05be 00       		.byte	0
 1495 05bf 00       		.byte	0
 1496 05c0 00       		.byte	0
 1497 05c1 00       		.byte	0
 1498 05c2 00       		.byte	0
 1499 05c3 00       		.byte	0
 1500 05c4 00       		.byte	0
 1501 05c5 00       		.byte	0
 1502 05c6 07       		.byte	7
 1503 05c7 F8       		.byte	-8
 1504 05c8 00       		.byte	0
 1505 05c9 00       		.byte	0
 1506 05ca 00       		.byte	0
 1507 05cb 00       		.byte	0
 1508 05cc 00       		.byte	0
 1509 05cd 00       		.byte	0
 1510 05ce 00       		.byte	0
 1511 05cf 00       		.byte	0
 1512 05d0 00       		.byte	0
 1513 05d1 00       		.byte	0
 1514 05d2 00       		.byte	0
 1515 05d3 00       		.byte	0
 1516 05d4 00       		.byte	0
 1517 05d5 00       		.byte	0
 1518 05d6 08       		.byte	8
 1519 05d7 08       		.byte	8
 1520 05d8 07       		.byte	7
 1521 05d9 F0       		.byte	-16
 1522 05da 00       		.byte	0
 1523 05db 80       		.byte	-128
 1524 05dc 00       		.byte	0
 1525 05dd 00       		.byte	0
 1526 05de 00       		.byte	0
 1527 05df 00       		.byte	0
 1528 05e0 00       		.byte	0
 1529 05e1 00       		.byte	0
 1530 05e2 00       		.byte	0
 1531 05e3 40       		.byte	64
 1532 05e4 00       		.byte	0
 1533 05e5 80       		.byte	-128
 1534 05e6 00       		.byte	0
 1535 05e7 C0       		.byte	-64
 1536 05e8 00       		.byte	0
 1537 05e9 40       		.byte	64
 1538 05ea 00       		.byte	0
 1539 05eb 80       		.byte	-128
 1540 05ec 00       		.byte	0
 1541 05ed 00       		.byte	0
 1542 05ee 00       		.byte	0
 1543 05ef 00       		.byte	0
 1544 05f0 00       		.byte	0
 1545 05f1 00       		.byte	0
 1546 05f2 00       		.byte	0
 1547 05f3 00       		.byte	0
 1548 05f4 00       		.byte	0
 1549 05f5 00       		.byte	0
 1550 05f6 00       		.byte	0
 1551 05f7 00       		.byte	0
 1552 05f8 00       		.byte	0
 1553 05f9 00       		.byte	0
 1554 05fa 00       		.byte	0
 1555 05fb 00       		.byte	0
 1556 05fc 00       		.byte	0
 1557 05fd 00       		.byte	0
 1558 05fe 00       		.byte	0
 1559 05ff 00       		.byte	0
 1560 0600 00       		.byte	0
 1561 0601 00       		.byte	0
 1562 0602 00       		.byte	0
 1563 0603 E0       		.byte	-32
 1564 0604 01       		.byte	1
 1565 0605 10       		.byte	16
 1566 0606 01       		.byte	1
 1567 0607 10       		.byte	16
 1568 0608 01       		.byte	1
 1569 0609 10       		.byte	16
 1570 060a 00       		.byte	0
 1571 060b E0       		.byte	-32
 1572 060c 00       		.byte	0
 1573 060d 00       		.byte	0
 1574 060e 00       		.byte	0
 1575 060f 00       		.byte	0
 1576 0610 00       		.byte	0
 1577 0611 00       		.byte	0
 1578 0612 00       		.byte	0
 1579 0613 E0       		.byte	-32
 1580 0614 01       		.byte	1
 1581 0615 10       		.byte	16
 1582 0616 01       		.byte	1
 1583 0617 70       		.byte	112
 1584 0618 01       		.byte	1
 1585 0619 10       		.byte	16
 1586 061a 00       		.byte	0
 1587 061b E0       		.byte	-32
 1588 061c 00       		.byte	0
 1589 061d 00       		.byte	0
 1590 061e 00       		.byte	0
 1591 061f 00       		.byte	0
 1592 0620 07       		.byte	7
 1593 0621 F0       		.byte	-16
 1594 0622 00       		.byte	0
 1595 0623 10       		.byte	16
 1596 0624 01       		.byte	1
 1597 0625 D0       		.byte	-48
 1598 0626 01       		.byte	1
 1599 0627 10       		.byte	16
 1600 0628 00       		.byte	0
 1601 0629 D0       		.byte	-48
 1602 062a 01       		.byte	1
 1603 062b 10       		.byte	16
 1604 062c 01       		.byte	1
 1605 062d E0       		.byte	-32
 1606 062e 00       		.byte	0
 1607 062f 00       		.byte	0
 1608 0630 00       		.byte	0
 1609 0631 E0       		.byte	-32
 1610 0632 01       		.byte	1
 1611 0633 10       		.byte	16
 1612 0634 01       		.byte	1
 1613 0635 30       		.byte	48
 1614 0636 01       		.byte	1
 1615 0637 00       		.byte	0
 1616 0638 00       		.byte	0
 1617 0639 F0       		.byte	-16
 1618 063a 01       		.byte	1
 1619 063b 00       		.byte	0
 1620 063c 00       		.byte	0
 1621 063d F0       		.byte	-16
 1622 063e 00       		.byte	0
 1623 063f 00       		.byte	0
 1624 0640 00       		.byte	0
 1625 0641 60       		.byte	96
 1626 0642 00       		.byte	0
 1627 0643 90       		.byte	-112
 1628 0644 00       		.byte	0
 1629 0645 90       		.byte	-112
 1630 0646 01       		.byte	1
 1631 0647 10       		.byte	16
 1632 0648 01       		.byte	1
 1633 0649 70       		.byte	112
 1634 064a 01       		.byte	1
 1635 064b 50       		.byte	80
 1636 064c 06       		.byte	6
 1637 064d 10       		.byte	16
 1638 064e 00       		.byte	0
 1639 064f 00       		.byte	0
 1640 0650 00       		.byte	0
 1641 0651 E0       		.byte	-32
 1642 0652 00       		.byte	0
 1643 0653 90       		.byte	-112
 1644 0654 07       		.byte	7
 1645 0655 10       		.byte	16
 1646 0656 06       		.byte	6
 1647 0657 10       		.byte	16
 1648 0658 02       		.byte	2
 1649 0659 D0       		.byte	-48
 1650 065a 02       		.byte	2
 1651 065b E0       		.byte	-32
 1652 065c 04       		.byte	4
 1653 065d 10       		.byte	16
 1654 065e 00       		.byte	0
 1655 065f 00       		.byte	0
 1656 0660 00       		.byte	0
 1657 0661 00       		.byte	0
 1658 0662 00       		.byte	0
 1659 0663 00       		.byte	0
 1660 0664 04       		.byte	4
 1661 0665 00       		.byte	0
 1662 0666 03       		.byte	3
 1663 0667 60       		.byte	96
 1664 0668 01       		.byte	1
 1665 0669 70       		.byte	112
 1666 066a 01       		.byte	1
 1667 066b 10       		.byte	16
 1668 066c 00       		.byte	0
 1669 066d E0       		.byte	-32
 1670 066e 00       		.byte	0
 1671 066f 00       		.byte	0
 1672 0670 00       		.byte	0
 1673 0671 E0       		.byte	-32
 1674 0672 01       		.byte	1
 1675 0673 10       		.byte	16
 1676 0674 01       		.byte	1
 1677 0675 30       		.byte	48
 1678 0676 00       		.byte	0
 1679 0677 80       		.byte	-128
 1680 0678 01       		.byte	1
 1681 0679 10       		.byte	16
 1682 067a 05       		.byte	5
 1683 067b F0       		.byte	-16
 1684 067c 02       		.byte	2
 1685 067d 30       		.byte	48
 1686 067e 01       		.byte	1
 1687 067f C0       		.byte	-64
 1688 0680 00       		.byte	0
 1689 0681 E0       		.byte	-32
 1690 0682 01       		.byte	1
 1691 0683 10       		.byte	16
 1692 0684 01       		.byte	1
 1693 0685 20       		.byte	32
 1694 0686 01       		.byte	1
 1695 0687 20       		.byte	32
 1696 0688 00       		.byte	0
 1697 0689 90       		.byte	-112
 1698 068a 00       		.byte	0
 1699 068b B0       		.byte	-80
 1700 068c 00       		.byte	0
 1701 068d B0       		.byte	-80
 1702 068e 07       		.byte	7
 1703 068f 00       		.byte	0
 1704 0690 00       		.byte	0
 1705 0691 60       		.byte	96
 1706 0692 03       		.byte	3
 1707 0693 90       		.byte	-112
 1708 0694 02       		.byte	2
 1709 0695 90       		.byte	-112
 1710 0696 02       		.byte	2
 1711 0697 B0       		.byte	-80
 1712 0698 02       		.byte	2
 1713 0699 B0       		.byte	-80
 1714 069a 06       		.byte	6
 1715 069b 00       		.byte	0
 1716 069c 00       		.byte	0
 1717 069d 00       		.byte	0
 1718 069e 00       		.byte	0
 1719 069f 00       		.byte	0
 1720 06a0 00       		.byte	0
 1721 06a1 00       		.byte	0
 1722 06a2 03       		.byte	3
 1723 06a3 00       		.byte	0
 1724 06a4 05       		.byte	5
 1725 06a5 F0       		.byte	-16
 1726 06a6 05       		.byte	5
 1727 06a7 00       		.byte	0
 1728 06a8 04       		.byte	4
 1729 06a9 00       		.byte	0
 1730 06aa 03       		.byte	3
 1731 06ab F0       		.byte	-16
 1732 06ac 00       		.byte	0
 1733 06ad 00       		.byte	0
 1734 06ae 00       		.byte	0
 1735 06af 00       		.byte	0
 1736 06b0 00       		.byte	0
 1737 06b1 00       		.byte	0
 1738 06b2 03       		.byte	3
 1739 06b3 80       		.byte	-128
 1740 06b4 05       		.byte	5
 1741 06b5 80       		.byte	-128
 1742 06b6 04       		.byte	4
 1743 06b7 00       		.byte	0
 1744 06b8 07       		.byte	7
 1745 06b9 F0       		.byte	-16
 1746 06ba 00       		.byte	0
 1747 06bb 10       		.byte	16
 1748 06bc 07       		.byte	7
 1749 06bd F0       		.byte	-16
 1750 06be 00       		.byte	0
 1751 06bf 00       		.byte	0
 1752 06c0 00       		.byte	0
 1753 06c1 00       		.byte	0
 1754 06c2 03       		.byte	3
 1755 06c3 80       		.byte	-128
 1756 06c4 04       		.byte	4
 1757 06c5 F0       		.byte	-16
 1758 06c6 05       		.byte	5
 1759 06c7 80       		.byte	-128
 1760 06c8 02       		.byte	2
 1761 06c9 00       		.byte	0
 1762 06ca 04       		.byte	4
 1763 06cb 00       		.byte	0
 1764 06cc 03       		.byte	3
 1765 06cd F0       		.byte	-16
 1766 06ce 00       		.byte	0
 1767 06cf 00       		.byte	0
 1768 06d0 00       		.byte	0
 1769 06d1 00       		.byte	0
 1770 06d2 03       		.byte	3
 1771 06d3 80       		.byte	-128
 1772 06d4 04       		.byte	4
 1773 06d5 70       		.byte	112
 1774 06d6 04       		.byte	4
 1775 06d7 C0       		.byte	-64
 1776 06d8 04       		.byte	4
 1777 06d9 00       		.byte	0
 1778 06da 03       		.byte	3
 1779 06db F0       		.byte	-16
 1780 06dc 00       		.byte	0
 1781 06dd 00       		.byte	0
 1782 06de 00       		.byte	0
 1783 06df 00       		.byte	0
 1784 06e0 00       		.byte	0
 1785 06e1 00       		.byte	0
 1786 06e2 03       		.byte	3
 1787 06e3 80       		.byte	-128
 1788 06e4 04       		.byte	4
 1789 06e5 F0       		.byte	-16
 1790 06e6 05       		.byte	5
 1791 06e7 80       		.byte	-128
 1792 06e8 02       		.byte	2
 1793 06e9 00       		.byte	0
 1794 06ea 04       		.byte	4
 1795 06eb 00       		.byte	0
 1796 06ec 03       		.byte	3
 1797 06ed F0       		.byte	-16
 1798 06ee 00       		.byte	0
 1799 06ef 00       		.byte	0
 1800 06f0 03       		.byte	3
 1801 06f1 80       		.byte	-128
 1802 06f2 02       		.byte	2
 1803 06f3 80       		.byte	-128
 1804 06f4 05       		.byte	5
 1805 06f5 B0       		.byte	-80
 1806 06f6 03       		.byte	3
 1807 06f7 F0       		.byte	-16
 1808 06f8 00       		.byte	0
 1809 06f9 20       		.byte	32
 1810 06fa 00       		.byte	0
 1811 06fb 20       		.byte	32
 1812 06fc 03       		.byte	3
 1813 06fd F0       		.byte	-16
 1814 06fe 00       		.byte	0
 1815 06ff 00       		.byte	0
 1816 0700 00       		.byte	0
 1817 0701 00       		.byte	0
 1818 0702 00       		.byte	0
 1819 0703 00       		.byte	0
 1820 0704 00       		.byte	0
 1821 0705 C0       		.byte	-64
 1822 0706 00       		.byte	0
 1823 0707 60       		.byte	96
 1824 0708 06       		.byte	6
 1825 0709 30       		.byte	48
 1826 070a 07       		.byte	7
 1827 070b F0       		.byte	-16
 1828 070c 00       		.byte	0
 1829 070d 00       		.byte	0
 1830 070e 00       		.byte	0
 1831 070f 00       		.byte	0
 1832 0710 00       		.byte	0
 1833 0711 00       		.byte	0
 1834 0712 00       		.byte	0
 1835 0713 00       		.byte	0
 1836 0714 04       		.byte	4
 1837 0715 C0       		.byte	-64
 1838 0716 04       		.byte	4
 1839 0717 F0       		.byte	-16
 1840 0718 04       		.byte	4
 1841 0719 10       		.byte	16
 1842 071a 03       		.byte	3
 1843 071b F0       		.byte	-16
 1844 071c 00       		.byte	0
 1845 071d 00       		.byte	0
 1846 071e 00       		.byte	0
 1847 071f 00       		.byte	0
 1848 0720 00       		.byte	0
 1849 0721 00       		.byte	0
 1850 0722 01       		.byte	1
 1851 0723 80       		.byte	-128
 1852 0724 05       		.byte	5
 1853 0725 F0       		.byte	-16
 1854 0726 04       		.byte	4
 1855 0727 20       		.byte	32
 1856 0728 04       		.byte	4
 1857 0729 20       		.byte	32
 1858 072a 03       		.byte	3
 1859 072b F0       		.byte	-16
 1860 072c 00       		.byte	0
 1861 072d 30       		.byte	48
 1862 072e 00       		.byte	0
 1863 072f 00       		.byte	0
 1864 0730 00       		.byte	0
 1865 0731 00       		.byte	0
 1866 0732 07       		.byte	7
 1867 0733 00       		.byte	0
 1868 0734 05       		.byte	5
 1869 0735 00       		.byte	0
 1870 0736 07       		.byte	7
 1871 0737 F0       		.byte	-16
 1872 0738 02       		.byte	2
 1873 0739 10       		.byte	16
 1874 073a 03       		.byte	3
 1875 073b E0       		.byte	-32
 1876 073c 04       		.byte	4
 1877 073d 00       		.byte	0
 1878 073e 00       		.byte	0
 1879 073f 00       		.byte	0
 1880 0740 00       		.byte	0
 1881 0741 00       		.byte	0
 1882 0742 03       		.byte	3
 1883 0743 80       		.byte	-128
 1884 0744 05       		.byte	5
 1885 0745 80       		.byte	-128
 1886 0746 02       		.byte	2
 1887 0747 00       		.byte	0
 1888 0748 07       		.byte	7
 1889 0749 F0       		.byte	-16
 1890 074a 02       		.byte	2
 1891 074b 10       		.byte	16
 1892 074c 05       		.byte	5
 1893 074d F0       		.byte	-16
 1894 074e 00       		.byte	0
 1895 074f 00       		.byte	0
 1896 0750 03       		.byte	3
 1897 0751 30       		.byte	48
 1898 0752 05       		.byte	5
 1899 0753 F0       		.byte	-16
 1900 0754 05       		.byte	5
 1901 0755 00       		.byte	0
 1902 0756 04       		.byte	4
 1903 0757 30       		.byte	48
 1904 0758 03       		.byte	3
 1905 0759 F0       		.byte	-16
 1906 075a 00       		.byte	0
 1907 075b 20       		.byte	32
 1908 075c 07       		.byte	7
 1909 075d F0       		.byte	-16
 1910 075e 00       		.byte	0
 1911 075f 00       		.byte	0
 1912 0760 03       		.byte	3
 1913 0761 00       		.byte	0
 1914 0762 05       		.byte	5
 1915 0763 F0       		.byte	-16
 1916 0764 05       		.byte	5
 1917 0765 30       		.byte	48
 1918 0766 04       		.byte	4
 1919 0767 00       		.byte	0
 1920 0768 03       		.byte	3
 1921 0769 E6       		.byte	-26
 1922 076a 00       		.byte	0
 1923 076b 16       		.byte	22
 1924 076c 00       		.byte	0
 1925 076d 12       		.byte	18
 1926 076e 07       		.byte	7
 1927 076f E6       		.byte	-26
 1928 0770 00       		.byte	0
 1929 0771 00       		.byte	0
 1930 0772 00       		.byte	0
 1931 0773 00       		.byte	0
 1932 0774 03       		.byte	3
 1933 0775 30       		.byte	48
 1934 0776 05       		.byte	5
 1935 0777 F6       		.byte	-10
 1936 0778 05       		.byte	5
 1937 0779 0E       		.byte	14
 1938 077a 04       		.byte	4
 1939 077b 0C       		.byte	12
 1940 077c 03       		.byte	3
 1941 077d FE       		.byte	-2
 1942 077e 00       		.byte	0
 1943 077f 00       		.byte	0
 1944 0780 00       		.byte	0
 1945 0781 00       		.byte	0
 1946 0782 00       		.byte	0
 1947 0783 00       		.byte	0
 1948 0784 03       		.byte	3
 1949 0785 30       		.byte	48
 1950 0786 05       		.byte	5
 1951 0787 F6       		.byte	-10
 1952 0788 05       		.byte	5
 1953 0789 0E       		.byte	14
 1954 078a 04       		.byte	4
 1955 078b 0A       		.byte	10
 1956 078c 03       		.byte	3
 1957 078d FE       		.byte	-2
 1958 078e 00       		.byte	0
 1959 078f 00       		.byte	0
 1960 0790 00       		.byte	0
 1961 0791 00       		.byte	0
 1962 0792 00       		.byte	0
 1963 0793 00       		.byte	0
 1964 0794 00       		.byte	0
 1965 0795 02       		.byte	2
 1966 0796 06       		.byte	6
 1967 0797 63       		.byte	99
 1968 0798 06       		.byte	6
 1969 0799 75       		.byte	117
 1970 079a 06       		.byte	6
 1971 079b 17       		.byte	23
 1972 079c 05       		.byte	5
 1973 079d F7       		.byte	-9
 1974 079e 00       		.byte	0
 1975 079f 00       		.byte	0
 1976 07a0 07       		.byte	7
 1977 07a1 80       		.byte	-128
 1978 07a2 03       		.byte	3
 1979 07a3 80       		.byte	-128
 1980 07a4 04       		.byte	4
 1981 07a5 00       		.byte	0
 1982 07a6 07       		.byte	7
 1983 07a7 F0       		.byte	-16
 1984 07a8 03       		.byte	3
 1985 07a9 00       		.byte	0
 1986 07aa 04       		.byte	4
 1987 07ab 00       		.byte	0
 1988 07ac 03       		.byte	3
 1989 07ad F0       		.byte	-16
 1990 07ae 00       		.byte	0
 1991 07af 00       		.byte	0
 1992 07b0 03       		.byte	3
 1993 07b1 C0       		.byte	-64
 1994 07b2 06       		.byte	6
 1995 07b3 30       		.byte	48
 1996 07b4 06       		.byte	6
 1997 07b5 C0       		.byte	-64
 1998 07b6 03       		.byte	3
 1999 07b7 00       		.byte	0
 2000 07b8 04       		.byte	4
 2001 07b9 30       		.byte	48
 2002 07ba 03       		.byte	3
 2003 07bb F0       		.byte	-16
 2004 07bc 00       		.byte	0
 2005 07bd 20       		.byte	32
 2006 07be 07       		.byte	7
 2007 07bf F0       		.byte	-16
 2008 07c0 03       		.byte	3
 2009 07c1 00       		.byte	0
 2010 07c2 05       		.byte	5
 2011 07c3 F0       		.byte	-16
 2012 07c4 05       		.byte	5
 2013 07c5 30       		.byte	48
 2014 07c6 04       		.byte	4
 2015 07c7 00       		.byte	0
 2016 07c8 03       		.byte	3
 2017 07c9 F0       		.byte	-16
 2018 07ca 00       		.byte	0
 2019 07cb 20       		.byte	32
 2020 07cc 07       		.byte	7
 2021 07cd F0       		.byte	-16
 2022 07ce 00       		.byte	0
 2023 07cf 30       		.byte	48
 2024 07d0 00       		.byte	0
 2025 07d1 00       		.byte	0
 2026 07d2 03       		.byte	3
 2027 07d3 80       		.byte	-128
 2028 07d4 06       		.byte	6
 2029 07d5 70       		.byte	112
 2030 07d6 05       		.byte	5
 2031 07d7 40       		.byte	64
 2032 07d8 05       		.byte	5
 2033 07d9 80       		.byte	-128
 2034 07da 04       		.byte	4
 2035 07db 00       		.byte	0
 2036 07dc 03       		.byte	3
 2037 07dd F0       		.byte	-16
 2038 07de 00       		.byte	0
 2039 07df 00       		.byte	0
 2040 07e0 00       		.byte	0
 2041 07e1 00       		.byte	0
 2042 07e2 03       		.byte	3
 2043 07e3 80       		.byte	-128
 2044 07e4 04       		.byte	4
 2045 07e5 70       		.byte	112
 2046 07e6 06       		.byte	6
 2047 07e7 20       		.byte	32
 2048 07e8 03       		.byte	3
 2049 07e9 C0       		.byte	-64
 2050 07ea 04       		.byte	4
 2051 07eb 00       		.byte	0
 2052 07ec 03       		.byte	3
 2053 07ed F0       		.byte	-16
 2054 07ee 00       		.byte	0
 2055 07ef 00       		.byte	0
 2056 07f0 00       		.byte	0
 2057 07f1 00       		.byte	0
 2058 07f2 00       		.byte	0
 2059 07f3 00       		.byte	0
 2060 07f4 03       		.byte	3
 2061 07f5 00       		.byte	0
 2062 07f6 05       		.byte	5
 2063 07f7 F0       		.byte	-16
 2064 07f8 05       		.byte	5
 2065 07f9 30       		.byte	48
 2066 07fa 04       		.byte	4
 2067 07fb 00       		.byte	0
 2068 07fc 03       		.byte	3
 2069 07fd F0       		.byte	-16
 2070 07fe 00       		.byte	0
 2071 07ff 00       		.byte	0
 2072 0800 00       		.byte	0
 2073 0801 00       		.byte	0
 2074 0802 06       		.byte	6
 2075 0803 00       		.byte	0
 2076 0804 07       		.byte	7
 2077 0805 F0       		.byte	-16
 2078 0806 01       		.byte	1
 2079 0807 80       		.byte	-128
 2080 0808 06       		.byte	6
 2081 0809 00       		.byte	0
 2082 080a 04       		.byte	4
 2083 080b 00       		.byte	0
 2084 080c 07       		.byte	7
 2085 080d F0       		.byte	-16
 2086 080e 00       		.byte	0
 2087 080f 00       		.byte	0
 2088 0810 00       		.byte	0
 2089 0811 00       		.byte	0
 2090 0812 00       		.byte	0
 2091 0813 00       		.byte	0
 2092 0814 00       		.byte	0
 2093 0815 00       		.byte	0
 2094 0816 07       		.byte	7
 2095 0817 10       		.byte	16
 2096 0818 05       		.byte	5
 2097 0819 F0       		.byte	-16
 2098 081a 02       		.byte	2
 2099 081b 90       		.byte	-112
 2100 081c 06       		.byte	6
 2101 081d F0       		.byte	-16
 2102 081e 00       		.byte	0
 2103 081f 00       		.byte	0
 2104 0820 00       		.byte	0
 2105 0821 00       		.byte	0
 2106 0822 00       		.byte	0
 2107 0823 00       		.byte	0
 2108 0824 06       		.byte	6
 2109 0825 00       		.byte	0
 2110 0826 07       		.byte	7
 2111 0827 F0       		.byte	-16
 2112 0828 00       		.byte	0
 2113 0829 20       		.byte	32
 2114 082a 00       		.byte	0
 2115 082b 70       		.byte	112
 2116 082c 07       		.byte	7
 2117 082d F0       		.byte	-16
 2118 082e 00       		.byte	0
 2119 082f 00       		.byte	0
 2120 0830 00       		.byte	0
 2121 0831 00       		.byte	0
 2122 0832 00       		.byte	0
 2123 0833 00       		.byte	0
 2124 0834 06       		.byte	6
 2125 0835 10       		.byte	16
 2126 0836 07       		.byte	7
 2127 0837 F0       		.byte	-16
 2128 0838 00       		.byte	0
 2129 0839 10       		.byte	16
 2130 083a 00       		.byte	0
 2131 083b 10       		.byte	16
 2132 083c 07       		.byte	7
 2133 083d F0       		.byte	-16
 2134 083e 00       		.byte	0
 2135 083f 00       		.byte	0
 2136 0840 00       		.byte	0
 2137 0841 00       		.byte	0
 2138 0842 00       		.byte	0
 2139 0843 00       		.byte	0
 2140 0844 06       		.byte	6
 2141 0845 00       		.byte	0
 2142 0846 07       		.byte	7
 2143 0847 F0       		.byte	-16
 2144 0848 00       		.byte	0
 2145 0849 10       		.byte	16
 2146 084a 00       		.byte	0
 2147 084b 10       		.byte	16
 2148 084c 7F       		.byte	127
 2149 084d F0       		.byte	-16
 2150 084e 00       		.byte	0
 2151 084f 00       		.byte	0
 2152 0850 00       		.byte	0
 2153 0851 00       		.byte	0
 2154 0852 00       		.byte	0
 2155 0853 00       		.byte	0
 2156 0854 07       		.byte	7
 2157 0855 F0       		.byte	-16
 2158 0856 06       		.byte	6
 2159 0857 40       		.byte	64
 2160 0858 00       		.byte	0
 2161 0859 80       		.byte	-128
 2162 085a 00       		.byte	0
 2163 085b 40       		.byte	64
 2164 085c 07       		.byte	7
 2165 085d F0       		.byte	-16
 2166 085e 00       		.byte	0
 2167 085f 00       		.byte	0
 2168 0860 00       		.byte	0
 2169 0861 00       		.byte	0
 2170 0862 00       		.byte	0
 2171 0863 00       		.byte	0
 2172 0864 07       		.byte	7
 2173 0865 F0       		.byte	-16
 2174 0866 06       		.byte	6
 2175 0867 40       		.byte	64
 2176 0868 00       		.byte	0
 2177 0869 80       		.byte	-128
 2178 086a 00       		.byte	0
 2179 086b 40       		.byte	64
 2180 086c 3F       		.byte	63
 2181 086d F0       		.byte	-16
 2182 086e 00       		.byte	0
 2183 086f 00       		.byte	0
 2184 0870 00       		.byte	0
 2185 0871 00       		.byte	0
 2186 0872 06       		.byte	6
 2187 0873 00       		.byte	0
 2188 0874 07       		.byte	7
 2189 0875 F0       		.byte	-16
 2190 0876 01       		.byte	1
 2191 0877 C0       		.byte	-64
 2192 0878 07       		.byte	7
 2193 0879 00       		.byte	0
 2194 087a 00       		.byte	0
 2195 087b C0       		.byte	-64
 2196 087c 07       		.byte	7
 2197 087d F0       		.byte	-16
 2198 087e 00       		.byte	0
 2199 087f 00       		.byte	0
 2200 0880 00       		.byte	0
 2201 0881 00       		.byte	0
 2202 0882 06       		.byte	6
 2203 0883 00       		.byte	0
 2204 0884 07       		.byte	7
 2205 0885 F0       		.byte	-16
 2206 0886 01       		.byte	1
 2207 0887 C0       		.byte	-64
 2208 0888 07       		.byte	7
 2209 0889 00       		.byte	0
 2210 088a 00       		.byte	0
 2211 088b C0       		.byte	-64
 2212 088c 3F       		.byte	63
 2213 088d F0       		.byte	-16
 2214 088e 00       		.byte	0
 2215 088f 00       		.byte	0
 2216 0890 00       		.byte	0
 2217 0891 00       		.byte	0
 2218 0892 00       		.byte	0
 2219 0893 00       		.byte	0
 2220 0894 03       		.byte	3
 2221 0895 30       		.byte	48
 2222 0896 05       		.byte	5
 2223 0897 F0       		.byte	-16
 2224 0898 05       		.byte	5
 2225 0899 00       		.byte	0
 2226 089a 04       		.byte	4
 2227 089b 00       		.byte	0
 2228 089c 03       		.byte	3
 2229 089d F0       		.byte	-16
 2230 089e 00       		.byte	0
 2231 089f 00       		.byte	0
 2232 08a0 00       		.byte	0
 2233 08a1 00       		.byte	0
 2234 08a2 00       		.byte	0
 2235 08a3 00       		.byte	0
 2236 08a4 06       		.byte	6
 2237 08a5 30       		.byte	48
 2238 08a6 07       		.byte	7
 2239 08a7 F0       		.byte	-16
 2240 08a8 00       		.byte	0
 2241 08a9 20       		.byte	32
 2242 08aa 00       		.byte	0
 2243 08ab 10       		.byte	16
 2244 08ac 07       		.byte	7
 2245 08ad F0       		.byte	-16
 2246 08ae 00       		.byte	0
 2247 08af 00       		.byte	0
 2248 08b0 00       		.byte	0
 2249 08b1 00       		.byte	0
 2250 08b2 00       		.byte	0
 2251 08b3 00       		.byte	0
 2252 08b4 07       		.byte	7
 2253 08b5 F0       		.byte	-16
 2254 08b6 06       		.byte	6
 2255 08b7 90       		.byte	-112
 2256 08b8 00       		.byte	0
 2257 08b9 10       		.byte	16
 2258 08ba 00       		.byte	0
 2259 08bb 10       		.byte	16
 2260 08bc 07       		.byte	7
 2261 08bd F0       		.byte	-16
 2262 08be 00       		.byte	0
 2263 08bf 00       		.byte	0
 2264 08c0 00       		.byte	0
 2265 08c1 00       		.byte	0
 2266 08c2 00       		.byte	0
 2267 08c3 00       		.byte	0
 2268 08c4 00       		.byte	0
 2269 08c5 00       		.byte	0
 2270 08c6 02       		.byte	2
 2271 08c7 00       		.byte	0
 2272 08c8 05       		.byte	5
 2273 08c9 00       		.byte	0
 2274 08ca 05       		.byte	5
 2275 08cb 30       		.byte	48
 2276 08cc 05       		.byte	5
 2277 08cd F0       		.byte	-16
 2278 08ce 00       		.byte	0
 2279 08cf 00       		.byte	0
 2280 08d0 00       		.byte	0
 2281 08d1 00       		.byte	0
 2282 08d2 00       		.byte	0
 2283 08d3 00       		.byte	0
 2284 08d4 04       		.byte	4
 2285 08d5 00       		.byte	0
 2286 08d6 05       		.byte	5
 2287 08d7 F0       		.byte	-16
 2288 08d8 05       		.byte	5
 2289 08d9 30       		.byte	48
 2290 08da 05       		.byte	5
 2291 08db 00       		.byte	0
 2292 08dc 03       		.byte	3
 2293 08dd F0       		.byte	-16
 2294 08de 00       		.byte	0
 2295 08df 00       		.byte	0
 2296 08e0 00       		.byte	0
 2297 08e1 00       		.byte	0
 2298 08e2 00       		.byte	0
 2299 08e3 00       		.byte	0
 2300 08e4 02       		.byte	2
 2301 08e5 00       		.byte	0
 2302 08e6 04       		.byte	4
 2303 08e7 00       		.byte	0
 2304 08e8 04       		.byte	4
 2305 08e9 00       		.byte	0
 2306 08ea 04       		.byte	4
 2307 08eb 30       		.byte	48
 2308 08ec 03       		.byte	3
 2309 08ed F0       		.byte	-16
 2310 08ee 00       		.byte	0
 2311 08ef 00       		.byte	0
 2312 08f0 00       		.byte	0
 2313 08f1 00       		.byte	0
 2314 08f2 00       		.byte	0
 2315 08f3 00       		.byte	0
 2316 08f4 03       		.byte	3
 2317 08f5 00       		.byte	0
 2318 08f6 05       		.byte	5
 2319 08f7 F0       		.byte	-16
 2320 08f8 05       		.byte	5
 2321 08f9 80       		.byte	-128
 2322 08fa 05       		.byte	5
 2323 08fb 00       		.byte	0
 2324 08fc 07       		.byte	7
 2325 08fd F0       		.byte	-16
 2326 08fe 00       		.byte	0
 2327 08ff 00       		.byte	0
 2328 0900 00       		.byte	0
 2329 0901 00       		.byte	0
 2330 0902 00       		.byte	0
 2331 0903 00       		.byte	0
 2332 0904 06       		.byte	6
 2333 0905 10       		.byte	16
 2334 0906 07       		.byte	7
 2335 0907 F0       		.byte	-16
 2336 0908 00       		.byte	0
 2337 0909 D0       		.byte	-48
 2338 090a 00       		.byte	0
 2339 090b 50       		.byte	80
 2340 090c 07       		.byte	7
 2341 090d F0       		.byte	-16
 2342 090e 00       		.byte	0
 2343 090f 00       		.byte	0
 2344 0910 00       		.byte	0
 2345 0911 00       		.byte	0
 2346 0912 04       		.byte	4
 2347 0913 00       		.byte	0
 2348 0914 05       		.byte	5
 2349 0915 F0       		.byte	-16
 2350 0916 05       		.byte	5
 2351 0917 30       		.byte	48
 2352 0918 05       		.byte	5
 2353 0919 00       		.byte	0
 2354 091a 03       		.byte	3
 2355 091b F0       		.byte	-16
 2356 091c 06       		.byte	6
 2357 091d 00       		.byte	0
 2358 091e 00       		.byte	0
 2359 091f 00       		.byte	0
 2360 0920 00       		.byte	0
 2361 0921 00       		.byte	0
 2362 0922 00       		.byte	0
 2363 0923 00       		.byte	0
 2364 0924 06       		.byte	6
 2365 0925 00       		.byte	0
 2366 0926 07       		.byte	7
 2367 0927 F0       		.byte	-16
 2368 0928 00       		.byte	0
 2369 0929 80       		.byte	-128
 2370 092a 07       		.byte	7
 2371 092b 00       		.byte	0
 2372 092c 07       		.byte	7
 2373 092d F0       		.byte	-16
 2374 092e 00       		.byte	0
 2375 092f 00       		.byte	0
 2376 0930 00       		.byte	0
 2377 0931 00       		.byte	0
 2378 0932 06       		.byte	6
 2379 0933 00       		.byte	0
 2380 0934 03       		.byte	3
 2381 0935 F0       		.byte	-16
 2382 0936 00       		.byte	0
 2383 0937 60       		.byte	96
 2384 0938 03       		.byte	3
 2385 0939 80       		.byte	-128
 2386 093a 04       		.byte	4
 2387 093b E0       		.byte	-32
 2388 093c 07       		.byte	7
 2389 093d F0       		.byte	-16
 2390 093e 04       		.byte	4
 2391 093f 00       		.byte	0
 2392 0940 00       		.byte	0
 2393 0941 00       		.byte	0
 2394 0942 00       		.byte	0
 2395 0943 00       		.byte	0
 2396 0944 04       		.byte	4
 2397 0945 F0       		.byte	-16
 2398 0946 04       		.byte	4
 2399 0947 D0       		.byte	-48
 2400 0948 04       		.byte	4
 2401 0949 10       		.byte	16
 2402 094a 03       		.byte	3
 2403 094b E0       		.byte	-32
 2404 094c 00       		.byte	0
 2405 094d 00       		.byte	0
 2406 094e 00       		.byte	0
 2407 094f 00       		.byte	0
 2408 0950 00       		.byte	0
 2409 0951 00       		.byte	0
 2410 0952 00       		.byte	0
 2411 0953 00       		.byte	0
 2412 0954 05       		.byte	5
 2413 0955 E0       		.byte	-32
 2414 0956 05       		.byte	5
 2415 0957 90       		.byte	-112
 2416 0958 04       		.byte	4
 2417 0959 10       		.byte	16
 2418 095a 07       		.byte	7
 2419 095b E0       		.byte	-32
 2420 095c 00       		.byte	0
 2421 095d 00       		.byte	0
 2422 095e 00       		.byte	0
 2423 095f 00       		.byte	0
 2424 0960 00       		.byte	0
 2425 0961 00       		.byte	0
 2426 0962 03       		.byte	3
 2427 0963 30       		.byte	48
 2428 0964 03       		.byte	3
 2429 0965 30       		.byte	48
 2430 0966 01       		.byte	1
 2431 0967 10       		.byte	16
 2432 0968 01       		.byte	1
 2433 0969 10       		.byte	16
 2434 096a 02       		.byte	2
 2435 096b 20       		.byte	32
 2436 096c 00       		.byte	0
 2437 096d 00       		.byte	0
 2438 096e 00       		.byte	0
 2439 096f 00       		.byte	0
 2440 0970 00       		.byte	0
 2441 0971 00       		.byte	0
 2442 0972 00       		.byte	0
 2443 0973 00       		.byte	0
 2444 0974 04       		.byte	4
 2445 0975 00       		.byte	0
 2446 0976 04       		.byte	4
 2447 0977 00       		.byte	0
 2448 0978 04       		.byte	4
 2449 0979 00       		.byte	0
 2450 097a 03       		.byte	3
 2451 097b F0       		.byte	-16
 2452 097c 00       		.byte	0
 2453 097d 00       		.byte	0
 2454 097e 00       		.byte	0
 2455 097f 00       		.byte	0
 2456 0980 00       		.byte	0
 2457 0981 00       		.byte	0
 2458 0982 30       		.byte	48
 2459 0983 00       		.byte	0
 2460 0984 50       		.byte	80
 2461 0985 00       		.byte	0
 2462 0986 50       		.byte	80
 2463 0987 00       		.byte	0
 2464 0988 50       		.byte	80
 2465 0989 00       		.byte	0
 2466 098a 30       		.byte	48
 2467 098b 00       		.byte	0
 2468 098c 00       		.byte	0
 2469 098d 00       		.byte	0
 2470 098e 00       		.byte	0
 2471 098f 00       		.byte	0
 2472 0990 00       		.byte	0
 2473 0991 00       		.byte	0
 2474 0992 00       		.byte	0
 2475 0993 00       		.byte	0
 2476 0994 30       		.byte	48
 2477 0995 00       		.byte	0
 2478 0996 50       		.byte	80
 2479 0997 00       		.byte	0
 2480 0998 50       		.byte	80
 2481 0999 00       		.byte	0
 2482 099a 50       		.byte	80
 2483 099b 00       		.byte	0
 2484 099c F0       		.byte	-16
 2485 099d 00       		.byte	0
 2486 099e 00       		.byte	0
 2487 099f 00       		.byte	0
 2488 09a0 00       		.byte	0
 2489 09a1 00       		.byte	0
 2490 09a2 00       		.byte	0
 2491 09a3 00       		.byte	0
 2492 09a4 00       		.byte	0
 2493 09a5 00       		.byte	0
 2494 09a6 00       		.byte	0
 2495 09a7 00       		.byte	0
 2496 09a8 00       		.byte	0
 2497 09a9 00       		.byte	0
 2498 09aa 00       		.byte	0
 2499 09ab 06       		.byte	6
 2500 09ac 00       		.byte	0
 2501 09ad 07       		.byte	7
 2502 09ae 00       		.byte	0
 2503 09af 00       		.byte	0
 2504 09b0 00       		.byte	0
 2505 09b1 00       		.byte	0
 2506 09b2 00       		.byte	0
 2507 09b3 00       		.byte	0
 2508 09b4 00       		.byte	0
 2509 09b5 00       		.byte	0
 2510 09b6 00       		.byte	0
 2511 09b7 06       		.byte	6
 2512 09b8 00       		.byte	0
 2513 09b9 07       		.byte	7
 2514 09ba 00       		.byte	0
 2515 09bb 01       		.byte	1
 2516 09bc 00       		.byte	0
 2517 09bd 07       		.byte	7
 2518 09be 00       		.byte	0
 2519 09bf 00       		.byte	0
 2520 09c0 00       		.byte	0
 2521 09c1 00       		.byte	0
 2522 09c2 20       		.byte	32
 2523 09c3 00       		.byte	0
 2524 09c4 50       		.byte	80
 2525 09c5 00       		.byte	0
 2526 09c6 2F       		.byte	47
 2527 09c7 F0       		.byte	-16
 2528 09c8 60       		.byte	96
 2529 09c9 30       		.byte	48
 2530 09ca 00       		.byte	0
 2531 09cb 00       		.byte	0
 2532 09cc 00       		.byte	0
 2533 09cd 00       		.byte	0
 2534 09ce 00       		.byte	0
 2535 09cf 00       		.byte	0
 2536 09d0 00       		.byte	0
 2537 09d1 00       		.byte	0
 2538 09d2 00       		.byte	0
 2539 09d3 00       		.byte	0
 2540 09d4 00       		.byte	0
 2541 09d5 00       		.byte	0
 2542 09d6 07       		.byte	7
 2543 09d7 F0       		.byte	-16
 2544 09d8 00       		.byte	0
 2545 09d9 30       		.byte	48
 2546 09da 00       		.byte	0
 2547 09db 00       		.byte	0
 2548 09dc 00       		.byte	0
 2549 09dd 00       		.byte	0
 2550 09de 00       		.byte	0
 2551 09df 00       		.byte	0
 2552 09e0 00       		.byte	0
 2553 09e1 00       		.byte	0
 2554 09e2 00       		.byte	0
 2555 09e3 00       		.byte	0
 2556 09e4 07       		.byte	7
 2557 09e5 F0       		.byte	-16
 2558 09e6 00       		.byte	0
 2559 09e7 30       		.byte	48
 2560 09e8 00       		.byte	0
 2561 09e9 00       		.byte	0
 2562 09ea 07       		.byte	7
 2563 09eb F0       		.byte	-16
 2564 09ec 00       		.byte	0
 2565 09ed 30       		.byte	48
 2566 09ee 00       		.byte	0
 2567 09ef 00       		.byte	0
 2568 09f0 00       		.byte	0
 2569 09f1 00       		.byte	0
 2570 09f2 00       		.byte	0
 2571 09f3 00       		.byte	0
 2572 09f4 00       		.byte	0
 2573 09f5 00       		.byte	0
 2574 09f6 00       		.byte	0
 2575 09f7 00       		.byte	0
 2576 09f8 00       		.byte	0
 2577 09f9 00       		.byte	0
 2578 09fa 30       		.byte	48
 2579 09fb 00       		.byte	0
 2580 09fc 30       		.byte	48
 2581 09fd 00       		.byte	0
 2582 09fe 00       		.byte	0
 2583 09ff 00       		.byte	0
 2584 0a00 00       		.byte	0
 2585 0a01 00       		.byte	0
 2586 0a02 00       		.byte	0
 2587 0a03 00       		.byte	0
 2588 0a04 00       		.byte	0
 2589 0a05 00       		.byte	0
 2590 0a06 03       		.byte	3
 2591 0a07 F0       		.byte	-16
 2592 0a08 05       		.byte	5
 2593 0a09 30       		.byte	48
 2594 0a0a 04       		.byte	4
 2595 0a0b 00       		.byte	0
 2596 0a0c 03       		.byte	3
 2597 0a0d FE       		.byte	-2
 2598 0a0e 00       		.byte	0
 2599 0a0f 00       		.byte	0
 2600 0a10 00       		.byte	0
 2601 0a11 00       		.byte	0
 2602 0a12 00       		.byte	0
 2603 0a13 00       		.byte	0
 2604 0a14 03       		.byte	3
 2605 0a15 80       		.byte	-128
 2606 0a16 00       		.byte	0
 2607 0a17 80       		.byte	-128
 2608 0a18 03       		.byte	3
 2609 0a19 80       		.byte	-128
 2610 0a1a 04       		.byte	4
 2611 0a1b 00       		.byte	0
 2612 0a1c 07       		.byte	7
 2613 0a1d F0       		.byte	-16
 2614 0a1e 00       		.byte	0
 2615 0a1f 00       		.byte	0
 2616 0a20 00       		.byte	0
 2617 0a21 00       		.byte	0
 2618 0a22 00       		.byte	0
 2619 0a23 00       		.byte	0
 2620 0a24 00       		.byte	0
 2621 0a25 00       		.byte	0
 2622 0a26 00       		.byte	0
 2623 0a27 00       		.byte	0
 2624 0a28 00       		.byte	0
 2625 0a29 00       		.byte	0
 2626 0a2a 00       		.byte	0
 2627 0a2b 00       		.byte	0
 2628 0a2c 03       		.byte	3
 2629 0a2d 80       		.byte	-128
 2630 0a2e 00       		.byte	0
 2631 0a2f 00       		.byte	0
 2632 0a30 00       		.byte	0
 2633 0a31 00       		.byte	0
 2634 0a32 00       		.byte	0
 2635 0a33 00       		.byte	0
 2636 0a34 00       		.byte	0
 2637 0a35 00       		.byte	0
 2638 0a36 00       		.byte	0
 2639 0a37 00       		.byte	0
 2640 0a38 06       		.byte	6
 2641 0a39 80       		.byte	-128
 2642 0a3a 07       		.byte	7
 2643 0a3b 80       		.byte	-128
 2644 0a3c 01       		.byte	1
 2645 0a3d 00       		.byte	0
 2646 0a3e 06       		.byte	6
 2647 0a3f 00       		.byte	0
 2648 0a40 00       		.byte	0
 2649 0a41 00       		.byte	0
 2650 0a42 00       		.byte	0
 2651 0a43 00       		.byte	0
 2652 0a44 00       		.byte	0
 2653 0a45 00       		.byte	0
 2654 0a46 03       		.byte	3
 2655 0a47 80       		.byte	-128
 2656 0a48 02       		.byte	2
 2657 0a49 00       		.byte	0
 2658 0a4a 03       		.byte	3
 2659 0a4b 80       		.byte	-128
 2660 0a4c 00       		.byte	0
 2661 0a4d 80       		.byte	-128
 2662 0a4e 03       		.byte	3
 2663 0a4f 00       		.byte	0
 2664 0a50 00       		.byte	0
 2665 0a51 00       		.byte	0
 2666 0a52 00       		.byte	0
 2667 0a53 00       		.byte	0
 2668 0a54 00       		.byte	0
 2669 0a55 00       		.byte	0
 2670 0a56 00       		.byte	0
 2671 0a57 00       		.byte	0
 2672 0a58 03       		.byte	3
 2673 0a59 00       		.byte	0
 2674 0a5a 02       		.byte	2
 2675 0a5b 80       		.byte	-128
 2676 0a5c 02       		.byte	2
 2677 0a5d 80       		.byte	-128
 2678 0a5e 06       		.byte	6
 2679 0a5f 80       		.byte	-128
 2680 0a60 00       		.byte	0
 2681 0a61 00       		.byte	0
 2682 0a62 00       		.byte	0
 2683 0a63 00       		.byte	0
 2684 0a64 00       		.byte	0
 2685 0a65 00       		.byte	0
 2686 0a66 01       		.byte	1
 2687 0a67 00       		.byte	0
 2688 0a68 03       		.byte	3
 2689 0a69 80       		.byte	-128
 2690 0a6a 01       		.byte	1
 2691 0a6b 00       		.byte	0
 2692 0a6c 00       		.byte	0
 2693 0a6d 00       		.byte	0
 2694 0a6e 00       		.byte	0
 2695 0a6f 00       		.byte	0
 2696 0a70 00       		.byte	0
 2697 0a71 00       		.byte	0
 2698 0a72 00       		.byte	0
 2699 0a73 00       		.byte	0
 2700 0a74 00       		.byte	0
 2701 0a75 00       		.byte	0
 2702 0a76 00       		.byte	0
 2703 0a77 00       		.byte	0
 2704 0a78 00       		.byte	0
 2705 0a79 C0       		.byte	-64
 2706 0a7a 03       		.byte	3
 2707 0a7b 40       		.byte	64
 2708 0a7c 04       		.byte	4
 2709 0a7d 00       		.byte	0
 2710 0a7e 00       		.byte	0
 2711 0a7f 00       		.byte	0
 2712 0a80 00       		.byte	0
 2713 0a81 00       		.byte	0
 2714 0a82 00       		.byte	0
 2715 0a83 00       		.byte	0
 2716 0a84 00       		.byte	0
 2717 0a85 00       		.byte	0
 2718 0a86 00       		.byte	0
 2719 0a87 00       		.byte	0
 2720 0a88 00       		.byte	0
 2721 0a89 00       		.byte	0
 2722 0a8a 00       		.byte	0
 2723 0a8b 00       		.byte	0
 2724 0a8c 00       		.byte	0
 2725 0a8d 00       		.byte	0
 2726 0a8e 00       		.byte	0
 2727 0a8f 00       		.byte	0
 2728 0a90 00       		.byte	0
 2729 0a91 00       		.byte	0
 2730 0a92 00       		.byte	0
 2731 0a93 00       		.byte	0
 2732 0a94 00       		.byte	0
 2733 0a95 00       		.byte	0
 2734 0a96 00       		.byte	0
 2735 0a97 00       		.byte	0
 2736 0a98 00       		.byte	0
 2737 0a99 00       		.byte	0
 2738 0a9a 00       		.byte	0
 2739 0a9b 00       		.byte	0
 2740 0a9c 00       		.byte	0
 2741 0a9d 00       		.byte	0
 2742 0a9e 00       		.byte	0
 2743 0a9f 00       		.byte	0
 2744 0aa0 00       		.byte	0
 2745 0aa1 00       		.byte	0
 2746 0aa2 00       		.byte	0
 2747 0aa3 00       		.byte	0
 2748 0aa4 00       		.byte	0
 2749 0aa5 00       		.byte	0
 2750 0aa6 00       		.byte	0
 2751 0aa7 00       		.byte	0
 2752 0aa8 00       		.byte	0
 2753 0aa9 00       		.byte	0
 2754 0aaa 00       		.byte	0
 2755 0aab 00       		.byte	0
 2756 0aac 00       		.byte	0
 2757 0aad 00       		.byte	0
 2758 0aae 00       		.byte	0
 2759 0aaf 00       		.byte	0
 2760 0ab0 00       		.byte	0
 2761 0ab1 00       		.byte	0
 2762 0ab2 00       		.byte	0
 2763 0ab3 00       		.byte	0
 2764 0ab4 00       		.byte	0
 2765 0ab5 00       		.byte	0
 2766 0ab6 00       		.byte	0
 2767 0ab7 00       		.byte	0
 2768 0ab8 00       		.byte	0
 2769 0ab9 00       		.byte	0
 2770 0aba 00       		.byte	0
 2771 0abb 00       		.byte	0
 2772 0abc 00       		.byte	0
 2773 0abd 00       		.byte	0
 2774 0abe 00       		.byte	0
 2775 0abf 00       		.byte	0
 2776 0ac0 00       		.byte	0
 2777 0ac1 00       		.byte	0
 2778 0ac2 00       		.byte	0
 2779 0ac3 00       		.byte	0
 2780 0ac4 00       		.byte	0
 2781 0ac5 00       		.byte	0
 2782 0ac6 00       		.byte	0
 2783 0ac7 00       		.byte	0
 2784 0ac8 00       		.byte	0
 2785 0ac9 00       		.byte	0
 2786 0aca 00       		.byte	0
 2787 0acb 00       		.byte	0
 2788 0acc 00       		.byte	0
 2789 0acd 00       		.byte	0
 2790 0ace 00       		.byte	0
 2791 0acf 00       		.byte	0
 2792 0ad0 00       		.byte	0
 2793 0ad1 00       		.byte	0
 2794 0ad2 00       		.byte	0
 2795 0ad3 00       		.byte	0
 2796 0ad4 00       		.byte	0
 2797 0ad5 00       		.byte	0
 2798 0ad6 00       		.byte	0
 2799 0ad7 00       		.byte	0
 2800 0ad8 00       		.byte	0
 2801 0ad9 00       		.byte	0
 2802 0ada 00       		.byte	0
 2803 0adb 00       		.byte	0
 2804 0adc 00       		.byte	0
 2805 0add 00       		.byte	0
 2806 0ade 00       		.byte	0
 2807 0adf 00       		.byte	0
 2808 0ae0 00       		.byte	0
 2809 0ae1 00       		.byte	0
 2810 0ae2 00       		.byte	0
 2811 0ae3 00       		.byte	0
 2812 0ae4 00       		.byte	0
 2813 0ae5 00       		.byte	0
 2814 0ae6 00       		.byte	0
 2815 0ae7 00       		.byte	0
 2816 0ae8 00       		.byte	0
 2817 0ae9 00       		.byte	0
 2818 0aea 00       		.byte	0
 2819 0aeb 00       		.byte	0
 2820 0aec 00       		.byte	0
 2821 0aed 00       		.byte	0
 2822 0aee 00       		.byte	0
 2823 0aef 00       		.byte	0
 2824 0af0 00       		.byte	0
 2825 0af1 00       		.byte	0
 2826 0af2 00       		.byte	0
 2827 0af3 00       		.byte	0
 2828 0af4 00       		.byte	0
 2829 0af5 00       		.byte	0
 2830 0af6 00       		.byte	0
 2831 0af7 00       		.byte	0
 2832 0af8 00       		.byte	0
 2833 0af9 00       		.byte	0
 2834 0afa 00       		.byte	0
 2835 0afb 00       		.byte	0
 2836 0afc 00       		.byte	0
 2837 0afd 00       		.byte	0
 2838 0afe 00       		.byte	0
 2839 0aff 00       		.byte	0
 2840              		.comm	offsetx,4,4
 2841              		.comm	offsety,4,4
 2842              		.global	ts_margin_xl
 2843              		.bss
 2844              		.align	2
 2847              	ts_margin_xl:
 2848 0000 00000000 		.space	4
 2849              		.global	ts_margin_xr
 2850              		.data
 2851              		.align	2
 2854              	ts_margin_xr:
 2855 0000 3F010000 		.word	319
 2856              		.global	ts_margin_yu
 2857              		.bss
 2858              		.align	2
 2861              	ts_margin_yu:
 2862 0004 00000000 		.space	4
 2863              		.global	ts_margin_yl
 2864              		.data
 2865              		.align	2
 2868              	ts_margin_yl:
 2869 0004 EF000000 		.word	239
 2870              		.comm	font_color,4,4
 2871              		.comm	back_color,4,4
 2872              		.comm	char_buf,16,4
 2873              		.section	.text.TSLCDPrintStr,"ax",%progbits
 2874              		.align	2
 2875              		.global	TSLCDPrintStr
 2876              		.thumb
 2877              		.thumb_func
 2879              	TSLCDPrintStr:
 2880              	.LFB0:
 2881              		.file 1 "C:/StellarisWare/driverlib/ELT240320TP.c"
   1:C:/StellarisWare/driverlib\ELT240320TP.c **** //*************************************************
   2:C:/StellarisWare/driverlib\ELT240320TP.c **** //	Test ELT240320TP 240 x 320 Color LCD
   3:C:/StellarisWare/driverlib\ELT240320TP.c **** //	@file 	ELT240320TP.c
   4:C:/StellarisWare/driverlib\ELT240320TP.c **** //	@author Teerapong Tanadechopon [ultra_mcu@msn.com]	
   5:C:/StellarisWare/driverlib\ELT240320TP.c **** // 	@since  2008 Oct 30
   6:C:/StellarisWare/driverlib\ELT240320TP.c **** //	@notes	Microchip MPLAB IDE v8.01
   7:C:/StellarisWare/driverlib\ELT240320TP.c **** //	@notes	Microchip C30 v3.02
   8:C:/StellarisWare/driverlib\ELT240320TP.c **** //	@notes	This source code modify from the "ELT240320TP_DEMO_AVR(www.ThaiEasyElec.com)"
   9:C:/StellarisWare/driverlib\ELT240320TP.c **** //			for ARM Cortex M3 Controller
  10:C:/StellarisWare/driverlib\ELT240320TP.c **** //*************************************************\
  11:C:/StellarisWare/driverlib\ELT240320TP.c **** 
  12:C:/StellarisWare/driverlib\ELT240320TP.c **** #include "ELT240320TP.h"
  13:C:/StellarisWare/driverlib\ELT240320TP.c **** #include "font_courier.h"
  14:C:/StellarisWare/driverlib\ELT240320TP.c **** //===========================================
  15:C:/StellarisWare/driverlib\ELT240320TP.c **** //	Global Variable
  16:C:/StellarisWare/driverlib\ELT240320TP.c **** //===========================================
  17:C:/StellarisWare/driverlib\ELT240320TP.c **** 
  18:C:/StellarisWare/driverlib\ELT240320TP.c **** ts_pos_t offsetx,offsety;
  19:C:/StellarisWare/driverlib\ELT240320TP.c **** ts_pos_t ts_margin_xl = 0;
  20:C:/StellarisWare/driverlib\ELT240320TP.c **** ts_pos_t ts_margin_xr = TS_SIZE_X - 1;
  21:C:/StellarisWare/driverlib\ELT240320TP.c **** ts_pos_t ts_margin_yu = 0;
  22:C:/StellarisWare/driverlib\ELT240320TP.c **** ts_pos_t ts_margin_yl = TS_SIZE_Y - 1;
  23:C:/StellarisWare/driverlib\ELT240320TP.c **** 
  24:C:/StellarisWare/driverlib\ELT240320TP.c **** word font_color;
  25:C:/StellarisWare/driverlib\ELT240320TP.c **** word back_color;
  26:C:/StellarisWare/driverlib\ELT240320TP.c **** byte char_buf[FONT_BIT_WIDTH][FONT_BYTE_HIGHT];
  27:C:/StellarisWare/driverlib\ELT240320TP.c **** 
  28:C:/StellarisWare/driverlib\ELT240320TP.c **** 
  29:C:/StellarisWare/driverlib\ELT240320TP.c **** 
  30:C:/StellarisWare/driverlib\ELT240320TP.c **** 
  31:C:/StellarisWare/driverlib\ELT240320TP.c **** //To print a user defined string
  32:C:/StellarisWare/driverlib\ELT240320TP.c **** void TSLCDPrintStr(byte line,byte column,char *str,ts_mode_t mode)
  33:C:/StellarisWare/driverlib\ELT240320TP.c **** {
 2882              		.loc 1 33 0
 2883              		.cfi_startproc
 2884              		@ args = 0, pretend = 0, frame = 24
 2885              		@ frame_needed = 1, uses_anonymous_args = 0
 2886 0000 80B5     		push	{r7, lr}
 2887              	.LCFI0:
 2888              		.cfi_def_cfa_offset 8
 2889              		.cfi_offset 14, -4
 2890              		.cfi_offset 7, -8
 2891 0002 86B0     		sub	sp, sp, #24
 2892              	.LCFI1:
 2893              		.cfi_def_cfa_offset 32
 2894 0004 00AF     		add	r7, sp, #0
 2895              	.LCFI2:
 2896              		.cfi_def_cfa_register 7
 2897 0006 3A60     		str	r2, [r7, #0]
 2898 0008 0246     		mov	r2, r0
 2899 000a FA71     		strb	r2, [r7, #7]
 2900 000c 0A46     		mov	r2, r1
 2901 000e BA71     		strb	r2, [r7, #6]
 2902 0010 7B71     		strb	r3, [r7, #5]
  34:C:/StellarisWare/driverlib\ELT240320TP.c **** 	int i = 0;
 2903              		.loc 1 34 0
 2904 0012 4FF00003 		mov	r3, #0
 2905 0016 7B61     		str	r3, [r7, #20]
  35:C:/StellarisWare/driverlib\ELT240320TP.c **** 	ts_pos_t posx,posy;
  36:C:/StellarisWare/driverlib\ELT240320TP.c **** 	posx = offsetx + column*FONT_WIDTH;
 2906              		.loc 1 36 0
 2907 0018 BB79     		ldrb	r3, [r7, #6]	@ zero_extendqisi2
 2908 001a 4FEAC302 		lsl	r2, r3, #3
 2909 001e 40F20003 		movw	r3, #:lower16:offsetx
 2910 0022 C0F20003 		movt	r3, #:upper16:offsetx
 2911 0026 1B68     		ldr	r3, [r3, #0]
 2912 0028 D318     		adds	r3, r2, r3
 2913 002a 3B61     		str	r3, [r7, #16]
  37:C:/StellarisWare/driverlib\ELT240320TP.c **** 	posy = offsety + line*FONT_HEIGHT;
 2914              		.loc 1 37 0
 2915 002c FB79     		ldrb	r3, [r7, #7]	@ zero_extendqisi2
 2916 002e 4FEA0312 		lsl	r2, r3, #4
 2917 0032 40F20003 		movw	r3, #:lower16:offsety
 2918 0036 C0F20003 		movt	r3, #:upper16:offsety
 2919 003a 1B68     		ldr	r3, [r3, #0]
 2920 003c D318     		adds	r3, r2, r3
 2921 003e FB60     		str	r3, [r7, #12]
  38:C:/StellarisWare/driverlib\ELT240320TP.c **** 
  39:C:/StellarisWare/driverlib\ELT240320TP.c **** 	while(str[i])
 2922              		.loc 1 39 0
 2923 0040 11E0     		b	.L2
 2924              	.L3:
  40:C:/StellarisWare/driverlib\ELT240320TP.c **** 	{
  41:C:/StellarisWare/driverlib\ELT240320TP.c **** 		TSLCDCharDisp(str[i],posx,posy,mode);
 2925              		.loc 1 41 0
 2926 0042 7B69     		ldr	r3, [r7, #20]
 2927 0044 3A68     		ldr	r2, [r7, #0]
 2928 0046 D318     		adds	r3, r2, r3
 2929 0048 1A78     		ldrb	r2, [r3, #0]	@ zero_extendqisi2
 2930 004a 7B79     		ldrb	r3, [r7, #5]	@ zero_extendqisi2
 2931 004c 1046     		mov	r0, r2
 2932 004e 3969     		ldr	r1, [r7, #16]
 2933 0050 FA68     		ldr	r2, [r7, #12]
 2934 0052 FFF7FEFF 		bl	TSLCDCharDisp
  42:C:/StellarisWare/driverlib\ELT240320TP.c **** 		posx += FONT_WIDTH;
 2935              		.loc 1 42 0
 2936 0056 3B69     		ldr	r3, [r7, #16]
 2937 0058 03F10803 		add	r3, r3, #8
 2938 005c 3B61     		str	r3, [r7, #16]
  43:C:/StellarisWare/driverlib\ELT240320TP.c **** 		i++;
 2939              		.loc 1 43 0
 2940 005e 7B69     		ldr	r3, [r7, #20]
 2941 0060 03F10103 		add	r3, r3, #1
 2942 0064 7B61     		str	r3, [r7, #20]
 2943              	.L2:
  39:C:/StellarisWare/driverlib\ELT240320TP.c **** 	while(str[i])
 2944              		.loc 1 39 0 discriminator 1
 2945 0066 7B69     		ldr	r3, [r7, #20]
 2946 0068 3A68     		ldr	r2, [r7, #0]
 2947 006a D318     		adds	r3, r2, r3
 2948 006c 1B78     		ldrb	r3, [r3, #0]	@ zero_extendqisi2
 2949 006e 002B     		cmp	r3, #0
 2950 0070 E7D1     		bne	.L3
  44:C:/StellarisWare/driverlib\ELT240320TP.c **** 	}
  45:C:/StellarisWare/driverlib\ELT240320TP.c **** }
 2951              		.loc 1 45 0
 2952 0072 07F11807 		add	r7, r7, #24
 2953 0076 BD46     		mov	sp, r7
 2954 0078 80BD     		pop	{r7, pc}
 2955              		.cfi_endproc
 2956              	.LFE0:
 2958 007a 00BF     		.section	.text.TSLCDPrintNumber,"ax",%progbits
 2959              		.align	2
 2960              		.global	TSLCDPrintNumber
 2961              		.thumb
 2962              		.thumb_func
 2964              	TSLCDPrintNumber:
 2965              	.LFB1:
  46:C:/StellarisWare/driverlib\ELT240320TP.c **** 
  47:C:/StellarisWare/driverlib\ELT240320TP.c **** //To print a user defined integer
  48:C:/StellarisWare/driverlib\ELT240320TP.c **** void TSLCDPrintNumber(byte line,byte column,int n,ts_mode_t mode)
  49:C:/StellarisWare/driverlib\ELT240320TP.c **** {
 2966              		.loc 1 49 0
 2967              		.cfi_startproc
 2968              		@ args = 0, pretend = 0, frame = 24
 2969              		@ frame_needed = 1, uses_anonymous_args = 0
 2970 0000 80B5     		push	{r7, lr}
 2971              	.LCFI3:
 2972              		.cfi_def_cfa_offset 8
 2973              		.cfi_offset 14, -4
 2974              		.cfi_offset 7, -8
 2975 0002 86B0     		sub	sp, sp, #24
 2976              	.LCFI4:
 2977              		.cfi_def_cfa_offset 32
 2978 0004 00AF     		add	r7, sp, #0
 2979              	.LCFI5:
 2980              		.cfi_def_cfa_register 7
 2981 0006 3A60     		str	r2, [r7, #0]
 2982 0008 0246     		mov	r2, r0
 2983 000a FA71     		strb	r2, [r7, #7]
 2984 000c 0A46     		mov	r2, r1
 2985 000e BA71     		strb	r2, [r7, #6]
 2986 0010 7B71     		strb	r3, [r7, #5]
  50:C:/StellarisWare/driverlib\ELT240320TP.c **** 	int i = 0;
 2987              		.loc 1 50 0
 2988 0012 4FF00003 		mov	r3, #0
 2989 0016 7B61     		str	r3, [r7, #20]
  51:C:/StellarisWare/driverlib\ELT240320TP.c **** 	char ch;
  52:C:/StellarisWare/driverlib\ELT240320TP.c **** 	ts_pos_t posx,posy;
  53:C:/StellarisWare/driverlib\ELT240320TP.c **** 	posx = offsetx + column*FONT_WIDTH;
 2990              		.loc 1 53 0
 2991 0018 BB79     		ldrb	r3, [r7, #6]	@ zero_extendqisi2
 2992 001a 4FEAC302 		lsl	r2, r3, #3
 2993 001e 40F20003 		movw	r3, #:lower16:offsetx
 2994 0022 C0F20003 		movt	r3, #:upper16:offsetx
 2995 0026 1B68     		ldr	r3, [r3, #0]
 2996 0028 D318     		adds	r3, r2, r3
 2997 002a 3B61     		str	r3, [r7, #16]
  54:C:/StellarisWare/driverlib\ELT240320TP.c **** 	posy = offsety + line*FONT_HEIGHT;
 2998              		.loc 1 54 0
 2999 002c FB79     		ldrb	r3, [r7, #7]	@ zero_extendqisi2
 3000 002e 4FEA0312 		lsl	r2, r3, #4
 3001 0032 40F20003 		movw	r3, #:lower16:offsety
 3002 0036 C0F20003 		movt	r3, #:upper16:offsety
 3003 003a 1B68     		ldr	r3, [r3, #0]
 3004 003c D318     		adds	r3, r2, r3
 3005 003e FB60     		str	r3, [r7, #12]
  55:C:/StellarisWare/driverlib\ELT240320TP.c **** 
  56:C:/StellarisWare/driverlib\ELT240320TP.c **** 	ch = (char)(48+n);
 3006              		.loc 1 56 0
 3007 0040 3B68     		ldr	r3, [r7, #0]
 3008 0042 DBB2     		uxtb	r3, r3
 3009 0044 03F13003 		add	r3, r3, #48
 3010 0048 FB72     		strb	r3, [r7, #11]
  57:C:/StellarisWare/driverlib\ELT240320TP.c **** 
  58:C:/StellarisWare/driverlib\ELT240320TP.c **** 	TSLCDCharDisp(ch,posx,posy,mode);
 3011              		.loc 1 58 0
 3012 004a FA7A     		ldrb	r2, [r7, #11]	@ zero_extendqisi2
 3013 004c 7B79     		ldrb	r3, [r7, #5]	@ zero_extendqisi2
 3014 004e 1046     		mov	r0, r2
 3015 0050 3969     		ldr	r1, [r7, #16]
 3016 0052 FA68     		ldr	r2, [r7, #12]
 3017 0054 FFF7FEFF 		bl	TSLCDCharDisp
  59:C:/StellarisWare/driverlib\ELT240320TP.c **** 	posx += FONT_WIDTH;
 3018              		.loc 1 59 0
 3019 0058 3B69     		ldr	r3, [r7, #16]
 3020 005a 03F10803 		add	r3, r3, #8
 3021 005e 3B61     		str	r3, [r7, #16]
  60:C:/StellarisWare/driverlib\ELT240320TP.c **** 
  61:C:/StellarisWare/driverlib\ELT240320TP.c **** 
  62:C:/StellarisWare/driverlib\ELT240320TP.c **** }
 3022              		.loc 1 62 0
 3023 0060 07F11807 		add	r7, r7, #24
 3024 0064 BD46     		mov	sp, r7
 3025 0066 80BD     		pop	{r7, pc}
 3026              		.cfi_endproc
 3027              	.LFE1:
 3029              		.section	.text.TSLCDShowPic,"ax",%progbits
 3030              		.align	2
 3031              		.global	TSLCDShowPic
 3032              		.thumb
 3033              		.thumb_func
 3035              	TSLCDShowPic:
 3036              	.LFB2:
  63:C:/StellarisWare/driverlib\ELT240320TP.c **** 
  64:C:/StellarisWare/driverlib\ELT240320TP.c **** //Print user image
  65:C:/StellarisWare/driverlib\ELT240320TP.c **** //To print a user image, store it as an array of 16 bit values
  66:C:/StellarisWare/driverlib\ELT240320TP.c **** //(ex-sx) and (ey-sy) should be equal to the dimension of the image in pixels
  67:C:/StellarisWare/driverlib\ELT240320TP.c **** void TSLCDShowPic(ts_pos_t sx,ts_pos_t ex,ts_pos_t sy,ts_pos_t ey,const unsigned short
  68:C:/StellarisWare/driverlib\ELT240320TP.c **** 
  69:C:/StellarisWare/driverlib\ELT240320TP.c **** *pic,ts_mode_t mode)
  70:C:/StellarisWare/driverlib\ELT240320TP.c **** {
 3037              		.loc 1 70 0
 3038              		.cfi_startproc
 3039              		@ args = 8, pretend = 0, frame = 40
 3040              		@ frame_needed = 1, uses_anonymous_args = 0
 3041 0000 80B5     		push	{r7, lr}
 3042              	.LCFI6:
 3043              		.cfi_def_cfa_offset 8
 3044              		.cfi_offset 14, -4
 3045              		.cfi_offset 7, -8
 3046 0002 8AB0     		sub	sp, sp, #40
 3047              	.LCFI7:
 3048              		.cfi_def_cfa_offset 48
 3049 0004 00AF     		add	r7, sp, #0
 3050              	.LCFI8:
 3051              		.cfi_def_cfa_register 7
 3052 0006 F860     		str	r0, [r7, #12]
 3053 0008 B960     		str	r1, [r7, #8]
 3054 000a 7A60     		str	r2, [r7, #4]
 3055 000c 3B60     		str	r3, [r7, #0]
  71:C:/StellarisWare/driverlib\ELT240320TP.c **** 	unsigned long k = 0;
 3056              		.loc 1 71 0
 3057 000e 4FF00003 		mov	r3, #0
 3058 0012 7B62     		str	r3, [r7, #36]
  72:C:/StellarisWare/driverlib\ELT240320TP.c **** 	unsigned short color;
  73:C:/StellarisWare/driverlib\ELT240320TP.c **** 	unsigned int x,y;
  74:C:/StellarisWare/driverlib\ELT240320TP.c **** 	unsigned int i,j;
  75:C:/StellarisWare/driverlib\ELT240320TP.c **** 	if (sx < ts_margin_xl)
 3059              		.loc 1 75 0
 3060 0014 40F20003 		movw	r3, #:lower16:ts_margin_xl
 3061 0018 C0F20003 		movt	r3, #:upper16:ts_margin_xl
 3062 001c 1B68     		ldr	r3, [r3, #0]
 3063 001e FA68     		ldr	r2, [r7, #12]
 3064 0020 9A42     		cmp	r2, r3
 3065 0022 05DA     		bge	.L6
  76:C:/StellarisWare/driverlib\ELT240320TP.c **** 		sx = ts_margin_xl;
 3066              		.loc 1 76 0
 3067 0024 40F20003 		movw	r3, #:lower16:ts_margin_xl
 3068 0028 C0F20003 		movt	r3, #:upper16:ts_margin_xl
 3069 002c 1B68     		ldr	r3, [r3, #0]
 3070 002e FB60     		str	r3, [r7, #12]
 3071              	.L6:
  77:C:/StellarisWare/driverlib\ELT240320TP.c **** 	if (ex > ts_margin_xr)
 3072              		.loc 1 77 0
 3073 0030 40F20003 		movw	r3, #:lower16:ts_margin_xr
 3074 0034 C0F20003 		movt	r3, #:upper16:ts_margin_xr
 3075 0038 1B68     		ldr	r3, [r3, #0]
 3076 003a BA68     		ldr	r2, [r7, #8]
 3077 003c 9A42     		cmp	r2, r3
 3078 003e 05DD     		ble	.L7
  78:C:/StellarisWare/driverlib\ELT240320TP.c **** 		ex = ts_margin_xr;
 3079              		.loc 1 78 0
 3080 0040 40F20003 		movw	r3, #:lower16:ts_margin_xr
 3081 0044 C0F20003 		movt	r3, #:upper16:ts_margin_xr
 3082 0048 1B68     		ldr	r3, [r3, #0]
 3083 004a BB60     		str	r3, [r7, #8]
 3084              	.L7:
  79:C:/StellarisWare/driverlib\ELT240320TP.c **** 	if (sy < ts_margin_yu)
 3085              		.loc 1 79 0
 3086 004c 40F20003 		movw	r3, #:lower16:ts_margin_yu
 3087 0050 C0F20003 		movt	r3, #:upper16:ts_margin_yu
 3088 0054 1B68     		ldr	r3, [r3, #0]
 3089 0056 7A68     		ldr	r2, [r7, #4]
 3090 0058 9A42     		cmp	r2, r3
 3091 005a 05DA     		bge	.L8
  80:C:/StellarisWare/driverlib\ELT240320TP.c **** 		sy = ts_margin_yu;
 3092              		.loc 1 80 0
 3093 005c 40F20003 		movw	r3, #:lower16:ts_margin_yu
 3094 0060 C0F20003 		movt	r3, #:upper16:ts_margin_yu
 3095 0064 1B68     		ldr	r3, [r3, #0]
 3096 0066 7B60     		str	r3, [r7, #4]
 3097              	.L8:
  81:C:/StellarisWare/driverlib\ELT240320TP.c **** 	if (ey > ts_margin_yl)			 
 3098              		.loc 1 81 0
 3099 0068 40F20003 		movw	r3, #:lower16:ts_margin_yl
 3100 006c C0F20003 		movt	r3, #:upper16:ts_margin_yl
 3101 0070 1B68     		ldr	r3, [r3, #0]
 3102 0072 3A68     		ldr	r2, [r7, #0]
 3103 0074 9A42     		cmp	r2, r3
 3104 0076 05DD     		ble	.L9
  82:C:/StellarisWare/driverlib\ELT240320TP.c **** 		ey = ts_margin_yl;
 3105              		.loc 1 82 0
 3106 0078 40F20003 		movw	r3, #:lower16:ts_margin_yl
 3107 007c C0F20003 		movt	r3, #:upper16:ts_margin_yl
 3108 0080 1B68     		ldr	r3, [r3, #0]
 3109 0082 3B60     		str	r3, [r7, #0]
 3110              	.L9:
  83:C:/StellarisWare/driverlib\ELT240320TP.c **** 
  84:C:/StellarisWare/driverlib\ELT240320TP.c **** 	TSLCDOutIns(TS_INS_START_ADX);
 3111              		.loc 1 84 0
 3112 0084 4FF05200 		mov	r0, #82
 3113 0088 FFF7FEFF 		bl	TSLCDOutIns
  85:C:/StellarisWare/driverlib\ELT240320TP.c **** 	TSLCDOutDat(sx);
 3114              		.loc 1 85 0
 3115 008c FB68     		ldr	r3, [r7, #12]
 3116 008e 1846     		mov	r0, r3
 3117 0090 FFF7FEFF 		bl	TSLCDOutDat
  86:C:/StellarisWare/driverlib\ELT240320TP.c **** 	TSLCDOutIns(TS_INS_END_ADX);
 3118              		.loc 1 86 0
 3119 0094 4FF05300 		mov	r0, #83
 3120 0098 FFF7FEFF 		bl	TSLCDOutIns
  87:C:/StellarisWare/driverlib\ELT240320TP.c **** 	TSLCDOutDat(ex);
 3121              		.loc 1 87 0
 3122 009c BB68     		ldr	r3, [r7, #8]
 3123 009e 1846     		mov	r0, r3
 3124 00a0 FFF7FEFF 		bl	TSLCDOutDat
  88:C:/StellarisWare/driverlib\ELT240320TP.c **** 	TSLCDOutIns(TS_INS_GRAM_ADX);
 3125              		.loc 1 88 0
 3126 00a4 4FF02100 		mov	r0, #33
 3127 00a8 FFF7FEFF 		bl	TSLCDOutIns
  89:C:/StellarisWare/driverlib\ELT240320TP.c **** 	TSLCDOutDat(sx);
 3128              		.loc 1 89 0
 3129 00ac FB68     		ldr	r3, [r7, #12]
 3130 00ae 1846     		mov	r0, r3
 3131 00b0 FFF7FEFF 		bl	TSLCDOutDat
  90:C:/StellarisWare/driverlib\ELT240320TP.c **** 	x = ex - sx + 1;
 3132              		.loc 1 90 0
 3133 00b4 BA68     		ldr	r2, [r7, #8]
 3134 00b6 FB68     		ldr	r3, [r7, #12]
 3135 00b8 D31A     		subs	r3, r2, r3
 3136 00ba 03F10103 		add	r3, r3, #1
 3137 00be BB61     		str	r3, [r7, #24]
  91:C:/StellarisWare/driverlib\ELT240320TP.c **** 
  92:C:/StellarisWare/driverlib\ELT240320TP.c **** #ifndef TS_ORN_PORTRAIT
  93:C:/StellarisWare/driverlib\ELT240320TP.c **** 	sy = TS_SIZE_Y - 1 - sy; 	// mirror start y address
 3138              		.loc 1 93 0
 3139 00c0 7B68     		ldr	r3, [r7, #4]
 3140 00c2 C3F1EF03 		rsb	r3, r3, #239
 3141 00c6 7B60     		str	r3, [r7, #4]
  94:C:/StellarisWare/driverlib\ELT240320TP.c **** 	ey = TS_SIZE_Y - 1 - ey; 	// mirror end y address
 3142              		.loc 1 94 0
 3143 00c8 3B68     		ldr	r3, [r7, #0]
 3144 00ca C3F1EF03 		rsb	r3, r3, #239
 3145 00ce 3B60     		str	r3, [r7, #0]
  95:C:/StellarisWare/driverlib\ELT240320TP.c **** 	TSLCDOutIns(TS_INS_START_ADY);
 3146              		.loc 1 95 0
 3147 00d0 4FF05000 		mov	r0, #80
 3148 00d4 FFF7FEFF 		bl	TSLCDOutIns
  96:C:/StellarisWare/driverlib\ELT240320TP.c **** 	TSLCDOutDat(ey);
 3149              		.loc 1 96 0
 3150 00d8 3B68     		ldr	r3, [r7, #0]
 3151 00da 1846     		mov	r0, r3
 3152 00dc FFF7FEFF 		bl	TSLCDOutDat
  97:C:/StellarisWare/driverlib\ELT240320TP.c **** 	TSLCDOutIns(TS_INS_END_ADY);
 3153              		.loc 1 97 0
 3154 00e0 4FF05100 		mov	r0, #81
 3155 00e4 FFF7FEFF 		bl	TSLCDOutIns
  98:C:/StellarisWare/driverlib\ELT240320TP.c **** 	TSLCDOutDat(sy);
 3156              		.loc 1 98 0
 3157 00e8 7B68     		ldr	r3, [r7, #4]
 3158 00ea 1846     		mov	r0, r3
 3159 00ec FFF7FEFF 		bl	TSLCDOutDat
  99:C:/StellarisWare/driverlib\ELT240320TP.c **** 	TSLCDOutIns(TS_INS_GRAM_ADY);
 3160              		.loc 1 99 0
 3161 00f0 4FF02000 		mov	r0, #32
 3162 00f4 FFF7FEFF 		bl	TSLCDOutIns
 100:C:/StellarisWare/driverlib\ELT240320TP.c **** 	TSLCDOutDat(sy);//fix from bug of v1_00
 3163              		.loc 1 100 0
 3164 00f8 7B68     		ldr	r3, [r7, #4]
 3165 00fa 1846     		mov	r0, r3
 3166 00fc FFF7FEFF 		bl	TSLCDOutDat
 101:C:/StellarisWare/driverlib\ELT240320TP.c **** 	y = sy - ey + 1;
 3167              		.loc 1 101 0
 3168 0100 7A68     		ldr	r2, [r7, #4]
 3169 0102 3B68     		ldr	r3, [r7, #0]
 3170 0104 D31A     		subs	r3, r2, r3
 3171 0106 03F10103 		add	r3, r3, #1
 3172 010a 7B61     		str	r3, [r7, #20]
 102:C:/StellarisWare/driverlib\ELT240320TP.c **** #else
 103:C:/StellarisWare/driverlib\ELT240320TP.c **** 	TSLCDOutIns(TS_INS_START_ADY);
 104:C:/StellarisWare/driverlib\ELT240320TP.c **** 	TSLCDOutDat(sy);
 105:C:/StellarisWare/driverlib\ELT240320TP.c **** 	TSLCDOutIns(TS_INS_END_ADY);
 106:C:/StellarisWare/driverlib\ELT240320TP.c **** 	TSLCDOutDat(ey);
 107:C:/StellarisWare/driverlib\ELT240320TP.c **** 	TSLCDOutIns(TS_INS_GRAM_ADY);
 108:C:/StellarisWare/driverlib\ELT240320TP.c **** 	TSLCDOutDat(sy);
 109:C:/StellarisWare/driverlib\ELT240320TP.c **** 	y = ey - sy + 1;
 110:C:/StellarisWare/driverlib\ELT240320TP.c **** #endif
 111:C:/StellarisWare/driverlib\ELT240320TP.c **** 
 112:C:/StellarisWare/driverlib\ELT240320TP.c **** 	TSLCDOutIns(TS_INS_RW_GRAM);
 3173              		.loc 1 112 0
 3174 010c 4FF02200 		mov	r0, #34
 3175 0110 FFF7FEFF 		bl	TSLCDOutIns
 113:C:/StellarisWare/driverlib\ELT240320TP.c **** 
 114:C:/StellarisWare/driverlib\ELT240320TP.c **** 	if (mode == TS_MODE_FULL)
 3176              		.loc 1 114 0
 3177 0114 97F83430 		ldrb	r3, [r7, #52]	@ zero_extendqisi2
 3178 0118 022B     		cmp	r3, #2
 3179 011a 25D1     		bne	.L10
 115:C:/StellarisWare/driverlib\ELT240320TP.c **** 	{
 116:C:/StellarisWare/driverlib\ELT240320TP.c **** 		for (j=0; j<y; j++)
 3180              		.loc 1 116 0
 3181 011c 4FF00003 		mov	r3, #0
 3182 0120 FB61     		str	r3, [r7, #28]
 3183 0122 1CE0     		b	.L11
 3184              	.L14:
 117:C:/StellarisWare/driverlib\ELT240320TP.c **** 			for (i=0; i<x; i++)
 3185              		.loc 1 117 0
 3186 0124 4FF00003 		mov	r3, #0
 3187 0128 3B62     		str	r3, [r7, #32]
 3188 012a 10E0     		b	.L12
 3189              	.L13:
 118:C:/StellarisWare/driverlib\ELT240320TP.c **** 			{
 119:C:/StellarisWare/driverlib\ELT240320TP.c **** 				TSLCDOutDat(pic[k]);
 3190              		.loc 1 119 0 discriminator 2
 3191 012c 7B6A     		ldr	r3, [r7, #36]
 3192 012e 4FEA4303 		lsl	r3, r3, #1
 3193 0132 3A6B     		ldr	r2, [r7, #48]
 3194 0134 D318     		adds	r3, r2, r3
 3195 0136 1B88     		ldrh	r3, [r3, #0]
 3196 0138 1846     		mov	r0, r3
 3197 013a FFF7FEFF 		bl	TSLCDOutDat
 120:C:/StellarisWare/driverlib\ELT240320TP.c **** 				k++;
 3198              		.loc 1 120 0 discriminator 2
 3199 013e 7B6A     		ldr	r3, [r7, #36]
 3200 0140 03F10103 		add	r3, r3, #1
 3201 0144 7B62     		str	r3, [r7, #36]
 117:C:/StellarisWare/driverlib\ELT240320TP.c **** 			for (i=0; i<x; i++)
 3202              		.loc 1 117 0 discriminator 2
 3203 0146 3B6A     		ldr	r3, [r7, #32]
 3204 0148 03F10103 		add	r3, r3, #1
 3205 014c 3B62     		str	r3, [r7, #32]
 3206              	.L12:
 117:C:/StellarisWare/driverlib\ELT240320TP.c **** 			for (i=0; i<x; i++)
 3207              		.loc 1 117 0 is_stmt 0 discriminator 1
 3208 014e 3A6A     		ldr	r2, [r7, #32]
 3209 0150 BB69     		ldr	r3, [r7, #24]
 3210 0152 9A42     		cmp	r2, r3
 3211 0154 EAD3     		bcc	.L13
 116:C:/StellarisWare/driverlib\ELT240320TP.c **** 		for (j=0; j<y; j++)
 3212              		.loc 1 116 0 is_stmt 1
 3213 0156 FB69     		ldr	r3, [r7, #28]
 3214 0158 03F10103 		add	r3, r3, #1
 3215 015c FB61     		str	r3, [r7, #28]
 3216              	.L11:
 116:C:/StellarisWare/driverlib\ELT240320TP.c **** 		for (j=0; j<y; j++)
 3217              		.loc 1 116 0 is_stmt 0 discriminator 1
 3218 015e FA69     		ldr	r2, [r7, #28]
 3219 0160 7B69     		ldr	r3, [r7, #20]
 3220 0162 9A42     		cmp	r2, r3
 3221 0164 DED3     		bcc	.L14
 116:C:/StellarisWare/driverlib\ELT240320TP.c **** 		for (j=0; j<y; j++)
 3222              		.loc 1 116 0
 3223 0166 3FE0     		b	.L5
 3224              	.L10:
 121:C:/StellarisWare/driverlib\ELT240320TP.c **** 			}
 122:C:/StellarisWare/driverlib\ELT240320TP.c **** 	}
 123:C:/StellarisWare/driverlib\ELT240320TP.c **** 	else
 124:C:/StellarisWare/driverlib\ELT240320TP.c **** 	if (mode == TS_MODE_NORMAL)
 3225              		.loc 1 124 0 is_stmt 1
 3226 0168 97F83430 		ldrb	r3, [r7, #52]	@ zero_extendqisi2
 3227 016c 002B     		cmp	r3, #0
 3228 016e 3BD1     		bne	.L5
 125:C:/StellarisWare/driverlib\ELT240320TP.c **** 	{
 126:C:/StellarisWare/driverlib\ELT240320TP.c **** 		for (j=0; j<y; j++)
 3229              		.loc 1 126 0
 3230 0170 4FF00003 		mov	r3, #0
 3231 0174 FB61     		str	r3, [r7, #28]
 3232 0176 33E0     		b	.L16
 3233              	.L21:
 127:C:/StellarisWare/driverlib\ELT240320TP.c **** 			for (i=0; i<x; i++)
 3234              		.loc 1 127 0
 3235 0178 4FF00003 		mov	r3, #0
 3236 017c 3B62     		str	r3, [r7, #32]
 3237 017e 27E0     		b	.L17
 3238              	.L20:
 128:C:/StellarisWare/driverlib\ELT240320TP.c **** 			{
 129:C:/StellarisWare/driverlib\ELT240320TP.c **** 				if (pic[k] == TS_COL_WHITE)
 3239              		.loc 1 129 0
 3240 0180 7B6A     		ldr	r3, [r7, #36]
 3241 0182 4FEA4303 		lsl	r3, r3, #1
 3242 0186 3A6B     		ldr	r2, [r7, #48]
 3243 0188 D318     		adds	r3, r2, r3
 3244 018a 1A88     		ldrh	r2, [r3, #0]
 3245 018c 4FF6FF73 		movw	r3, #65535
 3246 0190 9A42     		cmp	r2, r3
 3247 0192 0CD1     		bne	.L18
 130:C:/StellarisWare/driverlib\ELT240320TP.c **** 				{
 131:C:/StellarisWare/driverlib\ELT240320TP.c **** 					color = TSLCDInDat(); 		// ignore invalid data
 3248              		.loc 1 131 0
 3249 0194 FFF7FEFF 		bl	TSLCDInDat
 3250 0198 0346     		mov	r3, r0
 3251 019a 7B82     		strh	r3, [r7, #18]	@ movhi
 132:C:/StellarisWare/driverlib\ELT240320TP.c **** 					color = TSLCDInDat();
 3252              		.loc 1 132 0
 3253 019c FFF7FEFF 		bl	TSLCDInDat
 3254 01a0 0346     		mov	r3, r0
 3255 01a2 7B82     		strh	r3, [r7, #18]	@ movhi
 133:C:/StellarisWare/driverlib\ELT240320TP.c **** 					TSLCDOutDat(color);
 3256              		.loc 1 133 0
 3257 01a4 7B8A     		ldrh	r3, [r7, #18]
 3258 01a6 1846     		mov	r0, r3
 3259 01a8 FFF7FEFF 		bl	TSLCDOutDat
 3260 01ac 08E0     		b	.L19
 3261              	.L18:
 134:C:/StellarisWare/driverlib\ELT240320TP.c **** 				}
 135:C:/StellarisWare/driverlib\ELT240320TP.c **** 				else
 136:C:/StellarisWare/driverlib\ELT240320TP.c **** 				{
 137:C:/StellarisWare/driverlib\ELT240320TP.c **** 					TSLCDOutDat(pic[k]);
 3262              		.loc 1 137 0
 3263 01ae 7B6A     		ldr	r3, [r7, #36]
 3264 01b0 4FEA4303 		lsl	r3, r3, #1
 3265 01b4 3A6B     		ldr	r2, [r7, #48]
 3266 01b6 D318     		adds	r3, r2, r3
 3267 01b8 1B88     		ldrh	r3, [r3, #0]
 3268 01ba 1846     		mov	r0, r3
 3269 01bc FFF7FEFF 		bl	TSLCDOutDat
 3270              	.L19:
 138:C:/StellarisWare/driverlib\ELT240320TP.c **** 				}
 139:C:/StellarisWare/driverlib\ELT240320TP.c **** 				k++;
 3271              		.loc 1 139 0
 3272 01c0 7B6A     		ldr	r3, [r7, #36]
 3273 01c2 03F10103 		add	r3, r3, #1
 3274 01c6 7B62     		str	r3, [r7, #36]
 127:C:/StellarisWare/driverlib\ELT240320TP.c **** 			for (i=0; i<x; i++)
 3275              		.loc 1 127 0
 3276 01c8 3B6A     		ldr	r3, [r7, #32]
 3277 01ca 03F10103 		add	r3, r3, #1
 3278 01ce 3B62     		str	r3, [r7, #32]
 3279              	.L17:
 127:C:/StellarisWare/driverlib\ELT240320TP.c **** 			for (i=0; i<x; i++)
 3280              		.loc 1 127 0 is_stmt 0 discriminator 1
 3281 01d0 3A6A     		ldr	r2, [r7, #32]
 3282 01d2 BB69     		ldr	r3, [r7, #24]
 3283 01d4 9A42     		cmp	r2, r3
 3284 01d6 D3D3     		bcc	.L20
 126:C:/StellarisWare/driverlib\ELT240320TP.c **** 		for (j=0; j<y; j++)
 3285              		.loc 1 126 0 is_stmt 1
 3286 01d8 FB69     		ldr	r3, [r7, #28]
 3287 01da 03F10103 		add	r3, r3, #1
 3288 01de FB61     		str	r3, [r7, #28]
 3289              	.L16:
 126:C:/StellarisWare/driverlib\ELT240320TP.c **** 		for (j=0; j<y; j++)
 3290              		.loc 1 126 0 is_stmt 0 discriminator 1
 3291 01e0 FA69     		ldr	r2, [r7, #28]
 3292 01e2 7B69     		ldr	r3, [r7, #20]
 3293 01e4 9A42     		cmp	r2, r3
 3294 01e6 C7D3     		bcc	.L21
 3295              	.L5:
 140:C:/StellarisWare/driverlib\ELT240320TP.c **** 			}
 141:C:/StellarisWare/driverlib\ELT240320TP.c **** 	}
 142:C:/StellarisWare/driverlib\ELT240320TP.c **** }
 3296              		.loc 1 142 0 is_stmt 1
 3297 01e8 07F12807 		add	r7, r7, #40
 3298 01ec BD46     		mov	sp, r7
 3299 01ee 80BD     		pop	{r7, pc}
 3300              		.cfi_endproc
 3301              	.LFE2:
 3303              		.section	.text.TSLCDFillRect,"ax",%progbits
 3304              		.align	2
 3305              		.global	TSLCDFillRect
 3306              		.thumb
 3307              		.thumb_func
 3309              	TSLCDFillRect:
 3310              	.LFB3:
 143:C:/StellarisWare/driverlib\ELT240320TP.c **** 
 144:C:/StellarisWare/driverlib\ELT240320TP.c **** void TSLCDFillRect(ts_pos_t sx,ts_pos_t ex,ts_pos_t sy,ts_pos_t ey,word color,ts_mode_t
 145:C:/StellarisWare/driverlib\ELT240320TP.c **** 
 146:C:/StellarisWare/driverlib\ELT240320TP.c **** mode)
 147:C:/StellarisWare/driverlib\ELT240320TP.c **** {
 3311              		.loc 1 147 0
 3312              		.cfi_startproc
 3313              		@ args = 8, pretend = 0, frame = 32
 3314              		@ frame_needed = 1, uses_anonymous_args = 0
 3315 0000 80B5     		push	{r7, lr}
 3316              	.LCFI9:
 3317              		.cfi_def_cfa_offset 8
 3318              		.cfi_offset 14, -4
 3319              		.cfi_offset 7, -8
 3320 0002 88B0     		sub	sp, sp, #32
 3321              	.LCFI10:
 3322              		.cfi_def_cfa_offset 40
 3323 0004 00AF     		add	r7, sp, #0
 3324              	.LCFI11:
 3325              		.cfi_def_cfa_register 7
 3326 0006 F860     		str	r0, [r7, #12]
 3327 0008 B960     		str	r1, [r7, #8]
 3328 000a 7A60     		str	r2, [r7, #4]
 3329 000c 3B60     		str	r3, [r7, #0]
 148:C:/StellarisWare/driverlib\ELT240320TP.c **** 	word x,y;
 149:C:/StellarisWare/driverlib\ELT240320TP.c **** 	word i,j;
 150:C:/StellarisWare/driverlib\ELT240320TP.c **** 	if (sx < ts_margin_xl)
 3330              		.loc 1 150 0
 3331 000e 40F20003 		movw	r3, #:lower16:ts_margin_xl
 3332 0012 C0F20003 		movt	r3, #:upper16:ts_margin_xl
 3333 0016 1B68     		ldr	r3, [r3, #0]
 3334 0018 FA68     		ldr	r2, [r7, #12]
 3335 001a 9A42     		cmp	r2, r3
 3336 001c 05DA     		bge	.L23
 151:C:/StellarisWare/driverlib\ELT240320TP.c **** 		sx = ts_margin_xl;
 3337              		.loc 1 151 0
 3338 001e 40F20003 		movw	r3, #:lower16:ts_margin_xl
 3339 0022 C0F20003 		movt	r3, #:upper16:ts_margin_xl
 3340 0026 1B68     		ldr	r3, [r3, #0]
 3341 0028 FB60     		str	r3, [r7, #12]
 3342              	.L23:
 152:C:/StellarisWare/driverlib\ELT240320TP.c **** 	if (ex > ts_margin_xr)
 3343              		.loc 1 152 0
 3344 002a 40F20003 		movw	r3, #:lower16:ts_margin_xr
 3345 002e C0F20003 		movt	r3, #:upper16:ts_margin_xr
 3346 0032 1B68     		ldr	r3, [r3, #0]
 3347 0034 BA68     		ldr	r2, [r7, #8]
 3348 0036 9A42     		cmp	r2, r3
 3349 0038 05DD     		ble	.L24
 153:C:/StellarisWare/driverlib\ELT240320TP.c **** 		ex = ts_margin_xr;
 3350              		.loc 1 153 0
 3351 003a 40F20003 		movw	r3, #:lower16:ts_margin_xr
 3352 003e C0F20003 		movt	r3, #:upper16:ts_margin_xr
 3353 0042 1B68     		ldr	r3, [r3, #0]
 3354 0044 BB60     		str	r3, [r7, #8]
 3355              	.L24:
 154:C:/StellarisWare/driverlib\ELT240320TP.c **** 	if (sy < ts_margin_yu)
 3356              		.loc 1 154 0
 3357 0046 40F20003 		movw	r3, #:lower16:ts_margin_yu
 3358 004a C0F20003 		movt	r3, #:upper16:ts_margin_yu
 3359 004e 1B68     		ldr	r3, [r3, #0]
 3360 0050 7A68     		ldr	r2, [r7, #4]
 3361 0052 9A42     		cmp	r2, r3
 3362 0054 05DA     		bge	.L25
 155:C:/StellarisWare/driverlib\ELT240320TP.c **** 		sy = ts_margin_yu;
 3363              		.loc 1 155 0
 3364 0056 40F20003 		movw	r3, #:lower16:ts_margin_yu
 3365 005a C0F20003 		movt	r3, #:upper16:ts_margin_yu
 3366 005e 1B68     		ldr	r3, [r3, #0]
 3367 0060 7B60     		str	r3, [r7, #4]
 3368              	.L25:
 156:C:/StellarisWare/driverlib\ELT240320TP.c **** 	if (ey > ts_margin_yl)			 
 3369              		.loc 1 156 0
 3370 0062 40F20003 		movw	r3, #:lower16:ts_margin_yl
 3371 0066 C0F20003 		movt	r3, #:upper16:ts_margin_yl
 3372 006a 1B68     		ldr	r3, [r3, #0]
 3373 006c 3A68     		ldr	r2, [r7, #0]
 3374 006e 9A42     		cmp	r2, r3
 3375 0070 05DD     		ble	.L26
 157:C:/StellarisWare/driverlib\ELT240320TP.c **** 		ey = ts_margin_yl;
 3376              		.loc 1 157 0
 3377 0072 40F20003 		movw	r3, #:lower16:ts_margin_yl
 3378 0076 C0F20003 		movt	r3, #:upper16:ts_margin_yl
 3379 007a 1B68     		ldr	r3, [r3, #0]
 3380 007c 3B60     		str	r3, [r7, #0]
 3381              	.L26:
 158:C:/StellarisWare/driverlib\ELT240320TP.c **** 
 159:C:/StellarisWare/driverlib\ELT240320TP.c **** 	TSLCDOutIns(TS_INS_START_ADX);
 3382              		.loc 1 159 0
 3383 007e 4FF05200 		mov	r0, #82
 3384 0082 FFF7FEFF 		bl	TSLCDOutIns
 160:C:/StellarisWare/driverlib\ELT240320TP.c **** 	TSLCDOutDat(sx);
 3385              		.loc 1 160 0
 3386 0086 FB68     		ldr	r3, [r7, #12]
 3387 0088 1846     		mov	r0, r3
 3388 008a FFF7FEFF 		bl	TSLCDOutDat
 161:C:/StellarisWare/driverlib\ELT240320TP.c **** 	TSLCDOutIns(TS_INS_END_ADX);
 3389              		.loc 1 161 0
 3390 008e 4FF05300 		mov	r0, #83
 3391 0092 FFF7FEFF 		bl	TSLCDOutIns
 162:C:/StellarisWare/driverlib\ELT240320TP.c **** 	TSLCDOutDat(ex);
 3392              		.loc 1 162 0
 3393 0096 BB68     		ldr	r3, [r7, #8]
 3394 0098 1846     		mov	r0, r3
 3395 009a FFF7FEFF 		bl	TSLCDOutDat
 163:C:/StellarisWare/driverlib\ELT240320TP.c **** 	TSLCDOutIns(TS_INS_GRAM_ADX);
 3396              		.loc 1 163 0
 3397 009e 4FF02100 		mov	r0, #33
 3398 00a2 FFF7FEFF 		bl	TSLCDOutIns
 164:C:/StellarisWare/driverlib\ELT240320TP.c **** 	TSLCDOutDat(sx);
 3399              		.loc 1 164 0
 3400 00a6 FB68     		ldr	r3, [r7, #12]
 3401 00a8 1846     		mov	r0, r3
 3402 00aa FFF7FEFF 		bl	TSLCDOutDat
 165:C:/StellarisWare/driverlib\ELT240320TP.c **** 	x = ex - sx + 1;
 3403              		.loc 1 165 0
 3404 00ae BA68     		ldr	r2, [r7, #8]
 3405 00b0 FB68     		ldr	r3, [r7, #12]
 3406 00b2 D31A     		subs	r3, r2, r3
 3407 00b4 03F10103 		add	r3, r3, #1
 3408 00b8 7B61     		str	r3, [r7, #20]
 166:C:/StellarisWare/driverlib\ELT240320TP.c **** 
 167:C:/StellarisWare/driverlib\ELT240320TP.c **** #ifdef TS_ORN_PORTRAIT
 168:C:/StellarisWare/driverlib\ELT240320TP.c **** 	sy = TS_SIZE_Y - 1 - sy; 	// mirror start y address
 169:C:/StellarisWare/driverlib\ELT240320TP.c **** 	ey = TS_SIZE_Y - 1 - ey; 	// mirror end y address
 170:C:/StellarisWare/driverlib\ELT240320TP.c **** 	TSLCDOutIns(TS_INS_START_ADY);
 171:C:/StellarisWare/driverlib\ELT240320TP.c **** 	TSLCDOutDat(ey);
 172:C:/StellarisWare/driverlib\ELT240320TP.c **** 	TSLCDOutIns(TS_INS_END_ADY);
 173:C:/StellarisWare/driverlib\ELT240320TP.c **** 	TSLCDOutDat(sy);
 174:C:/StellarisWare/driverlib\ELT240320TP.c **** 	TSLCDOutIns(TS_INS_GRAM_ADY);
 175:C:/StellarisWare/driverlib\ELT240320TP.c **** 	TSLCDOutDat(sy);//fix from bug of v1_00
 176:C:/StellarisWare/driverlib\ELT240320TP.c **** 	y = sy - ey + 1;
 177:C:/StellarisWare/driverlib\ELT240320TP.c **** #else
 178:C:/StellarisWare/driverlib\ELT240320TP.c **** 	TSLCDOutIns(TS_INS_START_ADY);
 3409              		.loc 1 178 0
 3410 00ba 4FF05000 		mov	r0, #80
 3411 00be FFF7FEFF 		bl	TSLCDOutIns
 179:C:/StellarisWare/driverlib\ELT240320TP.c **** 	TSLCDOutDat(sy);
 3412              		.loc 1 179 0
 3413 00c2 7B68     		ldr	r3, [r7, #4]
 3414 00c4 1846     		mov	r0, r3
 3415 00c6 FFF7FEFF 		bl	TSLCDOutDat
 180:C:/StellarisWare/driverlib\ELT240320TP.c **** 	TSLCDOutIns(TS_INS_END_ADY);
 3416              		.loc 1 180 0
 3417 00ca 4FF05100 		mov	r0, #81
 3418 00ce FFF7FEFF 		bl	TSLCDOutIns
 181:C:/StellarisWare/driverlib\ELT240320TP.c **** 	TSLCDOutDat(ey);
 3419              		.loc 1 181 0
 3420 00d2 3B68     		ldr	r3, [r7, #0]
 3421 00d4 1846     		mov	r0, r3
 3422 00d6 FFF7FEFF 		bl	TSLCDOutDat
 182:C:/StellarisWare/driverlib\ELT240320TP.c **** 	TSLCDOutIns(TS_INS_GRAM_ADY);
 3423              		.loc 1 182 0
 3424 00da 4FF02000 		mov	r0, #32
 3425 00de FFF7FEFF 		bl	TSLCDOutIns
 183:C:/StellarisWare/driverlib\ELT240320TP.c **** 	TSLCDOutDat(sy);
 3426              		.loc 1 183 0
 3427 00e2 7B68     		ldr	r3, [r7, #4]
 3428 00e4 1846     		mov	r0, r3
 3429 00e6 FFF7FEFF 		bl	TSLCDOutDat
 184:C:/StellarisWare/driverlib\ELT240320TP.c **** 	y = ey - sy + 1;
 3430              		.loc 1 184 0
 3431 00ea 3A68     		ldr	r2, [r7, #0]
 3432 00ec 7B68     		ldr	r3, [r7, #4]
 3433 00ee D31A     		subs	r3, r2, r3
 3434 00f0 03F10103 		add	r3, r3, #1
 3435 00f4 3B61     		str	r3, [r7, #16]
 185:C:/StellarisWare/driverlib\ELT240320TP.c **** #endif
 186:C:/StellarisWare/driverlib\ELT240320TP.c **** 
 187:C:/StellarisWare/driverlib\ELT240320TP.c **** 	TSLCDOutIns(TS_INS_RW_GRAM);
 3436              		.loc 1 187 0
 3437 00f6 4FF02200 		mov	r0, #34
 3438 00fa FFF7FEFF 		bl	TSLCDOutIns
 188:C:/StellarisWare/driverlib\ELT240320TP.c **** 
 189:C:/StellarisWare/driverlib\ELT240320TP.c **** 	if ((mode == TS_MODE_NORMAL) || (mode == TS_MODE_FULL))
 3439              		.loc 1 189 0
 3440 00fe 97F82C30 		ldrb	r3, [r7, #44]	@ zero_extendqisi2
 3441 0102 002B     		cmp	r3, #0
 3442 0104 03D0     		beq	.L27
 3443              		.loc 1 189 0 is_stmt 0 discriminator 1
 3444 0106 97F82C30 		ldrb	r3, [r7, #44]	@ zero_extendqisi2
 3445 010a 022B     		cmp	r3, #2
 3446 010c 1BD1     		bne	.L28
 3447              	.L27:
 190:C:/StellarisWare/driverlib\ELT240320TP.c **** 	{
 191:C:/StellarisWare/driverlib\ELT240320TP.c **** 		for (j=0; j<y; j++)
 3448              		.loc 1 191 0 is_stmt 1
 3449 010e 4FF00003 		mov	r3, #0
 3450 0112 BB61     		str	r3, [r7, #24]
 3451 0114 12E0     		b	.L29
 3452              	.L32:
 192:C:/StellarisWare/driverlib\ELT240320TP.c **** 			for (i=0; i<x; i++)
 3453              		.loc 1 192 0
 3454 0116 4FF00003 		mov	r3, #0
 3455 011a FB61     		str	r3, [r7, #28]
 3456 011c 06E0     		b	.L30
 3457              	.L31:
 193:C:/StellarisWare/driverlib\ELT240320TP.c **** 			{
 194:C:/StellarisWare/driverlib\ELT240320TP.c **** 				TSLCDOutDat(color);
 3458              		.loc 1 194 0 discriminator 2
 3459 011e B86A     		ldr	r0, [r7, #40]
 3460 0120 FFF7FEFF 		bl	TSLCDOutDat
 192:C:/StellarisWare/driverlib\ELT240320TP.c **** 			for (i=0; i<x; i++)
 3461              		.loc 1 192 0 discriminator 2
 3462 0124 FB69     		ldr	r3, [r7, #28]
 3463 0126 03F10103 		add	r3, r3, #1
 3464 012a FB61     		str	r3, [r7, #28]
 3465              	.L30:
 192:C:/StellarisWare/driverlib\ELT240320TP.c **** 			for (i=0; i<x; i++)
 3466              		.loc 1 192 0 is_stmt 0 discriminator 1
 3467 012c FA69     		ldr	r2, [r7, #28]
 3468 012e 7B69     		ldr	r3, [r7, #20]
 3469 0130 9A42     		cmp	r2, r3
 3470 0132 F4D3     		bcc	.L31
 191:C:/StellarisWare/driverlib\ELT240320TP.c **** 		for (j=0; j<y; j++)
 3471              		.loc 1 191 0 is_stmt 1
 3472 0134 BB69     		ldr	r3, [r7, #24]
 3473 0136 03F10103 		add	r3, r3, #1
 3474 013a BB61     		str	r3, [r7, #24]
 3475              	.L29:
 191:C:/StellarisWare/driverlib\ELT240320TP.c **** 		for (j=0; j<y; j++)
 3476              		.loc 1 191 0 is_stmt 0 discriminator 1
 3477 013c BA69     		ldr	r2, [r7, #24]
 3478 013e 3B69     		ldr	r3, [r7, #16]
 3479 0140 9A42     		cmp	r2, r3
 3480 0142 E8D3     		bcc	.L32
 189:C:/StellarisWare/driverlib\ELT240320TP.c **** 	if ((mode == TS_MODE_NORMAL) || (mode == TS_MODE_FULL))
 3481              		.loc 1 189 0 is_stmt 1
 3482 0144 27E0     		b	.L22
 3483              	.L28:
 195:C:/StellarisWare/driverlib\ELT240320TP.c **** 			}
 196:C:/StellarisWare/driverlib\ELT240320TP.c **** 	}
 197:C:/StellarisWare/driverlib\ELT240320TP.c **** 	else
 198:C:/StellarisWare/driverlib\ELT240320TP.c **** 	if (mode == TS_MODE_INVERSE)
 3484              		.loc 1 198 0
 3485 0146 97F82C30 		ldrb	r3, [r7, #44]	@ zero_extendqisi2
 3486 014a 012B     		cmp	r3, #1
 3487 014c 23D1     		bne	.L22
 199:C:/StellarisWare/driverlib\ELT240320TP.c **** 	{
 200:C:/StellarisWare/driverlib\ELT240320TP.c **** 		for (j=0; j<y; j++)
 3488              		.loc 1 200 0
 3489 014e 4FF00003 		mov	r3, #0
 3490 0152 BB61     		str	r3, [r7, #24]
 3491 0154 1BE0     		b	.L34
 3492              	.L37:
 201:C:/StellarisWare/driverlib\ELT240320TP.c **** 			for (i=0; i<x; i++)
 3493              		.loc 1 201 0
 3494 0156 4FF00003 		mov	r3, #0
 3495 015a FB61     		str	r3, [r7, #28]
 3496 015c 0FE0     		b	.L35
 3497              	.L36:
 202:C:/StellarisWare/driverlib\ELT240320TP.c **** 			{
 203:C:/StellarisWare/driverlib\ELT240320TP.c **** 				color = TSLCDInDat(); 		// ignore invalid data
 3498              		.loc 1 203 0 discriminator 2
 3499 015e FFF7FEFF 		bl	TSLCDInDat
 3500 0162 B862     		str	r0, [r7, #40]
 204:C:/StellarisWare/driverlib\ELT240320TP.c **** 				color = TSLCDInDat();
 3501              		.loc 1 204 0 discriminator 2
 3502 0164 FFF7FEFF 		bl	TSLCDInDat
 3503 0168 B862     		str	r0, [r7, #40]
 205:C:/StellarisWare/driverlib\ELT240320TP.c **** 				TSLCDOutDat(~color);
 3504              		.loc 1 205 0 discriminator 2
 3505 016a BB6A     		ldr	r3, [r7, #40]
 3506 016c 6FEA0303 		mvn	r3, r3
 3507 0170 1846     		mov	r0, r3
 3508 0172 FFF7FEFF 		bl	TSLCDOutDat
 201:C:/StellarisWare/driverlib\ELT240320TP.c **** 			for (i=0; i<x; i++)
 3509              		.loc 1 201 0 discriminator 2
 3510 0176 FB69     		ldr	r3, [r7, #28]
 3511 0178 03F10103 		add	r3, r3, #1
 3512 017c FB61     		str	r3, [r7, #28]
 3513              	.L35:
 201:C:/StellarisWare/driverlib\ELT240320TP.c **** 			for (i=0; i<x; i++)
 3514              		.loc 1 201 0 is_stmt 0 discriminator 1
 3515 017e FA69     		ldr	r2, [r7, #28]
 3516 0180 7B69     		ldr	r3, [r7, #20]
 3517 0182 9A42     		cmp	r2, r3
 3518 0184 EBD3     		bcc	.L36
 200:C:/StellarisWare/driverlib\ELT240320TP.c **** 		for (j=0; j<y; j++)
 3519              		.loc 1 200 0 is_stmt 1
 3520 0186 BB69     		ldr	r3, [r7, #24]
 3521 0188 03F10103 		add	r3, r3, #1
 3522 018c BB61     		str	r3, [r7, #24]
 3523              	.L34:
 200:C:/StellarisWare/driverlib\ELT240320TP.c **** 		for (j=0; j<y; j++)
 3524              		.loc 1 200 0 is_stmt 0 discriminator 1
 3525 018e BA69     		ldr	r2, [r7, #24]
 3526 0190 3B69     		ldr	r3, [r7, #16]
 3527 0192 9A42     		cmp	r2, r3
 3528 0194 DFD3     		bcc	.L37
 3529              	.L22:
 206:C:/StellarisWare/driverlib\ELT240320TP.c **** 			}
 207:C:/StellarisWare/driverlib\ELT240320TP.c **** 	}
 208:C:/StellarisWare/driverlib\ELT240320TP.c **** }
 3530              		.loc 1 208 0 is_stmt 1
 3531 0196 07F12007 		add	r7, r7, #32
 3532 019a BD46     		mov	sp, r7
 3533 019c 80BD     		pop	{r7, pc}
 3534              		.cfi_endproc
 3535              	.LFE3:
 3537 019e 00BF     		.section	.text.TSLCDSetFontColor,"ax",%progbits
 3538              		.align	2
 3539              		.global	TSLCDSetFontColor
 3540              		.thumb
 3541              		.thumb_func
 3543              	TSLCDSetFontColor:
 3544              	.LFB4:
 209:C:/StellarisWare/driverlib\ELT240320TP.c **** 
 210:C:/StellarisWare/driverlib\ELT240320TP.c **** void TSLCDSetFontColor(word color) //set text's color
 211:C:/StellarisWare/driverlib\ELT240320TP.c **** {
 3545              		.loc 1 211 0
 3546              		.cfi_startproc
 3547              		@ args = 0, pretend = 0, frame = 8
 3548              		@ frame_needed = 1, uses_anonymous_args = 0
 3549              		@ link register save eliminated.
 3550 0000 80B4     		push	{r7}
 3551              	.LCFI12:
 3552              		.cfi_def_cfa_offset 4
 3553              		.cfi_offset 7, -4
 3554 0002 83B0     		sub	sp, sp, #12
 3555              	.LCFI13:
 3556              		.cfi_def_cfa_offset 16
 3557 0004 00AF     		add	r7, sp, #0
 3558              	.LCFI14:
 3559              		.cfi_def_cfa_register 7
 3560 0006 7860     		str	r0, [r7, #4]
 212:C:/StellarisWare/driverlib\ELT240320TP.c **** 	font_color = color;
 3561              		.loc 1 212 0
 3562 0008 40F20003 		movw	r3, #:lower16:font_color
 3563 000c C0F20003 		movt	r3, #:upper16:font_color
 3564 0010 7A68     		ldr	r2, [r7, #4]
 3565 0012 1A60     		str	r2, [r3, #0]
 213:C:/StellarisWare/driverlib\ELT240320TP.c **** }
 3566              		.loc 1 213 0
 3567 0014 07F10C07 		add	r7, r7, #12
 3568 0018 BD46     		mov	sp, r7
 3569 001a 80BC     		pop	{r7}
 3570 001c 7047     		bx	lr
 3571              		.cfi_endproc
 3572              	.LFE4:
 3574 001e 00BF     		.section	.text.TSLCDSetBackColor,"ax",%progbits
 3575              		.align	2
 3576              		.global	TSLCDSetBackColor
 3577              		.thumb
 3578              		.thumb_func
 3580              	TSLCDSetBackColor:
 3581              	.LFB5:
 214:C:/StellarisWare/driverlib\ELT240320TP.c **** 
 215:C:/StellarisWare/driverlib\ELT240320TP.c **** void TSLCDSetBackColor(word color) //set back color for TS_MODE_FULL
 216:C:/StellarisWare/driverlib\ELT240320TP.c **** {
 3582              		.loc 1 216 0
 3583              		.cfi_startproc
 3584              		@ args = 0, pretend = 0, frame = 8
 3585              		@ frame_needed = 1, uses_anonymous_args = 0
 3586              		@ link register save eliminated.
 3587 0000 80B4     		push	{r7}
 3588              	.LCFI15:
 3589              		.cfi_def_cfa_offset 4
 3590              		.cfi_offset 7, -4
 3591 0002 83B0     		sub	sp, sp, #12
 3592              	.LCFI16:
 3593              		.cfi_def_cfa_offset 16
 3594 0004 00AF     		add	r7, sp, #0
 3595              	.LCFI17:
 3596              		.cfi_def_cfa_register 7
 3597 0006 7860     		str	r0, [r7, #4]
 217:C:/StellarisWare/driverlib\ELT240320TP.c **** 	back_color = color;
 3598              		.loc 1 217 0
 3599 0008 40F20003 		movw	r3, #:lower16:back_color
 3600 000c C0F20003 		movt	r3, #:upper16:back_color
 3601 0010 7A68     		ldr	r2, [r7, #4]
 3602 0012 1A60     		str	r2, [r3, #0]
 218:C:/StellarisWare/driverlib\ELT240320TP.c **** }
 3603              		.loc 1 218 0
 3604 0014 07F10C07 		add	r7, r7, #12
 3605 0018 BD46     		mov	sp, r7
 3606 001a 80BC     		pop	{r7}
 3607 001c 7047     		bx	lr
 3608              		.cfi_endproc
 3609              	.LFE5:
 3611 001e 00BF     		.section	.text.TSLCDFillCirc,"ax",%progbits
 3612              		.align	2
 3613              		.global	TSLCDFillCirc
 3614              		.thumb
 3615              		.thumb_func
 3617              	TSLCDFillCirc:
 3618              	.LFB6:
 219:C:/StellarisWare/driverlib\ELT240320TP.c **** 
 220:C:/StellarisWare/driverlib\ELT240320TP.c **** 
 221:C:/StellarisWare/driverlib\ELT240320TP.c **** void TSLCDFillCirc(ts_pos_t cx,ts_pos_t cy,ts_pos_t rad,word color, ts_mode_t mode) //draw a circle
 222:C:/StellarisWare/driverlib\ELT240320TP.c **** {
 3619              		.loc 1 222 0
 3620              		.cfi_startproc
 3621              		@ args = 4, pretend = 0, frame = 56
 3622              		@ frame_needed = 1, uses_anonymous_args = 0
 3623 0000 80B5     		push	{r7, lr}
 3624              	.LCFI18:
 3625              		.cfi_def_cfa_offset 8
 3626              		.cfi_offset 14, -4
 3627              		.cfi_offset 7, -8
 3628 0002 8EB0     		sub	sp, sp, #56
 3629              	.LCFI19:
 3630              		.cfi_def_cfa_offset 64
 3631 0004 00AF     		add	r7, sp, #0
 3632              	.LCFI20:
 3633              		.cfi_def_cfa_register 7
 3634 0006 F860     		str	r0, [r7, #12]
 3635 0008 B960     		str	r1, [r7, #8]
 3636 000a 7A60     		str	r2, [r7, #4]
 3637 000c 3B60     		str	r3, [r7, #0]
 223:C:/StellarisWare/driverlib\ELT240320TP.c **** #ifndef TS_ORN_PORTRAIT
 224:C:/StellarisWare/driverlib\ELT240320TP.c **** 	int sy_buf,ey_buf;
 225:C:/StellarisWare/driverlib\ELT240320TP.c **** #endif
 226:C:/StellarisWare/driverlib\ELT240320TP.c **** 	int sx,sy,ex,ey;
 227:C:/StellarisWare/driverlib\ELT240320TP.c **** 	int i,j;
 228:C:/StellarisWare/driverlib\ELT240320TP.c **** 	word color_buf;
 229:C:/StellarisWare/driverlib\ELT240320TP.c **** 	word rad2 = rad*rad;
 3638              		.loc 1 229 0
 3639 000e 7B68     		ldr	r3, [r7, #4]
 3640 0010 7A68     		ldr	r2, [r7, #4]
 3641 0012 02FB03F3 		mul	r3, r2, r3
 3642 0016 FB61     		str	r3, [r7, #28]
 230:C:/StellarisWare/driverlib\ELT240320TP.c **** 	sx = cx - rad;
 3643              		.loc 1 230 0
 3644 0018 FA68     		ldr	r2, [r7, #12]
 3645 001a 7B68     		ldr	r3, [r7, #4]
 3646 001c D31A     		subs	r3, r2, r3
 3647 001e 7B63     		str	r3, [r7, #52]
 231:C:/StellarisWare/driverlib\ELT240320TP.c **** 	ex = cx + rad;
 3648              		.loc 1 231 0
 3649 0020 FA68     		ldr	r2, [r7, #12]
 3650 0022 7B68     		ldr	r3, [r7, #4]
 3651 0024 D318     		adds	r3, r2, r3
 3652 0026 FB62     		str	r3, [r7, #44]
 232:C:/StellarisWare/driverlib\ELT240320TP.c **** 	sy = cy - rad;
 3653              		.loc 1 232 0
 3654 0028 BA68     		ldr	r2, [r7, #8]
 3655 002a 7B68     		ldr	r3, [r7, #4]
 3656 002c D31A     		subs	r3, r2, r3
 3657 002e 3B63     		str	r3, [r7, #48]
 233:C:/StellarisWare/driverlib\ELT240320TP.c **** 	ey = cy + rad;
 3658              		.loc 1 233 0
 3659 0030 BA68     		ldr	r2, [r7, #8]
 3660 0032 7B68     		ldr	r3, [r7, #4]
 3661 0034 D318     		adds	r3, r2, r3
 3662 0036 BB62     		str	r3, [r7, #40]
 234:C:/StellarisWare/driverlib\ELT240320TP.c **** 
 235:C:/StellarisWare/driverlib\ELT240320TP.c **** 	if (sx < ts_margin_xl)
 3663              		.loc 1 235 0
 3664 0038 40F20003 		movw	r3, #:lower16:ts_margin_xl
 3665 003c C0F20003 		movt	r3, #:upper16:ts_margin_xl
 3666 0040 1B68     		ldr	r3, [r3, #0]
 3667 0042 7A6B     		ldr	r2, [r7, #52]
 3668 0044 9A42     		cmp	r2, r3
 3669 0046 05DA     		bge	.L41
 236:C:/StellarisWare/driverlib\ELT240320TP.c **** 		sx = ts_margin_xl;
 3670              		.loc 1 236 0
 3671 0048 40F20003 		movw	r3, #:lower16:ts_margin_xl
 3672 004c C0F20003 		movt	r3, #:upper16:ts_margin_xl
 3673 0050 1B68     		ldr	r3, [r3, #0]
 3674 0052 7B63     		str	r3, [r7, #52]
 3675              	.L41:
 237:C:/StellarisWare/driverlib\ELT240320TP.c **** 	if (ex > ts_margin_xr)
 3676              		.loc 1 237 0
 3677 0054 40F20003 		movw	r3, #:lower16:ts_margin_xr
 3678 0058 C0F20003 		movt	r3, #:upper16:ts_margin_xr
 3679 005c 1B68     		ldr	r3, [r3, #0]
 3680 005e FA6A     		ldr	r2, [r7, #44]
 3681 0060 9A42     		cmp	r2, r3
 3682 0062 05DD     		ble	.L42
 238:C:/StellarisWare/driverlib\ELT240320TP.c **** 		ex = ts_margin_xr;
 3683              		.loc 1 238 0
 3684 0064 40F20003 		movw	r3, #:lower16:ts_margin_xr
 3685 0068 C0F20003 		movt	r3, #:upper16:ts_margin_xr
 3686 006c 1B68     		ldr	r3, [r3, #0]
 3687 006e FB62     		str	r3, [r7, #44]
 3688              	.L42:
 239:C:/StellarisWare/driverlib\ELT240320TP.c **** 	if (sy < ts_margin_yu)
 3689              		.loc 1 239 0
 3690 0070 40F20003 		movw	r3, #:lower16:ts_margin_yu
 3691 0074 C0F20003 		movt	r3, #:upper16:ts_margin_yu
 3692 0078 1B68     		ldr	r3, [r3, #0]
 3693 007a 3A6B     		ldr	r2, [r7, #48]
 3694 007c 9A42     		cmp	r2, r3
 3695 007e 05DA     		bge	.L43
 240:C:/StellarisWare/driverlib\ELT240320TP.c **** 		sy = ts_margin_yu;
 3696              		.loc 1 240 0
 3697 0080 40F20003 		movw	r3, #:lower16:ts_margin_yu
 3698 0084 C0F20003 		movt	r3, #:upper16:ts_margin_yu
 3699 0088 1B68     		ldr	r3, [r3, #0]
 3700 008a 3B63     		str	r3, [r7, #48]
 3701              	.L43:
 241:C:/StellarisWare/driverlib\ELT240320TP.c **** 	if (ey > ts_margin_yl)			 
 3702              		.loc 1 241 0
 3703 008c 40F20003 		movw	r3, #:lower16:ts_margin_yl
 3704 0090 C0F20003 		movt	r3, #:upper16:ts_margin_yl
 3705 0094 1B68     		ldr	r3, [r3, #0]
 3706 0096 BA6A     		ldr	r2, [r7, #40]
 3707 0098 9A42     		cmp	r2, r3
 3708 009a 05DD     		ble	.L44
 242:C:/StellarisWare/driverlib\ELT240320TP.c **** 		ey = ts_margin_yl;
 3709              		.loc 1 242 0
 3710 009c 40F20003 		movw	r3, #:lower16:ts_margin_yl
 3711 00a0 C0F20003 		movt	r3, #:upper16:ts_margin_yl
 3712 00a4 1B68     		ldr	r3, [r3, #0]
 3713 00a6 BB62     		str	r3, [r7, #40]
 3714              	.L44:
 243:C:/StellarisWare/driverlib\ELT240320TP.c **** 
 244:C:/StellarisWare/driverlib\ELT240320TP.c **** 	TSLCDOutIns(TS_INS_START_ADX);
 3715              		.loc 1 244 0
 3716 00a8 4FF05200 		mov	r0, #82
 3717 00ac FFF7FEFF 		bl	TSLCDOutIns
 245:C:/StellarisWare/driverlib\ELT240320TP.c **** 	TSLCDOutDat(sx);
 3718              		.loc 1 245 0
 3719 00b0 7B6B     		ldr	r3, [r7, #52]
 3720 00b2 1846     		mov	r0, r3
 3721 00b4 FFF7FEFF 		bl	TSLCDOutDat
 246:C:/StellarisWare/driverlib\ELT240320TP.c **** 	TSLCDOutIns(TS_INS_END_ADX);
 3722              		.loc 1 246 0
 3723 00b8 4FF05300 		mov	r0, #83
 3724 00bc FFF7FEFF 		bl	TSLCDOutIns
 247:C:/StellarisWare/driverlib\ELT240320TP.c **** 	TSLCDOutDat(ex);
 3725              		.loc 1 247 0
 3726 00c0 FB6A     		ldr	r3, [r7, #44]
 3727 00c2 1846     		mov	r0, r3
 3728 00c4 FFF7FEFF 		bl	TSLCDOutDat
 248:C:/StellarisWare/driverlib\ELT240320TP.c **** 	TSLCDOutIns(TS_INS_GRAM_ADX);
 3729              		.loc 1 248 0
 3730 00c8 4FF02100 		mov	r0, #33
 3731 00cc FFF7FEFF 		bl	TSLCDOutIns
 249:C:/StellarisWare/driverlib\ELT240320TP.c **** 	TSLCDOutDat(sx);
 3732              		.loc 1 249 0
 3733 00d0 7B6B     		ldr	r3, [r7, #52]
 3734 00d2 1846     		mov	r0, r3
 3735 00d4 FFF7FEFF 		bl	TSLCDOutDat
 250:C:/StellarisWare/driverlib\ELT240320TP.c **** 
 251:C:/StellarisWare/driverlib\ELT240320TP.c **** #ifndef TS_ORN_PORTRAIT
 252:C:/StellarisWare/driverlib\ELT240320TP.c **** 	sy_buf = TS_SIZE_Y - 1 - sy; 	// mirror start y address
 3736              		.loc 1 252 0
 3737 00d8 3B6B     		ldr	r3, [r7, #48]
 3738 00da C3F1EF03 		rsb	r3, r3, #239
 3739 00de BB61     		str	r3, [r7, #24]
 253:C:/StellarisWare/driverlib\ELT240320TP.c **** 	ey_buf = TS_SIZE_Y - 1 - ey; 	// mirror end y address
 3740              		.loc 1 253 0
 3741 00e0 BB6A     		ldr	r3, [r7, #40]
 3742 00e2 C3F1EF03 		rsb	r3, r3, #239
 3743 00e6 7B61     		str	r3, [r7, #20]
 254:C:/StellarisWare/driverlib\ELT240320TP.c **** 	TSLCDOutIns(TS_INS_START_ADY);
 3744              		.loc 1 254 0
 3745 00e8 4FF05000 		mov	r0, #80
 3746 00ec FFF7FEFF 		bl	TSLCDOutIns
 255:C:/StellarisWare/driverlib\ELT240320TP.c **** 	TSLCDOutDat(ey_buf);
 3747              		.loc 1 255 0
 3748 00f0 7B69     		ldr	r3, [r7, #20]
 3749 00f2 1846     		mov	r0, r3
 3750 00f4 FFF7FEFF 		bl	TSLCDOutDat
 256:C:/StellarisWare/driverlib\ELT240320TP.c **** 	TSLCDOutIns(TS_INS_END_ADY);
 3751              		.loc 1 256 0
 3752 00f8 4FF05100 		mov	r0, #81
 3753 00fc FFF7FEFF 		bl	TSLCDOutIns
 257:C:/StellarisWare/driverlib\ELT240320TP.c **** 	TSLCDOutDat(sy_buf);
 3754              		.loc 1 257 0
 3755 0100 BB69     		ldr	r3, [r7, #24]
 3756 0102 1846     		mov	r0, r3
 3757 0104 FFF7FEFF 		bl	TSLCDOutDat
 258:C:/StellarisWare/driverlib\ELT240320TP.c **** 	TSLCDOutIns(TS_INS_GRAM_ADY);
 3758              		.loc 1 258 0
 3759 0108 4FF02000 		mov	r0, #32
 3760 010c FFF7FEFF 		bl	TSLCDOutIns
 259:C:/StellarisWare/driverlib\ELT240320TP.c **** 	TSLCDOutDat(sy_buf);//fix from bug of v1_00
 3761              		.loc 1 259 0
 3762 0110 BB69     		ldr	r3, [r7, #24]
 3763 0112 1846     		mov	r0, r3
 3764 0114 FFF7FEFF 		bl	TSLCDOutDat
 260:C:/StellarisWare/driverlib\ELT240320TP.c **** #else
 261:C:/StellarisWare/driverlib\ELT240320TP.c **** 	TSLCDOutIns(TS_INS_START_ADY);
 262:C:/StellarisWare/driverlib\ELT240320TP.c **** 	TSLCDOutDat(sy);
 263:C:/StellarisWare/driverlib\ELT240320TP.c **** 	TSLCDOutIns(TS_INS_END_ADY);
 264:C:/StellarisWare/driverlib\ELT240320TP.c **** 	TSLCDOutDat(ey);
 265:C:/StellarisWare/driverlib\ELT240320TP.c **** 	TSLCDOutIns(TS_INS_GRAM_ADY);
 266:C:/StellarisWare/driverlib\ELT240320TP.c **** 	TSLCDOutDat(sy);
 267:C:/StellarisWare/driverlib\ELT240320TP.c **** #endif
 268:C:/StellarisWare/driverlib\ELT240320TP.c **** 
 269:C:/StellarisWare/driverlib\ELT240320TP.c **** 	TSLCDOutIns(TS_INS_RW_GRAM);
 3765              		.loc 1 269 0
 3766 0118 4FF02200 		mov	r0, #34
 3767 011c FFF7FEFF 		bl	TSLCDOutIns
 270:C:/StellarisWare/driverlib\ELT240320TP.c **** 
 271:C:/StellarisWare/driverlib\ELT240320TP.c **** 	if (mode == TS_MODE_NORMAL)
 3768              		.loc 1 271 0
 3769 0120 97F84030 		ldrb	r3, [r7, #64]	@ zero_extendqisi2
 3770 0124 002B     		cmp	r3, #0
 3771 0126 35D1     		bne	.L45
 272:C:/StellarisWare/driverlib\ELT240320TP.c **** 	{
 273:C:/StellarisWare/driverlib\ELT240320TP.c **** 		for (j=sy-cy; j<=ey-cy; j++)
 3772              		.loc 1 273 0
 3773 0128 3A6B     		ldr	r2, [r7, #48]
 3774 012a BB68     		ldr	r3, [r7, #8]
 3775 012c D31A     		subs	r3, r2, r3
 3776 012e 3B62     		str	r3, [r7, #32]
 3777 0130 29E0     		b	.L46
 3778              	.L51:
 274:C:/StellarisWare/driverlib\ELT240320TP.c **** 			for (i=sx-cx; i<=ex-cx; i++)
 3779              		.loc 1 274 0
 3780 0132 7A6B     		ldr	r2, [r7, #52]
 3781 0134 FB68     		ldr	r3, [r7, #12]
 3782 0136 D31A     		subs	r3, r2, r3
 3783 0138 7B62     		str	r3, [r7, #36]
 3784 013a 1AE0     		b	.L47
 3785              	.L50:
 275:C:/StellarisWare/driverlib\ELT240320TP.c **** 			{
 276:C:/StellarisWare/driverlib\ELT240320TP.c **** 				if ((i)*(i) + (j)*(j) < rad2)
 3786              		.loc 1 276 0
 3787 013c 7B6A     		ldr	r3, [r7, #36]
 3788 013e 7A6A     		ldr	r2, [r7, #36]
 3789 0140 02FB03F2 		mul	r2, r2, r3
 3790 0144 3B6A     		ldr	r3, [r7, #32]
 3791 0146 396A     		ldr	r1, [r7, #32]
 3792 0148 01FB03F3 		mul	r3, r1, r3
 3793 014c D318     		adds	r3, r2, r3
 3794 014e 1A46     		mov	r2, r3
 3795 0150 FB69     		ldr	r3, [r7, #28]
 3796 0152 9A42     		cmp	r2, r3
 3797 0154 03D2     		bcs	.L48
 277:C:/StellarisWare/driverlib\ELT240320TP.c **** 				{
 278:C:/StellarisWare/driverlib\ELT240320TP.c **** 					TSLCDOutDat(color);
 3798              		.loc 1 278 0
 3799 0156 3868     		ldr	r0, [r7, #0]
 3800 0158 FFF7FEFF 		bl	TSLCDOutDat
 3801 015c 05E0     		b	.L49
 3802              	.L48:
 279:C:/StellarisWare/driverlib\ELT240320TP.c **** 				}
 280:C:/StellarisWare/driverlib\ELT240320TP.c **** 				else
 281:C:/StellarisWare/driverlib\ELT240320TP.c **** 				{
 282:C:/StellarisWare/driverlib\ELT240320TP.c **** 					color_buf = TSLCDInDat();
 3803              		.loc 1 282 0
 3804 015e FFF7FEFF 		bl	TSLCDInDat
 3805 0162 3861     		str	r0, [r7, #16]
 283:C:/StellarisWare/driverlib\ELT240320TP.c **** 					TSLCDOutDat(color_buf);
 3806              		.loc 1 283 0
 3807 0164 3869     		ldr	r0, [r7, #16]
 3808 0166 FFF7FEFF 		bl	TSLCDOutDat
 3809              	.L49:
 274:C:/StellarisWare/driverlib\ELT240320TP.c **** 			for (i=sx-cx; i<=ex-cx; i++)
 3810              		.loc 1 274 0
 3811 016a 7B6A     		ldr	r3, [r7, #36]
 3812 016c 03F10103 		add	r3, r3, #1
 3813 0170 7B62     		str	r3, [r7, #36]
 3814              	.L47:
 274:C:/StellarisWare/driverlib\ELT240320TP.c **** 			for (i=sx-cx; i<=ex-cx; i++)
 3815              		.loc 1 274 0 is_stmt 0 discriminator 1
 3816 0172 FA6A     		ldr	r2, [r7, #44]
 3817 0174 FB68     		ldr	r3, [r7, #12]
 3818 0176 D21A     		subs	r2, r2, r3
 3819 0178 7B6A     		ldr	r3, [r7, #36]
 3820 017a 9A42     		cmp	r2, r3
 3821 017c DEDA     		bge	.L50
 273:C:/StellarisWare/driverlib\ELT240320TP.c **** 		for (j=sy-cy; j<=ey-cy; j++)
 3822              		.loc 1 273 0 is_stmt 1
 3823 017e 3B6A     		ldr	r3, [r7, #32]
 3824 0180 03F10103 		add	r3, r3, #1
 3825 0184 3B62     		str	r3, [r7, #32]
 3826              	.L46:
 273:C:/StellarisWare/driverlib\ELT240320TP.c **** 		for (j=sy-cy; j<=ey-cy; j++)
 3827              		.loc 1 273 0 is_stmt 0 discriminator 1
 3828 0186 BA6A     		ldr	r2, [r7, #40]
 3829 0188 BB68     		ldr	r3, [r7, #8]
 3830 018a D21A     		subs	r2, r2, r3
 3831 018c 3B6A     		ldr	r3, [r7, #32]
 3832 018e 9A42     		cmp	r2, r3
 3833 0190 CFDA     		bge	.L51
 273:C:/StellarisWare/driverlib\ELT240320TP.c **** 		for (j=sy-cy; j<=ey-cy; j++)
 3834              		.loc 1 273 0
 3835 0192 80E0     		b	.L40
 3836              	.L45:
 284:C:/StellarisWare/driverlib\ELT240320TP.c **** 				}
 285:C:/StellarisWare/driverlib\ELT240320TP.c **** 			}
 286:C:/StellarisWare/driverlib\ELT240320TP.c **** 	}
 287:C:/StellarisWare/driverlib\ELT240320TP.c **** 	else
 288:C:/StellarisWare/driverlib\ELT240320TP.c **** 	if (mode == TS_MODE_INVERSE)
 3837              		.loc 1 288 0 is_stmt 1
 3838 0194 97F84030 		ldrb	r3, [r7, #64]	@ zero_extendqisi2
 3839 0198 012B     		cmp	r3, #1
 3840 019a 41D1     		bne	.L53
 289:C:/StellarisWare/driverlib\ELT240320TP.c **** 	{
 290:C:/StellarisWare/driverlib\ELT240320TP.c **** 		for (j=sy-cy; j<=ey-cy; j++)
 3841              		.loc 1 290 0
 3842 019c 3A6B     		ldr	r2, [r7, #48]
 3843 019e BB68     		ldr	r3, [r7, #8]
 3844 01a0 D31A     		subs	r3, r2, r3
 3845 01a2 3B62     		str	r3, [r7, #32]
 3846 01a4 35E0     		b	.L54
 3847              	.L59:
 291:C:/StellarisWare/driverlib\ELT240320TP.c **** 			for (i=sx-cx; i<=ex-cx; i++)
 3848              		.loc 1 291 0
 3849 01a6 7A6B     		ldr	r2, [r7, #52]
 3850 01a8 FB68     		ldr	r3, [r7, #12]
 3851 01aa D31A     		subs	r3, r2, r3
 3852 01ac 7B62     		str	r3, [r7, #36]
 3853 01ae 26E0     		b	.L55
 3854              	.L58:
 292:C:/StellarisWare/driverlib\ELT240320TP.c **** 			{
 293:C:/StellarisWare/driverlib\ELT240320TP.c **** 				if ((i)*(i) + (j)*(j) < rad2)
 3855              		.loc 1 293 0
 3856 01b0 7B6A     		ldr	r3, [r7, #36]
 3857 01b2 7A6A     		ldr	r2, [r7, #36]
 3858 01b4 02FB03F2 		mul	r2, r2, r3
 3859 01b8 3B6A     		ldr	r3, [r7, #32]
 3860 01ba 396A     		ldr	r1, [r7, #32]
 3861 01bc 01FB03F3 		mul	r3, r1, r3
 3862 01c0 D318     		adds	r3, r2, r3
 3863 01c2 1A46     		mov	r2, r3
 3864 01c4 FB69     		ldr	r3, [r7, #28]
 3865 01c6 9A42     		cmp	r2, r3
 3866 01c8 0CD2     		bcs	.L56
 294:C:/StellarisWare/driverlib\ELT240320TP.c **** 				{
 295:C:/StellarisWare/driverlib\ELT240320TP.c **** 					color_buf = TSLCDInDat(); 		// ignore invalid data
 3867              		.loc 1 295 0
 3868 01ca FFF7FEFF 		bl	TSLCDInDat
 3869 01ce 3861     		str	r0, [r7, #16]
 296:C:/StellarisWare/driverlib\ELT240320TP.c **** 					color_buf = TSLCDInDat();
 3870              		.loc 1 296 0
 3871 01d0 FFF7FEFF 		bl	TSLCDInDat
 3872 01d4 3861     		str	r0, [r7, #16]
 297:C:/StellarisWare/driverlib\ELT240320TP.c **** 					TSLCDOutDat(~color_buf);
 3873              		.loc 1 297 0
 3874 01d6 3B69     		ldr	r3, [r7, #16]
 3875 01d8 6FEA0303 		mvn	r3, r3
 3876 01dc 1846     		mov	r0, r3
 3877 01de FFF7FEFF 		bl	TSLCDOutDat
 3878 01e2 08E0     		b	.L57
 3879              	.L56:
 298:C:/StellarisWare/driverlib\ELT240320TP.c **** 				}
 299:C:/StellarisWare/driverlib\ELT240320TP.c **** 				else
 300:C:/StellarisWare/driverlib\ELT240320TP.c **** 				{
 301:C:/StellarisWare/driverlib\ELT240320TP.c **** 					color_buf = TSLCDInDat(); 		// ignore invalid data
 3880              		.loc 1 301 0
 3881 01e4 FFF7FEFF 		bl	TSLCDInDat
 3882 01e8 3861     		str	r0, [r7, #16]
 302:C:/StellarisWare/driverlib\ELT240320TP.c **** 					color_buf = TSLCDInDat();
 3883              		.loc 1 302 0
 3884 01ea FFF7FEFF 		bl	TSLCDInDat
 3885 01ee 3861     		str	r0, [r7, #16]
 303:C:/StellarisWare/driverlib\ELT240320TP.c **** 					TSLCDOutDat(color_buf);
 3886              		.loc 1 303 0
 3887 01f0 3869     		ldr	r0, [r7, #16]
 3888 01f2 FFF7FEFF 		bl	TSLCDOutDat
 3889              	.L57:
 291:C:/StellarisWare/driverlib\ELT240320TP.c **** 			for (i=sx-cx; i<=ex-cx; i++)
 3890              		.loc 1 291 0
 3891 01f6 7B6A     		ldr	r3, [r7, #36]
 3892 01f8 03F10103 		add	r3, r3, #1
 3893 01fc 7B62     		str	r3, [r7, #36]
 3894              	.L55:
 291:C:/StellarisWare/driverlib\ELT240320TP.c **** 			for (i=sx-cx; i<=ex-cx; i++)
 3895              		.loc 1 291 0 is_stmt 0 discriminator 1
 3896 01fe FA6A     		ldr	r2, [r7, #44]
 3897 0200 FB68     		ldr	r3, [r7, #12]
 3898 0202 D21A     		subs	r2, r2, r3
 3899 0204 7B6A     		ldr	r3, [r7, #36]
 3900 0206 9A42     		cmp	r2, r3
 3901 0208 D2DA     		bge	.L58
 290:C:/StellarisWare/driverlib\ELT240320TP.c **** 		for (j=sy-cy; j<=ey-cy; j++)
 3902              		.loc 1 290 0 is_stmt 1
 3903 020a 3B6A     		ldr	r3, [r7, #32]
 3904 020c 03F10103 		add	r3, r3, #1
 3905 0210 3B62     		str	r3, [r7, #32]
 3906              	.L54:
 290:C:/StellarisWare/driverlib\ELT240320TP.c **** 		for (j=sy-cy; j<=ey-cy; j++)
 3907              		.loc 1 290 0 is_stmt 0 discriminator 1
 3908 0212 BA6A     		ldr	r2, [r7, #40]
 3909 0214 BB68     		ldr	r3, [r7, #8]
 3910 0216 D21A     		subs	r2, r2, r3
 3911 0218 3B6A     		ldr	r3, [r7, #32]
 3912 021a 9A42     		cmp	r2, r3
 3913 021c C3DA     		bge	.L59
 290:C:/StellarisWare/driverlib\ELT240320TP.c **** 		for (j=sy-cy; j<=ey-cy; j++)
 3914              		.loc 1 290 0
 3915 021e 3AE0     		b	.L40
 3916              	.L53:
 304:C:/StellarisWare/driverlib\ELT240320TP.c **** 				}
 305:C:/StellarisWare/driverlib\ELT240320TP.c **** 			}
 306:C:/StellarisWare/driverlib\ELT240320TP.c **** 	}
 307:C:/StellarisWare/driverlib\ELT240320TP.c **** 	else
 308:C:/StellarisWare/driverlib\ELT240320TP.c **** 	if (mode == TS_MODE_FULL)
 3917              		.loc 1 308 0 is_stmt 1
 3918 0220 97F84030 		ldrb	r3, [r7, #64]	@ zero_extendqisi2
 3919 0224 022B     		cmp	r3, #2
 3920 0226 36D1     		bne	.L40
 309:C:/StellarisWare/driverlib\ELT240320TP.c **** 	{
 310:C:/StellarisWare/driverlib\ELT240320TP.c **** 		for (j=sy-cy; j<=ey-cy; j++)
 3921              		.loc 1 310 0
 3922 0228 3A6B     		ldr	r2, [r7, #48]
 3923 022a BB68     		ldr	r3, [r7, #8]
 3924 022c D31A     		subs	r3, r2, r3
 3925 022e 3B62     		str	r3, [r7, #32]
 3926 0230 2BE0     		b	.L60
 3927              	.L65:
 311:C:/StellarisWare/driverlib\ELT240320TP.c **** 			for (i=sx-cx; i<=ex-cx; i++)
 3928              		.loc 1 311 0
 3929 0232 7A6B     		ldr	r2, [r7, #52]
 3930 0234 FB68     		ldr	r3, [r7, #12]
 3931 0236 D31A     		subs	r3, r2, r3
 3932 0238 7B62     		str	r3, [r7, #36]
 3933 023a 1CE0     		b	.L61
 3934              	.L64:
 312:C:/StellarisWare/driverlib\ELT240320TP.c **** 			{
 313:C:/StellarisWare/driverlib\ELT240320TP.c **** 				if ((i)*(i) + (j)*(j) < rad2)
 3935              		.loc 1 313 0
 3936 023c 7B6A     		ldr	r3, [r7, #36]
 3937 023e 7A6A     		ldr	r2, [r7, #36]
 3938 0240 02FB03F2 		mul	r2, r2, r3
 3939 0244 3B6A     		ldr	r3, [r7, #32]
 3940 0246 396A     		ldr	r1, [r7, #32]
 3941 0248 01FB03F3 		mul	r3, r1, r3
 3942 024c D318     		adds	r3, r2, r3
 3943 024e 1A46     		mov	r2, r3
 3944 0250 FB69     		ldr	r3, [r7, #28]
 3945 0252 9A42     		cmp	r2, r3
 3946 0254 03D2     		bcs	.L62
 314:C:/StellarisWare/driverlib\ELT240320TP.c **** 				{
 315:C:/StellarisWare/driverlib\ELT240320TP.c **** 					TSLCDOutDat(color);
 3947              		.loc 1 315 0
 3948 0256 3868     		ldr	r0, [r7, #0]
 3949 0258 FFF7FEFF 		bl	TSLCDOutDat
 3950 025c 07E0     		b	.L63
 3951              	.L62:
 316:C:/StellarisWare/driverlib\ELT240320TP.c **** 				}
 317:C:/StellarisWare/driverlib\ELT240320TP.c **** 				else
 318:C:/StellarisWare/driverlib\ELT240320TP.c **** 				{
 319:C:/StellarisWare/driverlib\ELT240320TP.c **** 					TSLCDOutDat(back_color);
 3952              		.loc 1 319 0
 3953 025e 40F20003 		movw	r3, #:lower16:back_color
 3954 0262 C0F20003 		movt	r3, #:upper16:back_color
 3955 0266 1B68     		ldr	r3, [r3, #0]
 3956 0268 1846     		mov	r0, r3
 3957 026a FFF7FEFF 		bl	TSLCDOutDat
 3958              	.L63:
 311:C:/StellarisWare/driverlib\ELT240320TP.c **** 			for (i=sx-cx; i<=ex-cx; i++)
 3959              		.loc 1 311 0
 3960 026e 7B6A     		ldr	r3, [r7, #36]
 3961 0270 03F10103 		add	r3, r3, #1
 3962 0274 7B62     		str	r3, [r7, #36]
 3963              	.L61:
 311:C:/StellarisWare/driverlib\ELT240320TP.c **** 			for (i=sx-cx; i<=ex-cx; i++)
 3964              		.loc 1 311 0 is_stmt 0 discriminator 1
 3965 0276 FA6A     		ldr	r2, [r7, #44]
 3966 0278 FB68     		ldr	r3, [r7, #12]
 3967 027a D21A     		subs	r2, r2, r3
 3968 027c 7B6A     		ldr	r3, [r7, #36]
 3969 027e 9A42     		cmp	r2, r3
 3970 0280 DCDA     		bge	.L64
 310:C:/StellarisWare/driverlib\ELT240320TP.c **** 		for (j=sy-cy; j<=ey-cy; j++)
 3971              		.loc 1 310 0 is_stmt 1
 3972 0282 3B6A     		ldr	r3, [r7, #32]
 3973 0284 03F10103 		add	r3, r3, #1
 3974 0288 3B62     		str	r3, [r7, #32]
 3975              	.L60:
 310:C:/StellarisWare/driverlib\ELT240320TP.c **** 		for (j=sy-cy; j<=ey-cy; j++)
 3976              		.loc 1 310 0 is_stmt 0 discriminator 1
 3977 028a BA6A     		ldr	r2, [r7, #40]
 3978 028c BB68     		ldr	r3, [r7, #8]
 3979 028e D21A     		subs	r2, r2, r3
 3980 0290 3B6A     		ldr	r3, [r7, #32]
 3981 0292 9A42     		cmp	r2, r3
 3982 0294 CDDA     		bge	.L65
 3983              	.L40:
 320:C:/StellarisWare/driverlib\ELT240320TP.c **** 				}
 321:C:/StellarisWare/driverlib\ELT240320TP.c **** 			}
 322:C:/StellarisWare/driverlib\ELT240320TP.c **** 	}
 323:C:/StellarisWare/driverlib\ELT240320TP.c **** }
 3984              		.loc 1 323 0 is_stmt 1
 3985 0296 07F13807 		add	r7, r7, #56
 3986 029a BD46     		mov	sp, r7
 3987 029c 80BD     		pop	{r7, pc}
 3988              		.cfi_endproc
 3989              	.LFE6:
 3991 029e 00BF     		.section	.text.TSLCDSetMargins,"ax",%progbits
 3992              		.align	2
 3993              		.global	TSLCDSetMargins
 3994              		.thumb
 3995              		.thumb_func
 3997              	TSLCDSetMargins:
 3998              	.LFB7:
 324:C:/StellarisWare/driverlib\ELT240320TP.c **** 
 325:C:/StellarisWare/driverlib\ELT240320TP.c **** 
 326:C:/StellarisWare/driverlib\ELT240320TP.c **** void TSLCDSetMargins(ts_pos_t xl,ts_pos_t xr,ts_pos_t yu,ts_pos_t yl) //set margins for FillRect,Fi
 327:C:/StellarisWare/driverlib\ELT240320TP.c **** {
 3999              		.loc 1 327 0
 4000              		.cfi_startproc
 4001              		@ args = 0, pretend = 0, frame = 16
 4002              		@ frame_needed = 1, uses_anonymous_args = 0
 4003              		@ link register save eliminated.
 4004 0000 80B4     		push	{r7}
 4005              	.LCFI21:
 4006              		.cfi_def_cfa_offset 4
 4007              		.cfi_offset 7, -4
 4008 0002 85B0     		sub	sp, sp, #20
 4009              	.LCFI22:
 4010              		.cfi_def_cfa_offset 24
 4011 0004 00AF     		add	r7, sp, #0
 4012              	.LCFI23:
 4013              		.cfi_def_cfa_register 7
 4014 0006 F860     		str	r0, [r7, #12]
 4015 0008 B960     		str	r1, [r7, #8]
 4016 000a 7A60     		str	r2, [r7, #4]
 4017 000c 3B60     		str	r3, [r7, #0]
 328:C:/StellarisWare/driverlib\ELT240320TP.c **** 	ts_margin_xl = xl;
 4018              		.loc 1 328 0
 4019 000e 40F20003 		movw	r3, #:lower16:ts_margin_xl
 4020 0012 C0F20003 		movt	r3, #:upper16:ts_margin_xl
 4021 0016 FA68     		ldr	r2, [r7, #12]
 4022 0018 1A60     		str	r2, [r3, #0]
 329:C:/StellarisWare/driverlib\ELT240320TP.c **** 	ts_margin_xr = xr;
 4023              		.loc 1 329 0
 4024 001a 40F20003 		movw	r3, #:lower16:ts_margin_xr
 4025 001e C0F20003 		movt	r3, #:upper16:ts_margin_xr
 4026 0022 BA68     		ldr	r2, [r7, #8]
 4027 0024 1A60     		str	r2, [r3, #0]
 330:C:/StellarisWare/driverlib\ELT240320TP.c **** 	ts_margin_yu = yu;
 4028              		.loc 1 330 0
 4029 0026 40F20003 		movw	r3, #:lower16:ts_margin_yu
 4030 002a C0F20003 		movt	r3, #:upper16:ts_margin_yu
 4031 002e 7A68     		ldr	r2, [r7, #4]
 4032 0030 1A60     		str	r2, [r3, #0]
 331:C:/StellarisWare/driverlib\ELT240320TP.c **** 	ts_margin_yl = yl;
 4033              		.loc 1 331 0
 4034 0032 40F20003 		movw	r3, #:lower16:ts_margin_yl
 4035 0036 C0F20003 		movt	r3, #:upper16:ts_margin_yl
 4036 003a 3A68     		ldr	r2, [r7, #0]
 4037 003c 1A60     		str	r2, [r3, #0]
 332:C:/StellarisWare/driverlib\ELT240320TP.c **** }
 4038              		.loc 1 332 0
 4039 003e 07F11407 		add	r7, r7, #20
 4040 0042 BD46     		mov	sp, r7
 4041 0044 80BC     		pop	{r7}
 4042 0046 7047     		bx	lr
 4043              		.cfi_endproc
 4044              	.LFE7:
 4046              		.section	.text.TSLCDSetMarginsDefault,"ax",%progbits
 4047              		.align	2
 4048              		.global	TSLCDSetMarginsDefault
 4049              		.thumb
 4050              		.thumb_func
 4052              	TSLCDSetMarginsDefault:
 4053              	.LFB8:
 333:C:/StellarisWare/driverlib\ELT240320TP.c **** 
 334:C:/StellarisWare/driverlib\ELT240320TP.c **** void TSLCDSetMarginsDefault(void) //Reset margins to default value
 335:C:/StellarisWare/driverlib\ELT240320TP.c **** {
 4054              		.loc 1 335 0
 4055              		.cfi_startproc
 4056              		@ args = 0, pretend = 0, frame = 0
 4057              		@ frame_needed = 1, uses_anonymous_args = 0
 4058              		@ link register save eliminated.
 4059 0000 80B4     		push	{r7}
 4060              	.LCFI24:
 4061              		.cfi_def_cfa_offset 4
 4062              		.cfi_offset 7, -4
 4063 0002 00AF     		add	r7, sp, #0
 4064              	.LCFI25:
 4065              		.cfi_def_cfa_register 7
 336:C:/StellarisWare/driverlib\ELT240320TP.c **** 	ts_margin_xl = 0;
 4066              		.loc 1 336 0
 4067 0004 40F20003 		movw	r3, #:lower16:ts_margin_xl
 4068 0008 C0F20003 		movt	r3, #:upper16:ts_margin_xl
 4069 000c 4FF00002 		mov	r2, #0
 4070 0010 1A60     		str	r2, [r3, #0]
 337:C:/StellarisWare/driverlib\ELT240320TP.c **** 	ts_margin_xr = TS_SIZE_X - 1;
 4071              		.loc 1 337 0
 4072 0012 40F20003 		movw	r3, #:lower16:ts_margin_xr
 4073 0016 C0F20003 		movt	r3, #:upper16:ts_margin_xr
 4074 001a 40F23F12 		movw	r2, #319
 4075 001e 1A60     		str	r2, [r3, #0]
 338:C:/StellarisWare/driverlib\ELT240320TP.c **** 	ts_margin_yu = 0;
 4076              		.loc 1 338 0
 4077 0020 40F20003 		movw	r3, #:lower16:ts_margin_yu
 4078 0024 C0F20003 		movt	r3, #:upper16:ts_margin_yu
 4079 0028 4FF00002 		mov	r2, #0
 4080 002c 1A60     		str	r2, [r3, #0]
 339:C:/StellarisWare/driverlib\ELT240320TP.c **** 	ts_margin_yl = TS_SIZE_Y - 1;
 4081              		.loc 1 339 0
 4082 002e 40F20003 		movw	r3, #:lower16:ts_margin_yl
 4083 0032 C0F20003 		movt	r3, #:upper16:ts_margin_yl
 4084 0036 4FF0EF02 		mov	r2, #239
 4085 003a 1A60     		str	r2, [r3, #0]
 340:C:/StellarisWare/driverlib\ELT240320TP.c **** }
 4086              		.loc 1 340 0
 4087 003c BD46     		mov	sp, r7
 4088 003e 80BC     		pop	{r7}
 4089 0040 7047     		bx	lr
 4090              		.cfi_endproc
 4091              	.LFE8:
 4093 0042 00BF     		.section	.text.buf_read,"ax",%progbits
 4094              		.align	2
 4095              		.global	buf_read
 4096              		.thumb
 4097              		.thumb_func
 4099              	buf_read:
 4100              	.LFB9:
 341:C:/StellarisWare/driverlib\ELT240320TP.c **** byte buf_read(byte column,byte row)
 342:C:/StellarisWare/driverlib\ELT240320TP.c **** {
 4101              		.loc 1 342 0
 4102              		.cfi_startproc
 4103              		@ args = 0, pretend = 0, frame = 16
 4104              		@ frame_needed = 1, uses_anonymous_args = 0
 4105              		@ link register save eliminated.
 4106 0000 80B4     		push	{r7}
 4107              	.LCFI26:
 4108              		.cfi_def_cfa_offset 4
 4109              		.cfi_offset 7, -4
 4110 0002 85B0     		sub	sp, sp, #20
 4111              	.LCFI27:
 4112              		.cfi_def_cfa_offset 24
 4113 0004 00AF     		add	r7, sp, #0
 4114              	.LCFI28:
 4115              		.cfi_def_cfa_register 7
 4116 0006 0246     		mov	r2, r0
 4117 0008 0B46     		mov	r3, r1
 4118 000a FA71     		strb	r2, [r7, #7]
 4119 000c BB71     		strb	r3, [r7, #6]
 343:C:/StellarisWare/driverlib\ELT240320TP.c **** 	byte read_pixel;
 344:C:/StellarisWare/driverlib\ELT240320TP.c **** 	
 345:C:/StellarisWare/driverlib\ELT240320TP.c **** 	if (row < 8)
 4120              		.loc 1 345 0
 4121 000e BB79     		ldrb	r3, [r7, #6]	@ zero_extendqisi2
 4122 0010 072B     		cmp	r3, #7
 4123 0012 11D8     		bhi	.L69
 346:C:/StellarisWare/driverlib\ELT240320TP.c **** 	{
 347:C:/StellarisWare/driverlib\ELT240320TP.c **** 		read_pixel = (char_buf[column][0] >> (7-row)) & 0x01;
 4124              		.loc 1 347 0
 4125 0014 FA79     		ldrb	r2, [r7, #7]	@ zero_extendqisi2
 4126 0016 40F20003 		movw	r3, #:lower16:char_buf
 4127 001a C0F20003 		movt	r3, #:upper16:char_buf
 4128 001e 13F81230 		ldrb	r3, [r3, r2, lsl #1]	@ zero_extendqisi2
 4129 0022 1A46     		mov	r2, r3
 4130 0024 BB79     		ldrb	r3, [r7, #6]	@ zero_extendqisi2
 4131 0026 C3F10703 		rsb	r3, r3, #7
 4132 002a 42FA03F3 		asr	r3, r2, r3
 4133 002e DBB2     		uxtb	r3, r3
 4134 0030 03F00103 		and	r3, r3, #1
 4135 0034 FB73     		strb	r3, [r7, #15]
 4136 0036 16E0     		b	.L70
 4137              	.L69:
 348:C:/StellarisWare/driverlib\ELT240320TP.c **** 	}
 349:C:/StellarisWare/driverlib\ELT240320TP.c **** 	else
 350:C:/StellarisWare/driverlib\ELT240320TP.c **** 	{
 351:C:/StellarisWare/driverlib\ELT240320TP.c **** 		row = row - 8;
 4138              		.loc 1 351 0
 4139 0038 BB79     		ldrb	r3, [r7, #6]
 4140 003a A3F10803 		sub	r3, r3, #8
 4141 003e BB71     		strb	r3, [r7, #6]
 352:C:/StellarisWare/driverlib\ELT240320TP.c **** 		read_pixel = (char_buf[column][1] >> (7-row)) & 0x01;
 4142              		.loc 1 352 0
 4143 0040 FB79     		ldrb	r3, [r7, #7]	@ zero_extendqisi2
 4144 0042 40F20002 		movw	r2, #:lower16:char_buf
 4145 0046 C0F20002 		movt	r2, #:upper16:char_buf
 4146 004a 4FEA4303 		lsl	r3, r3, #1
 4147 004e D318     		adds	r3, r2, r3
 4148 0050 5B78     		ldrb	r3, [r3, #1]	@ zero_extendqisi2
 4149 0052 1A46     		mov	r2, r3
 4150 0054 BB79     		ldrb	r3, [r7, #6]	@ zero_extendqisi2
 4151 0056 C3F10703 		rsb	r3, r3, #7
 4152 005a 42FA03F3 		asr	r3, r2, r3
 4153 005e DBB2     		uxtb	r3, r3
 4154 0060 03F00103 		and	r3, r3, #1
 4155 0064 FB73     		strb	r3, [r7, #15]
 4156              	.L70:
 353:C:/StellarisWare/driverlib\ELT240320TP.c **** 	}
 354:C:/StellarisWare/driverlib\ELT240320TP.c **** 	return (read_pixel);
 4157              		.loc 1 354 0
 4158 0066 FB7B     		ldrb	r3, [r7, #15]	@ zero_extendqisi2
 355:C:/StellarisWare/driverlib\ELT240320TP.c **** }
 4159              		.loc 1 355 0
 4160 0068 1846     		mov	r0, r3
 4161 006a 07F11407 		add	r7, r7, #20
 4162 006e BD46     		mov	sp, r7
 4163 0070 80BC     		pop	{r7}
 4164 0072 7047     		bx	lr
 4165              		.cfi_endproc
 4166              	.LFE9:
 4168              		.section	.text.buf_store,"ax",%progbits
 4169              		.align	2
 4170              		.global	buf_store
 4171              		.thumb
 4172              		.thumb_func
 4174              	buf_store:
 4175              	.LFB10:
 356:C:/StellarisWare/driverlib\ELT240320TP.c **** 
 357:C:/StellarisWare/driverlib\ELT240320TP.c **** void buf_store(byte charactor)
 358:C:/StellarisWare/driverlib\ELT240320TP.c **** {
 4176              		.loc 1 358 0
 4177              		.cfi_startproc
 4178              		@ args = 0, pretend = 0, frame = 16
 4179              		@ frame_needed = 1, uses_anonymous_args = 0
 4180              		@ link register save eliminated.
 4181 0000 80B4     		push	{r7}
 4182              	.LCFI29:
 4183              		.cfi_def_cfa_offset 4
 4184              		.cfi_offset 7, -4
 4185 0002 85B0     		sub	sp, sp, #20
 4186              	.LCFI30:
 4187              		.cfi_def_cfa_offset 24
 4188 0004 00AF     		add	r7, sp, #0
 4189              	.LCFI31:
 4190              		.cfi_def_cfa_register 7
 4191 0006 0346     		mov	r3, r0
 4192 0008 FB71     		strb	r3, [r7, #7]
 359:C:/StellarisWare/driverlib\ELT240320TP.c **** 	byte i,j;
 360:C:/StellarisWare/driverlib\ELT240320TP.c **** 	int char_p = charactor*FONT_SIZE;	// FONT_SIZE = 16
 4193              		.loc 1 360 0
 4194 000a FB79     		ldrb	r3, [r7, #7]	@ zero_extendqisi2
 4195 000c 4FEA0313 		lsl	r3, r3, #4
 4196 0010 BB60     		str	r3, [r7, #8]
 361:C:/StellarisWare/driverlib\ELT240320TP.c **** 
 362:C:/StellarisWare/driverlib\ELT240320TP.c **** 	for (i=0; i<FONT_BIT_WIDTH; i++)
 4197              		.loc 1 362 0
 4198 0012 4FF00003 		mov	r3, #0
 4199 0016 FB73     		strb	r3, [r7, #15]
 4200 0018 24E0     		b	.L72
 4201              	.L75:
 363:C:/StellarisWare/driverlib\ELT240320TP.c **** 		for (j=0; j<FONT_BYTE_HIGHT; j++)
 4202              		.loc 1 363 0
 4203 001a 4FF00003 		mov	r3, #0
 4204 001e BB73     		strb	r3, [r7, #14]
 4205 0020 19E0     		b	.L73
 4206              	.L74:
 364:C:/StellarisWare/driverlib\ELT240320TP.c **** 		{
 365:C:/StellarisWare/driverlib\ELT240320TP.c **** 			char_buf[i][j] = font[char_p];
 4207              		.loc 1 365 0 discriminator 2
 4208 0022 F87B     		ldrb	r0, [r7, #15]	@ zero_extendqisi2
 4209 0024 B97B     		ldrb	r1, [r7, #14]	@ zero_extendqisi2
 4210 0026 40F20003 		movw	r3, #:lower16:font
 4211 002a C0F20003 		movt	r3, #:upper16:font
 4212 002e BA68     		ldr	r2, [r7, #8]
 4213 0030 9B18     		adds	r3, r3, r2
 4214 0032 1A78     		ldrb	r2, [r3, #0]	@ zero_extendqisi2
 4215 0034 40F20003 		movw	r3, #:lower16:char_buf
 4216 0038 C0F20003 		movt	r3, #:upper16:char_buf
 4217 003c 4FEA4000 		lsl	r0, r0, #1
 4218 0040 4118     		adds	r1, r0, r1
 4219 0042 5B18     		adds	r3, r3, r1
 4220 0044 1A70     		strb	r2, [r3, #0]
 366:C:/StellarisWare/driverlib\ELT240320TP.c **** 			char_p++;
 4221              		.loc 1 366 0 discriminator 2
 4222 0046 BB68     		ldr	r3, [r7, #8]
 4223 0048 03F10103 		add	r3, r3, #1
 4224 004c BB60     		str	r3, [r7, #8]
 363:C:/StellarisWare/driverlib\ELT240320TP.c **** 		for (j=0; j<FONT_BYTE_HIGHT; j++)
 4225              		.loc 1 363 0 discriminator 2
 4226 004e BB7B     		ldrb	r3, [r7, #14]
 4227 0050 03F10103 		add	r3, r3, #1
 4228 0054 BB73     		strb	r3, [r7, #14]
 4229              	.L73:
 363:C:/StellarisWare/driverlib\ELT240320TP.c **** 		for (j=0; j<FONT_BYTE_HIGHT; j++)
 4230              		.loc 1 363 0 is_stmt 0 discriminator 1
 4231 0056 BB7B     		ldrb	r3, [r7, #14]	@ zero_extendqisi2
 4232 0058 012B     		cmp	r3, #1
 4233 005a E2D9     		bls	.L74
 362:C:/StellarisWare/driverlib\ELT240320TP.c **** 	for (i=0; i<FONT_BIT_WIDTH; i++)
 4234              		.loc 1 362 0 is_stmt 1
 4235 005c FB7B     		ldrb	r3, [r7, #15]
 4236 005e 03F10103 		add	r3, r3, #1
 4237 0062 FB73     		strb	r3, [r7, #15]
 4238              	.L72:
 362:C:/StellarisWare/driverlib\ELT240320TP.c **** 	for (i=0; i<FONT_BIT_WIDTH; i++)
 4239              		.loc 1 362 0 is_stmt 0 discriminator 1
 4240 0064 FB7B     		ldrb	r3, [r7, #15]	@ zero_extendqisi2
 4241 0066 072B     		cmp	r3, #7
 4242 0068 D7D9     		bls	.L75
 367:C:/StellarisWare/driverlib\ELT240320TP.c **** 		}
 368:C:/StellarisWare/driverlib\ELT240320TP.c **** }
 4243              		.loc 1 368 0 is_stmt 1
 4244 006a 07F11407 		add	r7, r7, #20
 4245 006e BD46     		mov	sp, r7
 4246 0070 80BC     		pop	{r7}
 4247 0072 7047     		bx	lr
 4248              		.cfi_endproc
 4249              	.LFE10:
 4251              		.section	.text.TSLCDCharDisp,"ax",%progbits
 4252              		.align	2
 4253              		.global	TSLCDCharDisp
 4254              		.thumb
 4255              		.thumb_func
 4257              	TSLCDCharDisp:
 4258              	.LFB11:
 369:C:/StellarisWare/driverlib\ELT240320TP.c **** 
 370:C:/StellarisWare/driverlib\ELT240320TP.c **** void TSLCDCharDisp(char charactor,ts_pos_t sx,ts_pos_t sy,ts_mode_t mode) //low level function to p
 371:C:/StellarisWare/driverlib\ELT240320TP.c **** {
 4259              		.loc 1 371 0
 4260              		.cfi_startproc
 4261              		@ args = 0, pretend = 0, frame = 40
 4262              		@ frame_needed = 1, uses_anonymous_args = 0
 4263 0000 80B5     		push	{r7, lr}
 4264              	.LCFI32:
 4265              		.cfi_def_cfa_offset 8
 4266              		.cfi_offset 14, -4
 4267              		.cfi_offset 7, -8
 4268 0002 8AB0     		sub	sp, sp, #40
 4269              	.LCFI33:
 4270              		.cfi_def_cfa_offset 48
 4271 0004 00AF     		add	r7, sp, #0
 4272              	.LCFI34:
 4273              		.cfi_def_cfa_register 7
 4274 0006 B960     		str	r1, [r7, #8]
 4275 0008 7A60     		str	r2, [r7, #4]
 4276 000a 0246     		mov	r2, r0
 4277 000c FA73     		strb	r2, [r7, #15]
 4278 000e BB73     		strb	r3, [r7, #14]
 372:C:/StellarisWare/driverlib\ELT240320TP.c **** 	word x,y;
 373:C:/StellarisWare/driverlib\ELT240320TP.c **** 	byte i,j;
 374:C:/StellarisWare/driverlib\ELT240320TP.c **** 	ts_pos_t ex,ey;
 375:C:/StellarisWare/driverlib\ELT240320TP.c **** 	word c;
 376:C:/StellarisWare/driverlib\ELT240320TP.c **** 
 377:C:/StellarisWare/driverlib\ELT240320TP.c **** 	ex = sx + FONT_WIDTH - 1;
 4279              		.loc 1 377 0
 4280 0010 BB68     		ldr	r3, [r7, #8]
 4281 0012 03F10703 		add	r3, r3, #7
 4282 0016 3B62     		str	r3, [r7, #32]
 378:C:/StellarisWare/driverlib\ELT240320TP.c **** 	ey = sy + FONT_HEIGHT - 1;
 4283              		.loc 1 378 0
 4284 0018 7B68     		ldr	r3, [r7, #4]
 4285 001a 03F10F03 		add	r3, r3, #15
 4286 001e FB61     		str	r3, [r7, #28]
 379:C:/StellarisWare/driverlib\ELT240320TP.c **** 
 380:C:/StellarisWare/driverlib\ELT240320TP.c **** 	buf_store(charactor - 0x20);
 4287              		.loc 1 380 0
 4288 0020 FB7B     		ldrb	r3, [r7, #15]
 4289 0022 A3F12003 		sub	r3, r3, #32
 4290 0026 DBB2     		uxtb	r3, r3
 4291 0028 1846     		mov	r0, r3
 4292 002a FFF7FEFF 		bl	buf_store
 381:C:/StellarisWare/driverlib\ELT240320TP.c **** 
 382:C:/StellarisWare/driverlib\ELT240320TP.c **** 	TSLCDOutIns(TS_INS_START_ADX);
 4293              		.loc 1 382 0
 4294 002e 4FF05200 		mov	r0, #82
 4295 0032 FFF7FEFF 		bl	TSLCDOutIns
 383:C:/StellarisWare/driverlib\ELT240320TP.c **** 	TSLCDOutDat(sx);
 4296              		.loc 1 383 0
 4297 0036 BB68     		ldr	r3, [r7, #8]
 4298 0038 1846     		mov	r0, r3
 4299 003a FFF7FEFF 		bl	TSLCDOutDat
 384:C:/StellarisWare/driverlib\ELT240320TP.c **** 	TSLCDOutIns(TS_INS_END_ADX);
 4300              		.loc 1 384 0
 4301 003e 4FF05300 		mov	r0, #83
 4302 0042 FFF7FEFF 		bl	TSLCDOutIns
 385:C:/StellarisWare/driverlib\ELT240320TP.c **** 	TSLCDOutDat(ex);
 4303              		.loc 1 385 0
 4304 0046 3B6A     		ldr	r3, [r7, #32]
 4305 0048 1846     		mov	r0, r3
 4306 004a FFF7FEFF 		bl	TSLCDOutDat
 386:C:/StellarisWare/driverlib\ELT240320TP.c **** 	TSLCDOutIns(TS_INS_GRAM_ADX);
 4307              		.loc 1 386 0
 4308 004e 4FF02100 		mov	r0, #33
 4309 0052 FFF7FEFF 		bl	TSLCDOutIns
 387:C:/StellarisWare/driverlib\ELT240320TP.c **** 	TSLCDOutDat(sx);
 4310              		.loc 1 387 0
 4311 0056 BB68     		ldr	r3, [r7, #8]
 4312 0058 1846     		mov	r0, r3
 4313 005a FFF7FEFF 		bl	TSLCDOutDat
 388:C:/StellarisWare/driverlib\ELT240320TP.c **** 	x = ex - sx + 1;
 4314              		.loc 1 388 0
 4315 005e 3A6A     		ldr	r2, [r7, #32]
 4316 0060 BB68     		ldr	r3, [r7, #8]
 4317 0062 D31A     		subs	r3, r2, r3
 4318 0064 03F10103 		add	r3, r3, #1
 4319 0068 BB61     		str	r3, [r7, #24]
 389:C:/StellarisWare/driverlib\ELT240320TP.c **** 
 390:C:/StellarisWare/driverlib\ELT240320TP.c **** #ifndef TS_ORN_PORTRAIT
 391:C:/StellarisWare/driverlib\ELT240320TP.c **** 	sy = TS_SIZE_Y - 1 - sy; 	// mirror start y address
 4320              		.loc 1 391 0
 4321 006a 7B68     		ldr	r3, [r7, #4]
 4322 006c C3F1EF03 		rsb	r3, r3, #239
 4323 0070 7B60     		str	r3, [r7, #4]
 392:C:/StellarisWare/driverlib\ELT240320TP.c **** 	ey = TS_SIZE_Y - 1 - ey; 	// mirror end y address
 4324              		.loc 1 392 0
 4325 0072 FB69     		ldr	r3, [r7, #28]
 4326 0074 C3F1EF03 		rsb	r3, r3, #239
 4327 0078 FB61     		str	r3, [r7, #28]
 393:C:/StellarisWare/driverlib\ELT240320TP.c **** 	TSLCDOutIns(TS_INS_START_ADY);
 4328              		.loc 1 393 0
 4329 007a 4FF05000 		mov	r0, #80
 4330 007e FFF7FEFF 		bl	TSLCDOutIns
 394:C:/StellarisWare/driverlib\ELT240320TP.c **** 	TSLCDOutDat(ey);
 4331              		.loc 1 394 0
 4332 0082 FB69     		ldr	r3, [r7, #28]
 4333 0084 1846     		mov	r0, r3
 4334 0086 FFF7FEFF 		bl	TSLCDOutDat
 395:C:/StellarisWare/driverlib\ELT240320TP.c **** 	TSLCDOutIns(TS_INS_END_ADY);
 4335              		.loc 1 395 0
 4336 008a 4FF05100 		mov	r0, #81
 4337 008e FFF7FEFF 		bl	TSLCDOutIns
 396:C:/StellarisWare/driverlib\ELT240320TP.c **** 	TSLCDOutDat(sy);
 4338              		.loc 1 396 0
 4339 0092 7B68     		ldr	r3, [r7, #4]
 4340 0094 1846     		mov	r0, r3
 4341 0096 FFF7FEFF 		bl	TSLCDOutDat
 397:C:/StellarisWare/driverlib\ELT240320TP.c **** 	TSLCDOutIns(TS_INS_GRAM_ADY);
 4342              		.loc 1 397 0
 4343 009a 4FF02000 		mov	r0, #32
 4344 009e FFF7FEFF 		bl	TSLCDOutIns
 398:C:/StellarisWare/driverlib\ELT240320TP.c **** 	TSLCDOutDat(sy);//fix from bug of v1_00
 4345              		.loc 1 398 0
 4346 00a2 7B68     		ldr	r3, [r7, #4]
 4347 00a4 1846     		mov	r0, r3
 4348 00a6 FFF7FEFF 		bl	TSLCDOutDat
 399:C:/StellarisWare/driverlib\ELT240320TP.c **** 	y = sy - ey + 1;
 4349              		.loc 1 399 0
 4350 00aa 7A68     		ldr	r2, [r7, #4]
 4351 00ac FB69     		ldr	r3, [r7, #28]
 4352 00ae D31A     		subs	r3, r2, r3
 4353 00b0 03F10103 		add	r3, r3, #1
 4354 00b4 7B61     		str	r3, [r7, #20]
 400:C:/StellarisWare/driverlib\ELT240320TP.c **** #else
 401:C:/StellarisWare/driverlib\ELT240320TP.c **** 	TSLCDOutIns(TS_INS_START_ADY);
 402:C:/StellarisWare/driverlib\ELT240320TP.c **** 	TSLCDOutDat(sy);
 403:C:/StellarisWare/driverlib\ELT240320TP.c **** 	TSLCDOutIns(TS_INS_END_ADY);
 404:C:/StellarisWare/driverlib\ELT240320TP.c **** 	TSLCDOutDat(ey);
 405:C:/StellarisWare/driverlib\ELT240320TP.c **** 	TSLCDOutIns(TS_INS_GRAM_ADY);
 406:C:/StellarisWare/driverlib\ELT240320TP.c **** 	TSLCDOutDat(sy);
 407:C:/StellarisWare/driverlib\ELT240320TP.c **** 	y = ey - sy + 1;
 408:C:/StellarisWare/driverlib\ELT240320TP.c **** #endif
 409:C:/StellarisWare/driverlib\ELT240320TP.c **** 
 410:C:/StellarisWare/driverlib\ELT240320TP.c **** 	TSLCDOutIns(TS_INS_RW_GRAM);
 4355              		.loc 1 410 0
 4356 00b6 4FF02200 		mov	r0, #34
 4357 00ba FFF7FEFF 		bl	TSLCDOutIns
 411:C:/StellarisWare/driverlib\ELT240320TP.c **** 
 412:C:/StellarisWare/driverlib\ELT240320TP.c **** 	if (mode == TS_MODE_NORMAL)
 4358              		.loc 1 412 0
 4359 00be BB7B     		ldrb	r3, [r7, #14]	@ zero_extendqisi2
 4360 00c0 002B     		cmp	r3, #0
 4361 00c2 41D1     		bne	.L77
 413:C:/StellarisWare/driverlib\ELT240320TP.c **** 	{
 414:C:/StellarisWare/driverlib\ELT240320TP.c **** 		for (j=0; j<y; j++)
 4362              		.loc 1 414 0
 4363 00c4 4FF00003 		mov	r3, #0
 4364 00c8 87F82630 		strb	r3, [r7, #38]
 4365 00cc 36E0     		b	.L78
 4366              	.L83:
 415:C:/StellarisWare/driverlib\ELT240320TP.c **** 			for (i=0; i<x; i++)
 4367              		.loc 1 415 0
 4368 00ce 4FF00003 		mov	r3, #0
 4369 00d2 87F82730 		strb	r3, [r7, #39]
 4370 00d6 26E0     		b	.L79
 4371              	.L82:
 416:C:/StellarisWare/driverlib\ELT240320TP.c **** 			{
 417:C:/StellarisWare/driverlib\ELT240320TP.c **** 				delay(100);
 4372              		.loc 1 417 0
 4373 00d8 4FF06400 		mov	r0, #100
 4374 00dc FFF7FEFF 		bl	delay
 418:C:/StellarisWare/driverlib\ELT240320TP.c **** 				if (buf_read(i,j))
 4375              		.loc 1 418 0
 4376 00e0 97F82720 		ldrb	r2, [r7, #39]	@ zero_extendqisi2
 4377 00e4 97F82630 		ldrb	r3, [r7, #38]	@ zero_extendqisi2
 4378 00e8 1046     		mov	r0, r2
 4379 00ea 1946     		mov	r1, r3
 4380 00ec FFF7FEFF 		bl	buf_read
 4381 00f0 0346     		mov	r3, r0
 4382 00f2 002B     		cmp	r3, #0
 4383 00f4 08D0     		beq	.L80
 419:C:/StellarisWare/driverlib\ELT240320TP.c **** 				{
 420:C:/StellarisWare/driverlib\ELT240320TP.c **** 					TSLCDOutDat(font_color);
 4384              		.loc 1 420 0
 4385 00f6 40F20003 		movw	r3, #:lower16:font_color
 4386 00fa C0F20003 		movt	r3, #:upper16:font_color
 4387 00fe 1B68     		ldr	r3, [r3, #0]
 4388 0100 1846     		mov	r0, r3
 4389 0102 FFF7FEFF 		bl	TSLCDOutDat
 4390 0106 08E0     		b	.L81
 4391              	.L80:
 421:C:/StellarisWare/driverlib\ELT240320TP.c **** 				}
 422:C:/StellarisWare/driverlib\ELT240320TP.c **** 				else
 423:C:/StellarisWare/driverlib\ELT240320TP.c **** 				{
 424:C:/StellarisWare/driverlib\ELT240320TP.c **** 					c = TSLCDInDat(); 		// ignore invalid data
 4392              		.loc 1 424 0
 4393 0108 FFF7FEFF 		bl	TSLCDInDat
 4394 010c 3861     		str	r0, [r7, #16]
 425:C:/StellarisWare/driverlib\ELT240320TP.c **** 					c = TSLCDInDat();
 4395              		.loc 1 425 0
 4396 010e FFF7FEFF 		bl	TSLCDInDat
 4397 0112 3861     		str	r0, [r7, #16]
 426:C:/StellarisWare/driverlib\ELT240320TP.c **** 					TSLCDOutDat(c);
 4398              		.loc 1 426 0
 4399 0114 3869     		ldr	r0, [r7, #16]
 4400 0116 FFF7FEFF 		bl	TSLCDOutDat
 4401              	.L81:
 415:C:/StellarisWare/driverlib\ELT240320TP.c **** 			for (i=0; i<x; i++)
 4402              		.loc 1 415 0
 4403 011a 97F82730 		ldrb	r3, [r7, #39]
 4404 011e 03F10103 		add	r3, r3, #1
 4405 0122 87F82730 		strb	r3, [r7, #39]
 4406              	.L79:
 415:C:/StellarisWare/driverlib\ELT240320TP.c **** 			for (i=0; i<x; i++)
 4407              		.loc 1 415 0 is_stmt 0 discriminator 1
 4408 0126 97F82720 		ldrb	r2, [r7, #39]	@ zero_extendqisi2
 4409 012a BB69     		ldr	r3, [r7, #24]
 4410 012c 9A42     		cmp	r2, r3
 4411 012e D3D3     		bcc	.L82
 414:C:/StellarisWare/driverlib\ELT240320TP.c **** 		for (j=0; j<y; j++)
 4412              		.loc 1 414 0 is_stmt 1
 4413 0130 97F82630 		ldrb	r3, [r7, #38]
 4414 0134 03F10103 		add	r3, r3, #1
 4415 0138 87F82630 		strb	r3, [r7, #38]
 4416              	.L78:
 414:C:/StellarisWare/driverlib\ELT240320TP.c **** 		for (j=0; j<y; j++)
 4417              		.loc 1 414 0 is_stmt 0 discriminator 1
 4418 013c 97F82620 		ldrb	r2, [r7, #38]	@ zero_extendqisi2
 4419 0140 7B69     		ldr	r3, [r7, #20]
 4420 0142 9A42     		cmp	r2, r3
 4421 0144 C3D3     		bcc	.L83
 414:C:/StellarisWare/driverlib\ELT240320TP.c **** 		for (j=0; j<y; j++)
 4422              		.loc 1 414 0
 4423 0146 7DE0     		b	.L76
 4424              	.L77:
 427:C:/StellarisWare/driverlib\ELT240320TP.c **** 				}
 428:C:/StellarisWare/driverlib\ELT240320TP.c **** 			}
 429:C:/StellarisWare/driverlib\ELT240320TP.c **** 	}
 430:C:/StellarisWare/driverlib\ELT240320TP.c **** 	else
 431:C:/StellarisWare/driverlib\ELT240320TP.c **** 	if (mode == TS_MODE_INVERSE)
 4425              		.loc 1 431 0 is_stmt 1
 4426 0148 BB7B     		ldrb	r3, [r7, #14]	@ zero_extendqisi2
 4427 014a 012B     		cmp	r3, #1
 4428 014c 3BD1     		bne	.L85
 432:C:/StellarisWare/driverlib\ELT240320TP.c **** 	{
 433:C:/StellarisWare/driverlib\ELT240320TP.c **** 		for (j=0; j<y; j++)
 4429              		.loc 1 433 0
 4430 014e 4FF00003 		mov	r3, #0
 4431 0152 87F82630 		strb	r3, [r7, #38]
 4432 0156 30E0     		b	.L86
 4433              	.L91:
 434:C:/StellarisWare/driverlib\ELT240320TP.c **** 			for (i=0; i<x; i++)
 4434              		.loc 1 434 0
 4435 0158 4FF00003 		mov	r3, #0
 4436 015c 87F82730 		strb	r3, [r7, #39]
 4437 0160 20E0     		b	.L87
 4438              	.L90:
 435:C:/StellarisWare/driverlib\ELT240320TP.c **** 			{
 436:C:/StellarisWare/driverlib\ELT240320TP.c **** 				c = TSLCDInDat(); 			// ignore invalid data
 4439              		.loc 1 436 0
 4440 0162 FFF7FEFF 		bl	TSLCDInDat
 4441 0166 3861     		str	r0, [r7, #16]
 437:C:/StellarisWare/driverlib\ELT240320TP.c **** 				c = TSLCDInDat();
 4442              		.loc 1 437 0
 4443 0168 FFF7FEFF 		bl	TSLCDInDat
 4444 016c 3861     		str	r0, [r7, #16]
 438:C:/StellarisWare/driverlib\ELT240320TP.c **** 				if (buf_read(i,j))
 4445              		.loc 1 438 0
 4446 016e 97F82720 		ldrb	r2, [r7, #39]	@ zero_extendqisi2
 4447 0172 97F82630 		ldrb	r3, [r7, #38]	@ zero_extendqisi2
 4448 0176 1046     		mov	r0, r2
 4449 0178 1946     		mov	r1, r3
 4450 017a FFF7FEFF 		bl	buf_read
 4451 017e 0346     		mov	r3, r0
 4452 0180 002B     		cmp	r3, #0
 4453 0182 06D0     		beq	.L88
 439:C:/StellarisWare/driverlib\ELT240320TP.c **** 				{
 440:C:/StellarisWare/driverlib\ELT240320TP.c **** 					TSLCDOutDat(~c);
 4454              		.loc 1 440 0
 4455 0184 3B69     		ldr	r3, [r7, #16]
 4456 0186 6FEA0303 		mvn	r3, r3
 4457 018a 1846     		mov	r0, r3
 4458 018c FFF7FEFF 		bl	TSLCDOutDat
 4459 0190 02E0     		b	.L89
 4460              	.L88:
 441:C:/StellarisWare/driverlib\ELT240320TP.c **** 				}
 442:C:/StellarisWare/driverlib\ELT240320TP.c **** 				else
 443:C:/StellarisWare/driverlib\ELT240320TP.c **** 				{
 444:C:/StellarisWare/driverlib\ELT240320TP.c **** 					TSLCDOutDat(c);
 4461              		.loc 1 444 0
 4462 0192 3869     		ldr	r0, [r7, #16]
 4463 0194 FFF7FEFF 		bl	TSLCDOutDat
 4464              	.L89:
 434:C:/StellarisWare/driverlib\ELT240320TP.c **** 			for (i=0; i<x; i++)
 4465              		.loc 1 434 0
 4466 0198 97F82730 		ldrb	r3, [r7, #39]
 4467 019c 03F10103 		add	r3, r3, #1
 4468 01a0 87F82730 		strb	r3, [r7, #39]
 4469              	.L87:
 434:C:/StellarisWare/driverlib\ELT240320TP.c **** 			for (i=0; i<x; i++)
 4470              		.loc 1 434 0 is_stmt 0 discriminator 1
 4471 01a4 97F82720 		ldrb	r2, [r7, #39]	@ zero_extendqisi2
 4472 01a8 BB69     		ldr	r3, [r7, #24]
 4473 01aa 9A42     		cmp	r2, r3
 4474 01ac D9D3     		bcc	.L90
 433:C:/StellarisWare/driverlib\ELT240320TP.c **** 		for (j=0; j<y; j++)
 4475              		.loc 1 433 0 is_stmt 1
 4476 01ae 97F82630 		ldrb	r3, [r7, #38]
 4477 01b2 03F10103 		add	r3, r3, #1
 4478 01b6 87F82630 		strb	r3, [r7, #38]
 4479              	.L86:
 433:C:/StellarisWare/driverlib\ELT240320TP.c **** 		for (j=0; j<y; j++)
 4480              		.loc 1 433 0 is_stmt 0 discriminator 1
 4481 01ba 97F82620 		ldrb	r2, [r7, #38]	@ zero_extendqisi2
 4482 01be 7B69     		ldr	r3, [r7, #20]
 4483 01c0 9A42     		cmp	r2, r3
 4484 01c2 C9D3     		bcc	.L91
 433:C:/StellarisWare/driverlib\ELT240320TP.c **** 		for (j=0; j<y; j++)
 4485              		.loc 1 433 0
 4486 01c4 3EE0     		b	.L76
 4487              	.L85:
 445:C:/StellarisWare/driverlib\ELT240320TP.c **** 				}
 446:C:/StellarisWare/driverlib\ELT240320TP.c **** 			}
 447:C:/StellarisWare/driverlib\ELT240320TP.c **** 	}
 448:C:/StellarisWare/driverlib\ELT240320TP.c **** 	else
 449:C:/StellarisWare/driverlib\ELT240320TP.c **** 	if (mode == TS_MODE_FULL)
 4488              		.loc 1 449 0 is_stmt 1
 4489 01c6 BB7B     		ldrb	r3, [r7, #14]	@ zero_extendqisi2
 4490 01c8 022B     		cmp	r3, #2
 4491 01ca 3BD1     		bne	.L76
 450:C:/StellarisWare/driverlib\ELT240320TP.c **** 	{
 451:C:/StellarisWare/driverlib\ELT240320TP.c **** 		for (j=0; j<y; j++)
 4492              		.loc 1 451 0
 4493 01cc 4FF00003 		mov	r3, #0
 4494 01d0 87F82630 		strb	r3, [r7, #38]
 4495 01d4 31E0     		b	.L92
 4496              	.L97:
 452:C:/StellarisWare/driverlib\ELT240320TP.c **** 			for (i=0; i<x; i++)
 4497              		.loc 1 452 0
 4498 01d6 4FF00003 		mov	r3, #0
 4499 01da 87F82730 		strb	r3, [r7, #39]
 4500 01de 21E0     		b	.L93
 4501              	.L96:
 453:C:/StellarisWare/driverlib\ELT240320TP.c **** 			{
 454:C:/StellarisWare/driverlib\ELT240320TP.c **** 				if (buf_read(i,j))
 4502              		.loc 1 454 0
 4503 01e0 97F82720 		ldrb	r2, [r7, #39]	@ zero_extendqisi2
 4504 01e4 97F82630 		ldrb	r3, [r7, #38]	@ zero_extendqisi2
 4505 01e8 1046     		mov	r0, r2
 4506 01ea 1946     		mov	r1, r3
 4507 01ec FFF7FEFF 		bl	buf_read
 4508 01f0 0346     		mov	r3, r0
 4509 01f2 002B     		cmp	r3, #0
 4510 01f4 08D0     		beq	.L94
 455:C:/StellarisWare/driverlib\ELT240320TP.c **** 				{
 456:C:/StellarisWare/driverlib\ELT240320TP.c **** 					TSLCDOutDat(font_color);
 4511              		.loc 1 456 0
 4512 01f6 40F20003 		movw	r3, #:lower16:font_color
 4513 01fa C0F20003 		movt	r3, #:upper16:font_color
 4514 01fe 1B68     		ldr	r3, [r3, #0]
 4515 0200 1846     		mov	r0, r3
 4516 0202 FFF7FEFF 		bl	TSLCDOutDat
 4517 0206 07E0     		b	.L95
 4518              	.L94:
 457:C:/StellarisWare/driverlib\ELT240320TP.c **** 				}
 458:C:/StellarisWare/driverlib\ELT240320TP.c **** 				else
 459:C:/StellarisWare/driverlib\ELT240320TP.c **** 				{
 460:C:/StellarisWare/driverlib\ELT240320TP.c **** 					TSLCDOutDat(back_color);
 4519              		.loc 1 460 0
 4520 0208 40F20003 		movw	r3, #:lower16:back_color
 4521 020c C0F20003 		movt	r3, #:upper16:back_color
 4522 0210 1B68     		ldr	r3, [r3, #0]
 4523 0212 1846     		mov	r0, r3
 4524 0214 FFF7FEFF 		bl	TSLCDOutDat
 4525              	.L95:
 452:C:/StellarisWare/driverlib\ELT240320TP.c **** 			for (i=0; i<x; i++)
 4526              		.loc 1 452 0
 4527 0218 97F82730 		ldrb	r3, [r7, #39]
 4528 021c 03F10103 		add	r3, r3, #1
 4529 0220 87F82730 		strb	r3, [r7, #39]
 4530              	.L93:
 452:C:/StellarisWare/driverlib\ELT240320TP.c **** 			for (i=0; i<x; i++)
 4531              		.loc 1 452 0 is_stmt 0 discriminator 1
 4532 0224 97F82720 		ldrb	r2, [r7, #39]	@ zero_extendqisi2
 4533 0228 BB69     		ldr	r3, [r7, #24]
 4534 022a 9A42     		cmp	r2, r3
 4535 022c D8D3     		bcc	.L96
 451:C:/StellarisWare/driverlib\ELT240320TP.c **** 		for (j=0; j<y; j++)
 4536              		.loc 1 451 0 is_stmt 1
 4537 022e 97F82630 		ldrb	r3, [r7, #38]
 4538 0232 03F10103 		add	r3, r3, #1
 4539 0236 87F82630 		strb	r3, [r7, #38]
 4540              	.L92:
 451:C:/StellarisWare/driverlib\ELT240320TP.c **** 		for (j=0; j<y; j++)
 4541              		.loc 1 451 0 is_stmt 0 discriminator 1
 4542 023a 97F82620 		ldrb	r2, [r7, #38]	@ zero_extendqisi2
 4543 023e 7B69     		ldr	r3, [r7, #20]
 4544 0240 9A42     		cmp	r2, r3
 4545 0242 C8D3     		bcc	.L97
 4546              	.L76:
 461:C:/StellarisWare/driverlib\ELT240320TP.c **** 				}
 462:C:/StellarisWare/driverlib\ELT240320TP.c **** 			}
 463:C:/StellarisWare/driverlib\ELT240320TP.c **** 	}
 464:C:/StellarisWare/driverlib\ELT240320TP.c **** }
 4547              		.loc 1 464 0 is_stmt 1
 4548 0244 07F12807 		add	r7, r7, #40
 4549 0248 BD46     		mov	sp, r7
 4550 024a 80BD     		pop	{r7, pc}
 4551              		.cfi_endproc
 4552              	.LFE11:
 4554              		.section	.text.TSLCDOutDat,"ax",%progbits
 4555              		.align	2
 4556              		.global	TSLCDOutDat
 4557              		.thumb
 4558              		.thumb_func
 4560              	TSLCDOutDat:
 4561              	.LFB12:
 465:C:/StellarisWare/driverlib\ELT240320TP.c **** 
 466:C:/StellarisWare/driverlib\ELT240320TP.c **** void TSLCDOutDat(word dat)
 467:C:/StellarisWare/driverlib\ELT240320TP.c **** {
 4562              		.loc 1 467 0
 4563              		.cfi_startproc
 4564              		@ args = 0, pretend = 0, frame = 8
 4565              		@ frame_needed = 1, uses_anonymous_args = 0
 4566              		@ link register save eliminated.
 4567 0000 80B4     		push	{r7}
 4568              	.LCFI35:
 4569              		.cfi_def_cfa_offset 4
 4570              		.cfi_offset 7, -4
 4571 0002 83B0     		sub	sp, sp, #12
 4572              	.LCFI36:
 4573              		.cfi_def_cfa_offset 16
 4574 0004 00AF     		add	r7, sp, #0
 4575              	.LCFI37:
 4576              		.cfi_def_cfa_register 7
 4577 0006 7860     		str	r0, [r7, #4]
 468:C:/StellarisWare/driverlib\ELT240320TP.c **** 
 469:C:/StellarisWare/driverlib\ELT240320TP.c **** 	setBitRS;		//Set bit RS for data;
 4578              		.loc 1 469 0
 4579 0008 44F2FC33 		movw	r3, #17404
 4580 000c C4F20003 		movt	r3, 16384
 4581 0010 44F2FC32 		movw	r2, #17404
 4582 0014 C4F20002 		movt	r2, 16384
 4583 0018 1268     		ldr	r2, [r2, #0]
 4584 001a 42F02002 		orr	r2, r2, #32
 4585 001e 1A60     		str	r2, [r3, #0]
 470:C:/StellarisWare/driverlib\ELT240320TP.c **** 	setBitRD;		//Read Disable
 4586              		.loc 1 470 0
 4587 0020 44F2FC33 		movw	r3, #17404
 4588 0024 C4F20003 		movt	r3, 16384
 4589 0028 44F2FC32 		movw	r2, #17404
 4590 002c C4F20002 		movt	r2, 16384
 4591 0030 1268     		ldr	r2, [r2, #0]
 4592 0032 42F00402 		orr	r2, r2, #4
 4593 0036 1A60     		str	r2, [r3, #0]
 471:C:/StellarisWare/driverlib\ELT240320TP.c **** 	clrBitWR;		//Write Enable
 4594              		.loc 1 471 0
 4595 0038 44F2FC33 		movw	r3, #17404
 4596 003c C4F20003 		movt	r3, 16384
 4597 0040 44F2FC32 		movw	r2, #17404
 4598 0044 C4F20002 		movt	r2, 16384
 4599 0048 1268     		ldr	r2, [r2, #0]
 4600 004a 22F01002 		bic	r2, r2, #16
 4601 004e 1A60     		str	r2, [r3, #0]
 472:C:/StellarisWare/driverlib\ELT240320TP.c **** 	
 473:C:/StellarisWare/driverlib\ELT240320TP.c **** 	
 474:C:/StellarisWare/driverlib\ELT240320TP.c **** 	LCD_T_Data = 0xFFFF;	//Set TRIS Data to output
 4602              		.loc 1 474 0
 4603 0050 4FF4A843 		mov	r3, #21504
 4604 0054 C4F20003 		movt	r3, 16384
 4605 0058 4FF6FF72 		movw	r2, #65535
 4606 005c 1A60     		str	r2, [r3, #0]
 475:C:/StellarisWare/driverlib\ELT240320TP.c **** 
 476:C:/StellarisWare/driverlib\ELT240320TP.c **** 	LCD_W_Data = dat>>8;	//write data high byte
 4607              		.loc 1 476 0
 4608 005e 45F2FC33 		movw	r3, #21500
 4609 0062 C4F20003 		movt	r3, 16384
 4610 0066 7A68     		ldr	r2, [r7, #4]
 4611 0068 4FEA1222 		lsr	r2, r2, #8
 4612 006c 1A60     		str	r2, [r3, #0]
 477:C:/StellarisWare/driverlib\ELT240320TP.c **** 	clrBitCS;
 4613              		.loc 1 477 0
 4614 006e 44F2FC33 		movw	r3, #17404
 4615 0072 C4F20003 		movt	r3, 16384
 4616 0076 44F2FC32 		movw	r2, #17404
 4617 007a C4F20002 		movt	r2, 16384
 4618 007e 1268     		ldr	r2, [r2, #0]
 4619 0080 22F00802 		bic	r2, r2, #8
 4620 0084 1A60     		str	r2, [r3, #0]
 478:C:/StellarisWare/driverlib\ELT240320TP.c **** 	setBitCS;
 4621              		.loc 1 478 0
 4622 0086 44F2FC33 		movw	r3, #17404
 4623 008a C4F20003 		movt	r3, 16384
 4624 008e 44F2FC32 		movw	r2, #17404
 4625 0092 C4F20002 		movt	r2, 16384
 4626 0096 1268     		ldr	r2, [r2, #0]
 4627 0098 42F00802 		orr	r2, r2, #8
 4628 009c 1A60     		str	r2, [r3, #0]
 479:C:/StellarisWare/driverlib\ELT240320TP.c **** 
 480:C:/StellarisWare/driverlib\ELT240320TP.c **** 	
 481:C:/StellarisWare/driverlib\ELT240320TP.c **** 	LCD_W_Data = dat;		//write data low byte
 4629              		.loc 1 481 0
 4630 009e 45F2FC33 		movw	r3, #21500
 4631 00a2 C4F20003 		movt	r3, 16384
 4632 00a6 7A68     		ldr	r2, [r7, #4]
 4633 00a8 1A60     		str	r2, [r3, #0]
 482:C:/StellarisWare/driverlib\ELT240320TP.c **** 	clrBitCS;
 4634              		.loc 1 482 0
 4635 00aa 44F2FC33 		movw	r3, #17404
 4636 00ae C4F20003 		movt	r3, 16384
 4637 00b2 44F2FC32 		movw	r2, #17404
 4638 00b6 C4F20002 		movt	r2, 16384
 4639 00ba 1268     		ldr	r2, [r2, #0]
 4640 00bc 22F00802 		bic	r2, r2, #8
 4641 00c0 1A60     		str	r2, [r3, #0]
 483:C:/StellarisWare/driverlib\ELT240320TP.c **** 	setBitCS;
 4642              		.loc 1 483 0
 4643 00c2 44F2FC33 		movw	r3, #17404
 4644 00c6 C4F20003 		movt	r3, 16384
 4645 00ca 44F2FC32 		movw	r2, #17404
 4646 00ce C4F20002 		movt	r2, 16384
 4647 00d2 1268     		ldr	r2, [r2, #0]
 4648 00d4 42F00802 		orr	r2, r2, #8
 4649 00d8 1A60     		str	r2, [r3, #0]
 484:C:/StellarisWare/driverlib\ELT240320TP.c **** 
 485:C:/StellarisWare/driverlib\ELT240320TP.c **** 	setBitWR;
 4650              		.loc 1 485 0
 4651 00da 44F2FC33 		movw	r3, #17404
 4652 00de C4F20003 		movt	r3, 16384
 4653 00e2 44F2FC32 		movw	r2, #17404
 4654 00e6 C4F20002 		movt	r2, 16384
 4655 00ea 1268     		ldr	r2, [r2, #0]
 4656 00ec 42F01002 		orr	r2, r2, #16
 4657 00f0 1A60     		str	r2, [r3, #0]
 486:C:/StellarisWare/driverlib\ELT240320TP.c **** 
 487:C:/StellarisWare/driverlib\ELT240320TP.c **** 	LCD_T_Data = 0x0000;	//Set TRIS Data to input
 4658              		.loc 1 487 0
 4659 00f2 4FF4A843 		mov	r3, #21504
 4660 00f6 C4F20003 		movt	r3, 16384
 4661 00fa 4FF00002 		mov	r2, #0
 4662 00fe 1A60     		str	r2, [r3, #0]
 488:C:/StellarisWare/driverlib\ELT240320TP.c **** }
 4663              		.loc 1 488 0
 4664 0100 07F10C07 		add	r7, r7, #12
 4665 0104 BD46     		mov	sp, r7
 4666 0106 80BC     		pop	{r7}
 4667 0108 7047     		bx	lr
 4668              		.cfi_endproc
 4669              	.LFE12:
 4671 010a 00BF     		.section	.text.TSLCDOutDat2,"ax",%progbits
 4672              		.align	2
 4673              		.global	TSLCDOutDat2
 4674              		.thumb
 4675              		.thumb_func
 4677              	TSLCDOutDat2:
 4678              	.LFB13:
 489:C:/StellarisWare/driverlib\ELT240320TP.c **** 
 490:C:/StellarisWare/driverlib\ELT240320TP.c **** void TSLCDOutDat2(byte dath,byte datl)
 491:C:/StellarisWare/driverlib\ELT240320TP.c **** {
 4679              		.loc 1 491 0
 4680              		.cfi_startproc
 4681              		@ args = 0, pretend = 0, frame = 8
 4682              		@ frame_needed = 1, uses_anonymous_args = 0
 4683              		@ link register save eliminated.
 4684 0000 80B4     		push	{r7}
 4685              	.LCFI38:
 4686              		.cfi_def_cfa_offset 4
 4687              		.cfi_offset 7, -4
 4688 0002 83B0     		sub	sp, sp, #12
 4689              	.LCFI39:
 4690              		.cfi_def_cfa_offset 16
 4691 0004 00AF     		add	r7, sp, #0
 4692              	.LCFI40:
 4693              		.cfi_def_cfa_register 7
 4694 0006 0246     		mov	r2, r0
 4695 0008 0B46     		mov	r3, r1
 4696 000a FA71     		strb	r2, [r7, #7]
 4697 000c BB71     		strb	r3, [r7, #6]
 492:C:/StellarisWare/driverlib\ELT240320TP.c **** 	setBitRS;	//Set bit RS for data;
 4698              		.loc 1 492 0
 4699 000e 44F2FC33 		movw	r3, #17404
 4700 0012 C4F20003 		movt	r3, 16384
 4701 0016 44F2FC32 		movw	r2, #17404
 4702 001a C4F20002 		movt	r2, 16384
 4703 001e 1268     		ldr	r2, [r2, #0]
 4704 0020 42F02002 		orr	r2, r2, #32
 4705 0024 1A60     		str	r2, [r3, #0]
 493:C:/StellarisWare/driverlib\ELT240320TP.c **** 	setBitRD;	//Read Disable
 4706              		.loc 1 493 0
 4707 0026 44F2FC33 		movw	r3, #17404
 4708 002a C4F20003 		movt	r3, 16384
 4709 002e 44F2FC32 		movw	r2, #17404
 4710 0032 C4F20002 		movt	r2, 16384
 4711 0036 1268     		ldr	r2, [r2, #0]
 4712 0038 42F00402 		orr	r2, r2, #4
 4713 003c 1A60     		str	r2, [r3, #0]
 494:C:/StellarisWare/driverlib\ELT240320TP.c **** 	clrBitWR;	//Write Enable
 4714              		.loc 1 494 0
 4715 003e 44F2FC33 		movw	r3, #17404
 4716 0042 C4F20003 		movt	r3, 16384
 4717 0046 44F2FC32 		movw	r2, #17404
 4718 004a C4F20002 		movt	r2, 16384
 4719 004e 1268     		ldr	r2, [r2, #0]
 4720 0050 22F01002 		bic	r2, r2, #16
 4721 0054 1A60     		str	r2, [r3, #0]
 495:C:/StellarisWare/driverlib\ELT240320TP.c **** 	
 496:C:/StellarisWare/driverlib\ELT240320TP.c **** 	LCD_T_Data = 0xFFFF;	//Set TRIS Data to output
 4722              		.loc 1 496 0
 4723 0056 4FF4A843 		mov	r3, #21504
 4724 005a C4F20003 		movt	r3, 16384
 4725 005e 4FF6FF72 		movw	r2, #65535
 4726 0062 1A60     		str	r2, [r3, #0]
 497:C:/StellarisWare/driverlib\ELT240320TP.c **** 
 498:C:/StellarisWare/driverlib\ELT240320TP.c **** 
 499:C:/StellarisWare/driverlib\ELT240320TP.c **** 	LCD_W_Data = dath;	//write data high byte
 4727              		.loc 1 499 0
 4728 0064 45F2FC33 		movw	r3, #21500
 4729 0068 C4F20003 		movt	r3, 16384
 4730 006c FA79     		ldrb	r2, [r7, #7]	@ zero_extendqisi2
 4731 006e 1A60     		str	r2, [r3, #0]
 500:C:/StellarisWare/driverlib\ELT240320TP.c **** 	clrBitCS;
 4732              		.loc 1 500 0
 4733 0070 44F2FC33 		movw	r3, #17404
 4734 0074 C4F20003 		movt	r3, 16384
 4735 0078 44F2FC32 		movw	r2, #17404
 4736 007c C4F20002 		movt	r2, 16384
 4737 0080 1268     		ldr	r2, [r2, #0]
 4738 0082 22F00802 		bic	r2, r2, #8
 4739 0086 1A60     		str	r2, [r3, #0]
 501:C:/StellarisWare/driverlib\ELT240320TP.c **** 	setBitCS;
 4740              		.loc 1 501 0
 4741 0088 44F2FC33 		movw	r3, #17404
 4742 008c C4F20003 		movt	r3, 16384
 4743 0090 44F2FC32 		movw	r2, #17404
 4744 0094 C4F20002 		movt	r2, 16384
 4745 0098 1268     		ldr	r2, [r2, #0]
 4746 009a 42F00802 		orr	r2, r2, #8
 4747 009e 1A60     		str	r2, [r3, #0]
 502:C:/StellarisWare/driverlib\ELT240320TP.c **** 
 503:C:/StellarisWare/driverlib\ELT240320TP.c **** 
 504:C:/StellarisWare/driverlib\ELT240320TP.c **** 	LCD_W_Data = datl;	//write data low byte
 4748              		.loc 1 504 0
 4749 00a0 45F2FC33 		movw	r3, #21500
 4750 00a4 C4F20003 		movt	r3, 16384
 4751 00a8 BA79     		ldrb	r2, [r7, #6]	@ zero_extendqisi2
 4752 00aa 1A60     		str	r2, [r3, #0]
 505:C:/StellarisWare/driverlib\ELT240320TP.c **** 	clrBitCS;
 4753              		.loc 1 505 0
 4754 00ac 44F2FC33 		movw	r3, #17404
 4755 00b0 C4F20003 		movt	r3, 16384
 4756 00b4 44F2FC32 		movw	r2, #17404
 4757 00b8 C4F20002 		movt	r2, 16384
 4758 00bc 1268     		ldr	r2, [r2, #0]
 4759 00be 22F00802 		bic	r2, r2, #8
 4760 00c2 1A60     		str	r2, [r3, #0]
 506:C:/StellarisWare/driverlib\ELT240320TP.c **** 	setBitCS;
 4761              		.loc 1 506 0
 4762 00c4 44F2FC33 		movw	r3, #17404
 4763 00c8 C4F20003 		movt	r3, 16384
 4764 00cc 44F2FC32 		movw	r2, #17404
 4765 00d0 C4F20002 		movt	r2, 16384
 4766 00d4 1268     		ldr	r2, [r2, #0]
 4767 00d6 42F00802 		orr	r2, r2, #8
 4768 00da 1A60     		str	r2, [r3, #0]
 507:C:/StellarisWare/driverlib\ELT240320TP.c **** 
 508:C:/StellarisWare/driverlib\ELT240320TP.c **** 	setBitWR;
 4769              		.loc 1 508 0
 4770 00dc 44F2FC33 		movw	r3, #17404
 4771 00e0 C4F20003 		movt	r3, 16384
 4772 00e4 44F2FC32 		movw	r2, #17404
 4773 00e8 C4F20002 		movt	r2, 16384
 4774 00ec 1268     		ldr	r2, [r2, #0]
 4775 00ee 42F01002 		orr	r2, r2, #16
 4776 00f2 1A60     		str	r2, [r3, #0]
 509:C:/StellarisWare/driverlib\ELT240320TP.c **** 
 510:C:/StellarisWare/driverlib\ELT240320TP.c **** 	LCD_T_Data = 0x0000;		//Set TRIS Data to input
 4777              		.loc 1 510 0
 4778 00f4 4FF4A843 		mov	r3, #21504
 4779 00f8 C4F20003 		movt	r3, 16384
 4780 00fc 4FF00002 		mov	r2, #0
 4781 0100 1A60     		str	r2, [r3, #0]
 511:C:/StellarisWare/driverlib\ELT240320TP.c **** }
 4782              		.loc 1 511 0
 4783 0102 07F10C07 		add	r7, r7, #12
 4784 0106 BD46     		mov	sp, r7
 4785 0108 80BC     		pop	{r7}
 4786 010a 7047     		bx	lr
 4787              		.cfi_endproc
 4788              	.LFE13:
 4790              		.section	.text.TSLCDOutIns,"ax",%progbits
 4791              		.align	2
 4792              		.global	TSLCDOutIns
 4793              		.thumb
 4794              		.thumb_func
 4796              	TSLCDOutIns:
 4797              	.LFB14:
 512:C:/StellarisWare/driverlib\ELT240320TP.c **** 
 513:C:/StellarisWare/driverlib\ELT240320TP.c **** void TSLCDOutIns(word ins)
 514:C:/StellarisWare/driverlib\ELT240320TP.c **** {
 4798              		.loc 1 514 0
 4799              		.cfi_startproc
 4800              		@ args = 0, pretend = 0, frame = 8
 4801              		@ frame_needed = 1, uses_anonymous_args = 0
 4802              		@ link register save eliminated.
 4803 0000 80B4     		push	{r7}
 4804              	.LCFI41:
 4805              		.cfi_def_cfa_offset 4
 4806              		.cfi_offset 7, -4
 4807 0002 83B0     		sub	sp, sp, #12
 4808              	.LCFI42:
 4809              		.cfi_def_cfa_offset 16
 4810 0004 00AF     		add	r7, sp, #0
 4811              	.LCFI43:
 4812              		.cfi_def_cfa_register 7
 4813 0006 7860     		str	r0, [r7, #4]
 515:C:/StellarisWare/driverlib\ELT240320TP.c **** 	
 516:C:/StellarisWare/driverlib\ELT240320TP.c **** 	clrBitRS;				//clear bit RS instruction
 4814              		.loc 1 516 0
 4815 0008 44F2FC33 		movw	r3, #17404
 4816 000c C4F20003 		movt	r3, 16384
 4817 0010 44F2FC32 		movw	r2, #17404
 4818 0014 C4F20002 		movt	r2, 16384
 4819 0018 1268     		ldr	r2, [r2, #0]
 4820 001a 22F02002 		bic	r2, r2, #32
 4821 001e 1A60     		str	r2, [r3, #0]
 517:C:/StellarisWare/driverlib\ELT240320TP.c **** 	setBitRD;				//Read Disable
 4822              		.loc 1 517 0
 4823 0020 44F2FC33 		movw	r3, #17404
 4824 0024 C4F20003 		movt	r3, 16384
 4825 0028 44F2FC32 		movw	r2, #17404
 4826 002c C4F20002 		movt	r2, 16384
 4827 0030 1268     		ldr	r2, [r2, #0]
 4828 0032 42F00402 		orr	r2, r2, #4
 4829 0036 1A60     		str	r2, [r3, #0]
 518:C:/StellarisWare/driverlib\ELT240320TP.c **** 	clrBitWR;				//write enable
 4830              		.loc 1 518 0
 4831 0038 44F2FC33 		movw	r3, #17404
 4832 003c C4F20003 		movt	r3, 16384
 4833 0040 44F2FC32 		movw	r2, #17404
 4834 0044 C4F20002 		movt	r2, 16384
 4835 0048 1268     		ldr	r2, [r2, #0]
 4836 004a 22F01002 		bic	r2, r2, #16
 4837 004e 1A60     		str	r2, [r3, #0]
 519:C:/StellarisWare/driverlib\ELT240320TP.c **** 
 520:C:/StellarisWare/driverlib\ELT240320TP.c **** 	LCD_T_Data = 0xFFFF;	//TRIS Data output
 4838              		.loc 1 520 0
 4839 0050 4FF4A843 		mov	r3, #21504
 4840 0054 C4F20003 		movt	r3, 16384
 4841 0058 4FF6FF72 		movw	r2, #65535
 4842 005c 1A60     		str	r2, [r3, #0]
 521:C:/StellarisWare/driverlib\ELT240320TP.c **** 	
 522:C:/StellarisWare/driverlib\ELT240320TP.c **** 	LCD_W_Data = ins >> 8;	//write high byte
 4843              		.loc 1 522 0
 4844 005e 45F2FC33 		movw	r3, #21500
 4845 0062 C4F20003 		movt	r3, 16384
 4846 0066 7A68     		ldr	r2, [r7, #4]
 4847 0068 4FEA1222 		lsr	r2, r2, #8
 4848 006c 1A60     		str	r2, [r3, #0]
 523:C:/StellarisWare/driverlib\ELT240320TP.c **** 	clrBitCS;
 4849              		.loc 1 523 0
 4850 006e 44F2FC33 		movw	r3, #17404
 4851 0072 C4F20003 		movt	r3, 16384
 4852 0076 44F2FC32 		movw	r2, #17404
 4853 007a C4F20002 		movt	r2, 16384
 4854 007e 1268     		ldr	r2, [r2, #0]
 4855 0080 22F00802 		bic	r2, r2, #8
 4856 0084 1A60     		str	r2, [r3, #0]
 524:C:/StellarisWare/driverlib\ELT240320TP.c **** 	setBitCS;
 4857              		.loc 1 524 0
 4858 0086 44F2FC33 		movw	r3, #17404
 4859 008a C4F20003 		movt	r3, 16384
 4860 008e 44F2FC32 		movw	r2, #17404
 4861 0092 C4F20002 		movt	r2, 16384
 4862 0096 1268     		ldr	r2, [r2, #0]
 4863 0098 42F00802 		orr	r2, r2, #8
 4864 009c 1A60     		str	r2, [r3, #0]
 525:C:/StellarisWare/driverlib\ELT240320TP.c **** 
 526:C:/StellarisWare/driverlib\ELT240320TP.c **** 	LCD_W_Data = ins;		//write low byte
 4865              		.loc 1 526 0
 4866 009e 45F2FC33 		movw	r3, #21500
 4867 00a2 C4F20003 		movt	r3, 16384
 4868 00a6 7A68     		ldr	r2, [r7, #4]
 4869 00a8 1A60     		str	r2, [r3, #0]
 527:C:/StellarisWare/driverlib\ELT240320TP.c **** 	clrBitCS;
 4870              		.loc 1 527 0
 4871 00aa 44F2FC33 		movw	r3, #17404
 4872 00ae C4F20003 		movt	r3, 16384
 4873 00b2 44F2FC32 		movw	r2, #17404
 4874 00b6 C4F20002 		movt	r2, 16384
 4875 00ba 1268     		ldr	r2, [r2, #0]
 4876 00bc 22F00802 		bic	r2, r2, #8
 4877 00c0 1A60     		str	r2, [r3, #0]
 528:C:/StellarisWare/driverlib\ELT240320TP.c **** 	setBitCS;
 4878              		.loc 1 528 0
 4879 00c2 44F2FC33 		movw	r3, #17404
 4880 00c6 C4F20003 		movt	r3, 16384
 4881 00ca 44F2FC32 		movw	r2, #17404
 4882 00ce C4F20002 		movt	r2, 16384
 4883 00d2 1268     		ldr	r2, [r2, #0]
 4884 00d4 42F00802 		orr	r2, r2, #8
 4885 00d8 1A60     		str	r2, [r3, #0]
 529:C:/StellarisWare/driverlib\ELT240320TP.c **** 
 530:C:/StellarisWare/driverlib\ELT240320TP.c **** 	setBitWR;				//write disble
 4886              		.loc 1 530 0
 4887 00da 44F2FC33 		movw	r3, #17404
 4888 00de C4F20003 		movt	r3, 16384
 4889 00e2 44F2FC32 		movw	r2, #17404
 4890 00e6 C4F20002 		movt	r2, 16384
 4891 00ea 1268     		ldr	r2, [r2, #0]
 4892 00ec 42F01002 		orr	r2, r2, #16
 4893 00f0 1A60     		str	r2, [r3, #0]
 531:C:/StellarisWare/driverlib\ELT240320TP.c **** 
 532:C:/StellarisWare/driverlib\ELT240320TP.c **** 	LCD_T_Data = 0x0000;	//Set TRIS Data to input
 4894              		.loc 1 532 0
 4895 00f2 4FF4A843 		mov	r3, #21504
 4896 00f6 C4F20003 		movt	r3, 16384
 4897 00fa 4FF00002 		mov	r2, #0
 4898 00fe 1A60     		str	r2, [r3, #0]
 533:C:/StellarisWare/driverlib\ELT240320TP.c **** 	
 534:C:/StellarisWare/driverlib\ELT240320TP.c **** }
 4899              		.loc 1 534 0
 4900 0100 07F10C07 		add	r7, r7, #12
 4901 0104 BD46     		mov	sp, r7
 4902 0106 80BC     		pop	{r7}
 4903 0108 7047     		bx	lr
 4904              		.cfi_endproc
 4905              	.LFE14:
 4907 010a 00BF     		.section	.text.TSLCDInDat,"ax",%progbits
 4908              		.align	2
 4909              		.global	TSLCDInDat
 4910              		.thumb
 4911              		.thumb_func
 4913              	TSLCDInDat:
 4914              	.LFB15:
 535:C:/StellarisWare/driverlib\ELT240320TP.c **** 
 536:C:/StellarisWare/driverlib\ELT240320TP.c **** word TSLCDInDat()
 537:C:/StellarisWare/driverlib\ELT240320TP.c **** {
 4915              		.loc 1 537 0
 4916              		.cfi_startproc
 4917              		@ args = 0, pretend = 0, frame = 8
 4918              		@ frame_needed = 1, uses_anonymous_args = 0
 4919              		@ link register save eliminated.
 4920 0000 80B4     		push	{r7}
 4921              	.LCFI44:
 4922              		.cfi_def_cfa_offset 4
 4923              		.cfi_offset 7, -4
 4924 0002 83B0     		sub	sp, sp, #12
 4925              	.LCFI45:
 4926              		.cfi_def_cfa_offset 16
 4927 0004 00AF     		add	r7, sp, #0
 4928              	.LCFI46:
 4929              		.cfi_def_cfa_register 7
 538:C:/StellarisWare/driverlib\ELT240320TP.c **** 	word dat = 0;
 4930              		.loc 1 538 0
 4931 0006 4FF00003 		mov	r3, #0
 4932 000a 7B60     		str	r3, [r7, #4]
 539:C:/StellarisWare/driverlib\ELT240320TP.c **** 	LCD_T_Data = 0x0000;	//set TRIS Data to input
 4933              		.loc 1 539 0
 4934 000c 4FF4A843 		mov	r3, #21504
 4935 0010 C4F20003 		movt	r3, 16384
 4936 0014 4FF00002 		mov	r2, #0
 4937 0018 1A60     		str	r2, [r3, #0]
 540:C:/StellarisWare/driverlib\ELT240320TP.c **** 	setBitRS;				//set bit RS read data
 4938              		.loc 1 540 0
 4939 001a 44F2FC33 		movw	r3, #17404
 4940 001e C4F20003 		movt	r3, 16384
 4941 0022 44F2FC32 		movw	r2, #17404
 4942 0026 C4F20002 		movt	r2, 16384
 4943 002a 1268     		ldr	r2, [r2, #0]
 4944 002c 42F02002 		orr	r2, r2, #32
 4945 0030 1A60     		str	r2, [r3, #0]
 541:C:/StellarisWare/driverlib\ELT240320TP.c **** 	setBitWR;				//write diasble
 4946              		.loc 1 541 0
 4947 0032 44F2FC33 		movw	r3, #17404
 4948 0036 C4F20003 		movt	r3, 16384
 4949 003a 44F2FC32 		movw	r2, #17404
 4950 003e C4F20002 		movt	r2, 16384
 4951 0042 1268     		ldr	r2, [r2, #0]
 4952 0044 42F01002 		orr	r2, r2, #16
 4953 0048 1A60     		str	r2, [r3, #0]
 542:C:/StellarisWare/driverlib\ELT240320TP.c **** 	clrBitRD;				//read enable
 4954              		.loc 1 542 0
 4955 004a 44F2FC33 		movw	r3, #17404
 4956 004e C4F20003 		movt	r3, 16384
 4957 0052 44F2FC32 		movw	r2, #17404
 4958 0056 C4F20002 		movt	r2, 16384
 4959 005a 1268     		ldr	r2, [r2, #0]
 4960 005c 22F00402 		bic	r2, r2, #4
 4961 0060 1A60     		str	r2, [r3, #0]
 543:C:/StellarisWare/driverlib\ELT240320TP.c **** 	
 544:C:/StellarisWare/driverlib\ELT240320TP.c **** 	clrBitCS;clrBitCS;
 4962              		.loc 1 544 0
 4963 0062 44F2FC33 		movw	r3, #17404
 4964 0066 C4F20003 		movt	r3, 16384
 4965 006a 44F2FC32 		movw	r2, #17404
 4966 006e C4F20002 		movt	r2, 16384
 4967 0072 1268     		ldr	r2, [r2, #0]
 4968 0074 22F00802 		bic	r2, r2, #8
 4969 0078 1A60     		str	r2, [r3, #0]
 4970 007a 44F2FC33 		movw	r3, #17404
 4971 007e C4F20003 		movt	r3, 16384
 4972 0082 44F2FC32 		movw	r2, #17404
 4973 0086 C4F20002 		movt	r2, 16384
 4974 008a 1268     		ldr	r2, [r2, #0]
 4975 008c 22F00802 		bic	r2, r2, #8
 4976 0090 1A60     		str	r2, [r3, #0]
 545:C:/StellarisWare/driverlib\ELT240320TP.c **** 	dat = LCD_R_Data;		//read high byte
 4977              		.loc 1 545 0
 4978 0092 45F2FC33 		movw	r3, #21500
 4979 0096 C4F20003 		movt	r3, 16384
 4980 009a 1B68     		ldr	r3, [r3, #0]
 4981 009c 7B60     		str	r3, [r7, #4]
 546:C:/StellarisWare/driverlib\ELT240320TP.c **** 	setBitCS;			
 4982              		.loc 1 546 0
 4983 009e 44F2FC33 		movw	r3, #17404
 4984 00a2 C4F20003 		movt	r3, 16384
 4985 00a6 44F2FC32 		movw	r2, #17404
 4986 00aa C4F20002 		movt	r2, 16384
 4987 00ae 1268     		ldr	r2, [r2, #0]
 4988 00b0 42F00802 		orr	r2, r2, #8
 4989 00b4 1A60     		str	r2, [r3, #0]
 547:C:/StellarisWare/driverlib\ELT240320TP.c **** 
 548:C:/StellarisWare/driverlib\ELT240320TP.c **** 	dat = dat<<8;
 4990              		.loc 1 548 0
 4991 00b6 7B68     		ldr	r3, [r7, #4]
 4992 00b8 4FEA0323 		lsl	r3, r3, #8
 4993 00bc 7B60     		str	r3, [r7, #4]
 549:C:/StellarisWare/driverlib\ELT240320TP.c **** 
 550:C:/StellarisWare/driverlib\ELT240320TP.c **** 	clrBitCS;clrBitCS;
 4994              		.loc 1 550 0
 4995 00be 44F2FC33 		movw	r3, #17404
 4996 00c2 C4F20003 		movt	r3, 16384
 4997 00c6 44F2FC32 		movw	r2, #17404
 4998 00ca C4F20002 		movt	r2, 16384
 4999 00ce 1268     		ldr	r2, [r2, #0]
 5000 00d0 22F00802 		bic	r2, r2, #8
 5001 00d4 1A60     		str	r2, [r3, #0]
 5002 00d6 44F2FC33 		movw	r3, #17404
 5003 00da C4F20003 		movt	r3, 16384
 5004 00de 44F2FC32 		movw	r2, #17404
 5005 00e2 C4F20002 		movt	r2, 16384
 5006 00e6 1268     		ldr	r2, [r2, #0]
 5007 00e8 22F00802 		bic	r2, r2, #8
 5008 00ec 1A60     		str	r2, [r3, #0]
 551:C:/StellarisWare/driverlib\ELT240320TP.c **** 	dat = dat | LCD_R_Data;	//read low byte
 5009              		.loc 1 551 0
 5010 00ee 45F2FC33 		movw	r3, #21500
 5011 00f2 C4F20003 		movt	r3, 16384
 5012 00f6 1B68     		ldr	r3, [r3, #0]
 5013 00f8 7A68     		ldr	r2, [r7, #4]
 5014 00fa 1343     		orrs	r3, r3, r2
 5015 00fc 7B60     		str	r3, [r7, #4]
 552:C:/StellarisWare/driverlib\ELT240320TP.c **** 	setBitCS;
 5016              		.loc 1 552 0
 5017 00fe 44F2FC33 		movw	r3, #17404
 5018 0102 C4F20003 		movt	r3, 16384
 5019 0106 44F2FC32 		movw	r2, #17404
 5020 010a C4F20002 		movt	r2, 16384
 5021 010e 1268     		ldr	r2, [r2, #0]
 5022 0110 42F00802 		orr	r2, r2, #8
 5023 0114 1A60     		str	r2, [r3, #0]
 553:C:/StellarisWare/driverlib\ELT240320TP.c **** 
 554:C:/StellarisWare/driverlib\ELT240320TP.c **** 	setBitRD;
 5024              		.loc 1 554 0
 5025 0116 44F2FC33 		movw	r3, #17404
 5026 011a C4F20003 		movt	r3, 16384
 5027 011e 44F2FC32 		movw	r2, #17404
 5028 0122 C4F20002 		movt	r2, 16384
 5029 0126 1268     		ldr	r2, [r2, #0]
 5030 0128 42F00402 		orr	r2, r2, #4
 5031 012c 1A60     		str	r2, [r3, #0]
 555:C:/StellarisWare/driverlib\ELT240320TP.c **** 
 556:C:/StellarisWare/driverlib\ELT240320TP.c **** 	return dat;
 5032              		.loc 1 556 0
 5033 012e 7B68     		ldr	r3, [r7, #4]
 557:C:/StellarisWare/driverlib\ELT240320TP.c **** }
 5034              		.loc 1 557 0
 5035 0130 1846     		mov	r0, r3
 5036 0132 07F10C07 		add	r7, r7, #12
 5037 0136 BD46     		mov	sp, r7
 5038 0138 80BC     		pop	{r7}
 5039 013a 7047     		bx	lr
 5040              		.cfi_endproc
 5041              	.LFE15:
 5043              		.section	.text.TSLCDInIns,"ax",%progbits
 5044              		.align	2
 5045              		.global	TSLCDInIns
 5046              		.thumb
 5047              		.thumb_func
 5049              	TSLCDInIns:
 5050              	.LFB16:
 558:C:/StellarisWare/driverlib\ELT240320TP.c **** 
 559:C:/StellarisWare/driverlib\ELT240320TP.c **** word TSLCDInIns()
 560:C:/StellarisWare/driverlib\ELT240320TP.c **** {
 5051              		.loc 1 560 0
 5052              		.cfi_startproc
 5053              		@ args = 0, pretend = 0, frame = 8
 5054              		@ frame_needed = 1, uses_anonymous_args = 0
 5055              		@ link register save eliminated.
 5056 0000 80B4     		push	{r7}
 5057              	.LCFI47:
 5058              		.cfi_def_cfa_offset 4
 5059              		.cfi_offset 7, -4
 5060 0002 83B0     		sub	sp, sp, #12
 5061              	.LCFI48:
 5062              		.cfi_def_cfa_offset 16
 5063 0004 00AF     		add	r7, sp, #0
 5064              	.LCFI49:
 5065              		.cfi_def_cfa_register 7
 561:C:/StellarisWare/driverlib\ELT240320TP.c **** 	word ins = 0;
 5066              		.loc 1 561 0
 5067 0006 4FF00003 		mov	r3, #0
 5068 000a 7B60     		str	r3, [r7, #4]
 562:C:/StellarisWare/driverlib\ELT240320TP.c **** 	LCD_T_Data = 0x0000;	//set TRIS Data to input
 5069              		.loc 1 562 0
 5070 000c 4FF4A843 		mov	r3, #21504
 5071 0010 C4F20003 		movt	r3, 16384
 5072 0014 4FF00002 		mov	r2, #0
 5073 0018 1A60     		str	r2, [r3, #0]
 563:C:/StellarisWare/driverlib\ELT240320TP.c **** 	clrBitRS;				//clear bit RS read instruction
 5074              		.loc 1 563 0
 5075 001a 44F2FC33 		movw	r3, #17404
 5076 001e C4F20003 		movt	r3, 16384
 5077 0022 44F2FC32 		movw	r2, #17404
 5078 0026 C4F20002 		movt	r2, 16384
 5079 002a 1268     		ldr	r2, [r2, #0]
 5080 002c 22F02002 		bic	r2, r2, #32
 5081 0030 1A60     		str	r2, [r3, #0]
 564:C:/StellarisWare/driverlib\ELT240320TP.c **** 	setBitWR;				//write diasble
 5082              		.loc 1 564 0
 5083 0032 44F2FC33 		movw	r3, #17404
 5084 0036 C4F20003 		movt	r3, 16384
 5085 003a 44F2FC32 		movw	r2, #17404
 5086 003e C4F20002 		movt	r2, 16384
 5087 0042 1268     		ldr	r2, [r2, #0]
 5088 0044 42F01002 		orr	r2, r2, #16
 5089 0048 1A60     		str	r2, [r3, #0]
 565:C:/StellarisWare/driverlib\ELT240320TP.c **** 	clrBitRD;				//read enable
 5090              		.loc 1 565 0
 5091 004a 44F2FC33 		movw	r3, #17404
 5092 004e C4F20003 		movt	r3, 16384
 5093 0052 44F2FC32 		movw	r2, #17404
 5094 0056 C4F20002 		movt	r2, 16384
 5095 005a 1268     		ldr	r2, [r2, #0]
 5096 005c 22F00402 		bic	r2, r2, #4
 5097 0060 1A60     		str	r2, [r3, #0]
 566:C:/StellarisWare/driverlib\ELT240320TP.c **** 	
 567:C:/StellarisWare/driverlib\ELT240320TP.c **** 	clrBitCS;clrBitCS;
 5098              		.loc 1 567 0
 5099 0062 44F2FC33 		movw	r3, #17404
 5100 0066 C4F20003 		movt	r3, 16384
 5101 006a 44F2FC32 		movw	r2, #17404
 5102 006e C4F20002 		movt	r2, 16384
 5103 0072 1268     		ldr	r2, [r2, #0]
 5104 0074 22F00802 		bic	r2, r2, #8
 5105 0078 1A60     		str	r2, [r3, #0]
 5106 007a 44F2FC33 		movw	r3, #17404
 5107 007e C4F20003 		movt	r3, 16384
 5108 0082 44F2FC32 		movw	r2, #17404
 5109 0086 C4F20002 		movt	r2, 16384
 5110 008a 1268     		ldr	r2, [r2, #0]
 5111 008c 22F00802 		bic	r2, r2, #8
 5112 0090 1A60     		str	r2, [r3, #0]
 568:C:/StellarisWare/driverlib\ELT240320TP.c **** 	ins = LCD_R_Data;		//read high byte
 5113              		.loc 1 568 0
 5114 0092 45F2FC33 		movw	r3, #21500
 5115 0096 C4F20003 		movt	r3, 16384
 5116 009a 1B68     		ldr	r3, [r3, #0]
 5117 009c 7B60     		str	r3, [r7, #4]
 569:C:/StellarisWare/driverlib\ELT240320TP.c **** 	setBitCS;
 5118              		.loc 1 569 0
 5119 009e 44F2FC33 		movw	r3, #17404
 5120 00a2 C4F20003 		movt	r3, 16384
 5121 00a6 44F2FC32 		movw	r2, #17404
 5122 00aa C4F20002 		movt	r2, 16384
 5123 00ae 1268     		ldr	r2, [r2, #0]
 5124 00b0 42F00802 		orr	r2, r2, #8
 5125 00b4 1A60     		str	r2, [r3, #0]
 570:C:/StellarisWare/driverlib\ELT240320TP.c **** 
 571:C:/StellarisWare/driverlib\ELT240320TP.c **** 	ins = ins<<8;
 5126              		.loc 1 571 0
 5127 00b6 7B68     		ldr	r3, [r7, #4]
 5128 00b8 4FEA0323 		lsl	r3, r3, #8
 5129 00bc 7B60     		str	r3, [r7, #4]
 572:C:/StellarisWare/driverlib\ELT240320TP.c **** 
 573:C:/StellarisWare/driverlib\ELT240320TP.c **** 	clrBitCS;clrBitCS;
 5130              		.loc 1 573 0
 5131 00be 44F2FC33 		movw	r3, #17404
 5132 00c2 C4F20003 		movt	r3, 16384
 5133 00c6 44F2FC32 		movw	r2, #17404
 5134 00ca C4F20002 		movt	r2, 16384
 5135 00ce 1268     		ldr	r2, [r2, #0]
 5136 00d0 22F00802 		bic	r2, r2, #8
 5137 00d4 1A60     		str	r2, [r3, #0]
 5138 00d6 44F2FC33 		movw	r3, #17404
 5139 00da C4F20003 		movt	r3, 16384
 5140 00de 44F2FC32 		movw	r2, #17404
 5141 00e2 C4F20002 		movt	r2, 16384
 5142 00e6 1268     		ldr	r2, [r2, #0]
 5143 00e8 22F00802 		bic	r2, r2, #8
 5144 00ec 1A60     		str	r2, [r3, #0]
 574:C:/StellarisWare/driverlib\ELT240320TP.c **** 	ins = ins | LCD_R_Data;	//read low byte
 5145              		.loc 1 574 0
 5146 00ee 45F2FC33 		movw	r3, #21500
 5147 00f2 C4F20003 		movt	r3, 16384
 5148 00f6 1B68     		ldr	r3, [r3, #0]
 5149 00f8 7A68     		ldr	r2, [r7, #4]
 5150 00fa 1343     		orrs	r3, r3, r2
 5151 00fc 7B60     		str	r3, [r7, #4]
 575:C:/StellarisWare/driverlib\ELT240320TP.c **** 	setBitCS;
 5152              		.loc 1 575 0
 5153 00fe 44F2FC33 		movw	r3, #17404
 5154 0102 C4F20003 		movt	r3, 16384
 5155 0106 44F2FC32 		movw	r2, #17404
 5156 010a C4F20002 		movt	r2, 16384
 5157 010e 1268     		ldr	r2, [r2, #0]
 5158 0110 42F00802 		orr	r2, r2, #8
 5159 0114 1A60     		str	r2, [r3, #0]
 576:C:/StellarisWare/driverlib\ELT240320TP.c **** 	
 577:C:/StellarisWare/driverlib\ELT240320TP.c **** 	setBitRD;
 5160              		.loc 1 577 0
 5161 0116 44F2FC33 		movw	r3, #17404
 5162 011a C4F20003 		movt	r3, 16384
 5163 011e 44F2FC32 		movw	r2, #17404
 5164 0122 C4F20002 		movt	r2, 16384
 5165 0126 1268     		ldr	r2, [r2, #0]
 5166 0128 42F00402 		orr	r2, r2, #4
 5167 012c 1A60     		str	r2, [r3, #0]
 578:C:/StellarisWare/driverlib\ELT240320TP.c **** 
 579:C:/StellarisWare/driverlib\ELT240320TP.c **** 	return ins;
 5168              		.loc 1 579 0
 5169 012e 7B68     		ldr	r3, [r7, #4]
 580:C:/StellarisWare/driverlib\ELT240320TP.c **** }
 5170              		.loc 1 580 0
 5171 0130 1846     		mov	r0, r3
 5172 0132 07F10C07 		add	r7, r7, #12
 5173 0136 BD46     		mov	sp, r7
 5174 0138 80BC     		pop	{r7}
 5175 013a 7047     		bx	lr
 5176              		.cfi_endproc
 5177              	.LFE16:
 5179              		.section	.text.TSLCDRst,"ax",%progbits
 5180              		.align	2
 5181              		.global	TSLCDRst
 5182              		.thumb
 5183              		.thumb_func
 5185              	TSLCDRst:
 5186              	.LFB17:
 581:C:/StellarisWare/driverlib\ELT240320TP.c **** //--------------------------------------------------------------------
 582:C:/StellarisWare/driverlib\ELT240320TP.c **** //	Reset LCD
 583:C:/StellarisWare/driverlib\ELT240320TP.c **** //--------------------------------------------------------------------
 584:C:/StellarisWare/driverlib\ELT240320TP.c **** void TSLCDRst()
 585:C:/StellarisWare/driverlib\ELT240320TP.c **** {
 5187              		.loc 1 585 0
 5188              		.cfi_startproc
 5189              		@ args = 0, pretend = 0, frame = 0
 5190              		@ frame_needed = 1, uses_anonymous_args = 0
 5191 0000 80B5     		push	{r7, lr}
 5192              	.LCFI50:
 5193              		.cfi_def_cfa_offset 8
 5194              		.cfi_offset 14, -4
 5195              		.cfi_offset 7, -8
 5196 0002 00AF     		add	r7, sp, #0
 5197              	.LCFI51:
 5198              		.cfi_def_cfa_register 7
 586:C:/StellarisWare/driverlib\ELT240320TP.c **** 	clrBitRST;
 5199              		.loc 1 586 0
 5200 0004 47F2FC33 		movw	r3, #29692
 5201 0008 C4F20003 		movt	r3, 16384
 5202 000c 47F2FC32 		movw	r2, #29692
 5203 0010 C4F20002 		movt	r2, 16384
 5204 0014 1268     		ldr	r2, [r2, #0]
 5205 0016 22F00102 		bic	r2, r2, #1
 5206 001a 1A60     		str	r2, [r3, #0]
 587:C:/StellarisWare/driverlib\ELT240320TP.c **** 	delay(5000);
 5207              		.loc 1 587 0
 5208 001c 41F28830 		movw	r0, #5000
 5209 0020 FFF7FEFF 		bl	delay
 588:C:/StellarisWare/driverlib\ELT240320TP.c **** 	setBitRST;	
 5210              		.loc 1 588 0
 5211 0024 47F2FC33 		movw	r3, #29692
 5212 0028 C4F20003 		movt	r3, 16384
 5213 002c 47F2FC32 		movw	r2, #29692
 5214 0030 C4F20002 		movt	r2, 16384
 5215 0034 1268     		ldr	r2, [r2, #0]
 5216 0036 42F00102 		orr	r2, r2, #1
 5217 003a 1A60     		str	r2, [r3, #0]
 589:C:/StellarisWare/driverlib\ELT240320TP.c **** }
 5218              		.loc 1 589 0
 5219 003c 80BD     		pop	{r7, pc}
 5220              		.cfi_endproc
 5221              	.LFE17:
 5223 003e 00BF     		.section	.text.TSLCDInit,"ax",%progbits
 5224              		.align	2
 5225              		.global	TSLCDInit
 5226              		.thumb
 5227              		.thumb_func
 5229              	TSLCDInit:
 5230              	.LFB18:
 590:C:/StellarisWare/driverlib\ELT240320TP.c **** //--------------------------------------------------------------------
 591:C:/StellarisWare/driverlib\ELT240320TP.c **** //	Initial LCD
 592:C:/StellarisWare/driverlib\ELT240320TP.c **** //--------------------------------------------------------------------
 593:C:/StellarisWare/driverlib\ELT240320TP.c **** void TSLCDInit()
 594:C:/StellarisWare/driverlib\ELT240320TP.c **** {
 5231              		.loc 1 594 0
 5232              		.cfi_startproc
 5233              		@ args = 0, pretend = 0, frame = 0
 5234              		@ frame_needed = 1, uses_anonymous_args = 0
 5235 0000 80B5     		push	{r7, lr}
 5236              	.LCFI52:
 5237              		.cfi_def_cfa_offset 8
 5238              		.cfi_offset 14, -4
 5239              		.cfi_offset 7, -8
 5240 0002 00AF     		add	r7, sp, #0
 5241              	.LCFI53:
 5242              		.cfi_def_cfa_register 7
 595:C:/StellarisWare/driverlib\ELT240320TP.c **** 	delay(1000);
 5243              		.loc 1 595 0
 5244 0004 4FF47A70 		mov	r0, #1000
 5245 0008 FFF7FEFF 		bl	delay
 596:C:/StellarisWare/driverlib\ELT240320TP.c **** 	TSLCDOutIns(0x00E5);
 5246              		.loc 1 596 0
 5247 000c 4FF0E500 		mov	r0, #229
 5248 0010 FFF7FEFF 		bl	TSLCDOutIns
 597:C:/StellarisWare/driverlib\ELT240320TP.c **** 	TSLCDOutDat(0x8000); 					//set the internal vcore voltage
 5249              		.loc 1 597 0
 5250 0014 4FF40040 		mov	r0, #32768
 5251 0018 FFF7FEFF 		bl	TSLCDOutDat
 598:C:/StellarisWare/driverlib\ELT240320TP.c **** 	TSLCDOutIns(TS_INS_START_OSC);
 5252              		.loc 1 598 0
 5253 001c 4FF00000 		mov	r0, #0
 5254 0020 FFF7FEFF 		bl	TSLCDOutIns
 599:C:/StellarisWare/driverlib\ELT240320TP.c **** 	TSLCDOutDat(0x0001); 					//start oscillator 	
 5255              		.loc 1 599 0
 5256 0024 4FF00100 		mov	r0, #1
 5257 0028 FFF7FEFF 		bl	TSLCDOutDat
 600:C:/StellarisWare/driverlib\ELT240320TP.c **** 	delay(5000);
 5258              		.loc 1 600 0
 5259 002c 41F28830 		movw	r0, #5000
 5260 0030 FFF7FEFF 		bl	delay
 601:C:/StellarisWare/driverlib\ELT240320TP.c **** 
 602:C:/StellarisWare/driverlib\ELT240320TP.c **** 	TSLCDOutIns(TS_INS_DRIV_OUT_CTRL);
 5261              		.loc 1 602 0
 5262 0034 4FF00100 		mov	r0, #1
 5263 0038 FFF7FEFF 		bl	TSLCDOutIns
 603:C:/StellarisWare/driverlib\ELT240320TP.c **** 	TSLCDOutDat(0x0000); 					//set SS, SM
 5264              		.loc 1 603 0
 5265 003c 4FF00000 		mov	r0, #0
 5266 0040 FFF7FEFF 		bl	TSLCDOutDat
 604:C:/StellarisWare/driverlib\ELT240320TP.c **** 	TSLCDOutIns(TS_INS_DRIV_WAV_CTRL);
 5267              		.loc 1 604 0
 5268 0044 4FF00200 		mov	r0, #2
 5269 0048 FFF7FEFF 		bl	TSLCDOutIns
 605:C:/StellarisWare/driverlib\ELT240320TP.c **** 	TSLCDOutDat(0x0700); 					//set 1 line inversion
 5270              		.loc 1 605 0
 5271 004c 4FF4E060 		mov	r0, #1792
 5272 0050 FFF7FEFF 		bl	TSLCDOutDat
 606:C:/StellarisWare/driverlib\ELT240320TP.c **** 
 607:C:/StellarisWare/driverlib\ELT240320TP.c **** 	TSLCDOutIns(TS_INS_ENTRY_MOD);
 5273              		.loc 1 607 0
 5274 0054 4FF00300 		mov	r0, #3
 5275 0058 FFF7FEFF 		bl	TSLCDOutIns
 608:C:/StellarisWare/driverlib\ELT240320TP.c **** 	TSLCDOutDat(TS_VAL_ENTRY_MOD);			//set GRAM write direction, BGR=0
 5276              		.loc 1 608 0
 5277 005c 4FF02800 		mov	r0, #40
 5278 0060 FFF7FEFF 		bl	TSLCDOutDat
 609:C:/StellarisWare/driverlib\ELT240320TP.c **** 
 610:C:/StellarisWare/driverlib\ELT240320TP.c **** 	TSLCDOutIns(TS_INS_RESIZE_CTRL);
 5279              		.loc 1 610 0
 5280 0064 4FF00400 		mov	r0, #4
 5281 0068 FFF7FEFF 		bl	TSLCDOutIns
 611:C:/StellarisWare/driverlib\ELT240320TP.c **** 	TSLCDOutDat(0x0000); 					//no resizing
 5282              		.loc 1 611 0
 5283 006c 4FF00000 		mov	r0, #0
 5284 0070 FFF7FEFF 		bl	TSLCDOutDat
 612:C:/StellarisWare/driverlib\ELT240320TP.c **** 
 613:C:/StellarisWare/driverlib\ELT240320TP.c **** 	TSLCDOutIns(TS_INS_DISP_CTRL2);
 5285              		.loc 1 613 0
 5286 0074 4FF00800 		mov	r0, #8
 5287 0078 FFF7FEFF 		bl	TSLCDOutIns
 614:C:/StellarisWare/driverlib\ELT240320TP.c **** 	TSLCDOutDat(0x0202); 					//front & back porch periods = 2
 5288              		.loc 1 614 0
 5289 007c 40F20220 		movw	r0, #514
 5290 0080 FFF7FEFF 		bl	TSLCDOutDat
 615:C:/StellarisWare/driverlib\ELT240320TP.c **** 	TSLCDOutIns(TS_INS_DISP_CTRL3);
 5291              		.loc 1 615 0
 5292 0084 4FF00900 		mov	r0, #9
 5293 0088 FFF7FEFF 		bl	TSLCDOutIns
 616:C:/StellarisWare/driverlib\ELT240320TP.c **** 	TSLCDOutDat(0x0000); 					
 5294              		.loc 1 616 0
 5295 008c 4FF00000 		mov	r0, #0
 5296 0090 FFF7FEFF 		bl	TSLCDOutDat
 617:C:/StellarisWare/driverlib\ELT240320TP.c **** 	TSLCDOutIns(TS_INS_DISP_CTRL4);
 5297              		.loc 1 617 0
 5298 0094 4FF00A00 		mov	r0, #10
 5299 0098 FFF7FEFF 		bl	TSLCDOutIns
 618:C:/StellarisWare/driverlib\ELT240320TP.c **** 	TSLCDOutDat(0x0000); 					
 5300              		.loc 1 618 0
 5301 009c 4FF00000 		mov	r0, #0
 5302 00a0 FFF7FEFF 		bl	TSLCDOutDat
 619:C:/StellarisWare/driverlib\ELT240320TP.c **** 	TSLCDOutIns(TS_INS_RGB_DISP_IF_CTRL1);
 5303              		.loc 1 619 0
 5304 00a4 4FF00C00 		mov	r0, #12
 5305 00a8 FFF7FEFF 		bl	TSLCDOutIns
 620:C:/StellarisWare/driverlib\ELT240320TP.c **** 	TSLCDOutDat(0x0000); 					//select system interface
 5306              		.loc 1 620 0
 5307 00ac 4FF00000 		mov	r0, #0
 5308 00b0 FFF7FEFF 		bl	TSLCDOutDat
 621:C:/StellarisWare/driverlib\ELT240320TP.c **** 
 622:C:/StellarisWare/driverlib\ELT240320TP.c **** 
 623:C:/StellarisWare/driverlib\ELT240320TP.c **** 	TSLCDOutIns(TS_INS_FRM_MARKER_POS);
 5309              		.loc 1 623 0
 5310 00b4 4FF00D00 		mov	r0, #13
 5311 00b8 FFF7FEFF 		bl	TSLCDOutIns
 624:C:/StellarisWare/driverlib\ELT240320TP.c **** 	TSLCDOutDat(0x0000); 					
 5312              		.loc 1 624 0
 5313 00bc 4FF00000 		mov	r0, #0
 5314 00c0 FFF7FEFF 		bl	TSLCDOutDat
 625:C:/StellarisWare/driverlib\ELT240320TP.c **** 	TSLCDOutIns(TS_INS_RGB_DISP_IF_CTRL2);
 5315              		.loc 1 625 0
 5316 00c4 4FF00F00 		mov	r0, #15
 5317 00c8 FFF7FEFF 		bl	TSLCDOutIns
 626:C:/StellarisWare/driverlib\ELT240320TP.c **** 	TSLCDOutDat(0x0000);					
 5318              		.loc 1 626 0
 5319 00cc 4FF00000 		mov	r0, #0
 5320 00d0 FFF7FEFF 		bl	TSLCDOutDat
 627:C:/StellarisWare/driverlib\ELT240320TP.c **** 	
 628:C:/StellarisWare/driverlib\ELT240320TP.c **** 	TSLCDOutIns(TS_INS_POW_CTRL1);
 5321              		.loc 1 628 0
 5322 00d4 4FF01000 		mov	r0, #16
 5323 00d8 FFF7FEFF 		bl	TSLCDOutIns
 629:C:/StellarisWare/driverlib\ELT240320TP.c **** 	TSLCDOutDat(0x0000);
 5324              		.loc 1 629 0
 5325 00dc 4FF00000 		mov	r0, #0
 5326 00e0 FFF7FEFF 		bl	TSLCDOutDat
 630:C:/StellarisWare/driverlib\ELT240320TP.c **** 	TSLCDOutIns(TS_INS_POW_CTRL2);
 5327              		.loc 1 630 0
 5328 00e4 4FF01100 		mov	r0, #17
 5329 00e8 FFF7FEFF 		bl	TSLCDOutIns
 631:C:/StellarisWare/driverlib\ELT240320TP.c **** 	TSLCDOutDat(0x0000); 					
 5330              		.loc 1 631 0
 5331 00ec 4FF00000 		mov	r0, #0
 5332 00f0 FFF7FEFF 		bl	TSLCDOutDat
 632:C:/StellarisWare/driverlib\ELT240320TP.c **** 	TSLCDOutIns(TS_INS_POW_CTRL3);
 5333              		.loc 1 632 0
 5334 00f4 4FF01200 		mov	r0, #18
 5335 00f8 FFF7FEFF 		bl	TSLCDOutIns
 633:C:/StellarisWare/driverlib\ELT240320TP.c **** 	TSLCDOutDat(0x0000);
 5336              		.loc 1 633 0
 5337 00fc 4FF00000 		mov	r0, #0
 5338 0100 FFF7FEFF 		bl	TSLCDOutDat
 634:C:/StellarisWare/driverlib\ELT240320TP.c **** 	TSLCDOutIns(TS_INS_POW_CTRL4);
 5339              		.loc 1 634 0
 5340 0104 4FF01300 		mov	r0, #19
 5341 0108 FFF7FEFF 		bl	TSLCDOutIns
 635:C:/StellarisWare/driverlib\ELT240320TP.c **** 	TSLCDOutDat(0x0000); 					
 5342              		.loc 1 635 0
 5343 010c 4FF00000 		mov	r0, #0
 5344 0110 FFF7FEFF 		bl	TSLCDOutDat
 636:C:/StellarisWare/driverlib\ELT240320TP.c **** 	delay(20000);
 5345              		.loc 1 636 0
 5346 0114 44F62060 		movw	r0, #20000
 5347 0118 FFF7FEFF 		bl	delay
 637:C:/StellarisWare/driverlib\ELT240320TP.c **** 
 638:C:/StellarisWare/driverlib\ELT240320TP.c **** 	TSLCDOutIns(TS_INS_POW_CTRL1);
 5348              		.loc 1 638 0
 5349 011c 4FF01000 		mov	r0, #16
 5350 0120 FFF7FEFF 		bl	TSLCDOutIns
 639:C:/StellarisWare/driverlib\ELT240320TP.c **** 	TSLCDOutDat(0x17B0);
 5351              		.loc 1 639 0
 5352 0124 41F2B070 		movw	r0, #6064
 5353 0128 FFF7FEFF 		bl	TSLCDOutDat
 640:C:/StellarisWare/driverlib\ELT240320TP.c **** 	TSLCDOutIns(TS_INS_POW_CTRL2);
 5354              		.loc 1 640 0
 5355 012c 4FF01100 		mov	r0, #17
 5356 0130 FFF7FEFF 		bl	TSLCDOutIns
 641:C:/StellarisWare/driverlib\ELT240320TP.c **** 	TSLCDOutDat(0x0137); 					
 5357              		.loc 1 641 0
 5358 0134 40F23710 		movw	r0, #311
 5359 0138 FFF7FEFF 		bl	TSLCDOutDat
 642:C:/StellarisWare/driverlib\ELT240320TP.c **** 	delay(5000);
 5360              		.loc 1 642 0
 5361 013c 41F28830 		movw	r0, #5000
 5362 0140 FFF7FEFF 		bl	delay
 643:C:/StellarisWare/driverlib\ELT240320TP.c **** 
 644:C:/StellarisWare/driverlib\ELT240320TP.c **** 	TSLCDOutIns(TS_INS_POW_CTRL3);
 5363              		.loc 1 644 0
 5364 0144 4FF01200 		mov	r0, #18
 5365 0148 FFF7FEFF 		bl	TSLCDOutIns
 645:C:/StellarisWare/driverlib\ELT240320TP.c **** 	TSLCDOutDat(0x013C);
 5366              		.loc 1 645 0
 5367 014c 4FF49E70 		mov	r0, #316
 5368 0150 FFF7FEFF 		bl	TSLCDOutDat
 646:C:/StellarisWare/driverlib\ELT240320TP.c **** 	delay(5000);
 5369              		.loc 1 646 0
 5370 0154 41F28830 		movw	r0, #5000
 5371 0158 FFF7FEFF 		bl	delay
 647:C:/StellarisWare/driverlib\ELT240320TP.c **** 
 648:C:/StellarisWare/driverlib\ELT240320TP.c **** 	TSLCDOutIns(TS_INS_POW_CTRL4);
 5372              		.loc 1 648 0
 5373 015c 4FF01300 		mov	r0, #19
 5374 0160 FFF7FEFF 		bl	TSLCDOutIns
 649:C:/StellarisWare/driverlib\ELT240320TP.c **** 	TSLCDOutDat(0x1400);
 5375              		.loc 1 649 0
 5376 0164 4FF4A050 		mov	r0, #5120
 5377 0168 FFF7FEFF 		bl	TSLCDOutDat
 650:C:/StellarisWare/driverlib\ELT240320TP.c **** 	TSLCDOutIns(TS_INS_POW_CTRL7);
 5378              		.loc 1 650 0
 5379 016c 4FF02900 		mov	r0, #41
 5380 0170 FFF7FEFF 		bl	TSLCDOutIns
 651:C:/StellarisWare/driverlib\ELT240320TP.c **** 	TSLCDOutDat(0x0007);
 5381              		.loc 1 651 0
 5382 0174 4FF00700 		mov	r0, #7
 5383 0178 FFF7FEFF 		bl	TSLCDOutDat
 652:C:/StellarisWare/driverlib\ELT240320TP.c **** 	delay(50000);
 5384              		.loc 1 652 0
 5385 017c 4CF25030 		movw	r0, #50000
 5386 0180 FFF7FEFF 		bl	delay
 653:C:/StellarisWare/driverlib\ELT240320TP.c **** 
 654:C:/StellarisWare/driverlib\ELT240320TP.c **** 	TSLCDOutIns(TS_INS_GRAM_HOR_AD);
 5387              		.loc 1 654 0
 5388 0184 4FF02000 		mov	r0, #32
 5389 0188 FFF7FEFF 		bl	TSLCDOutIns
 655:C:/StellarisWare/driverlib\ELT240320TP.c **** 	TSLCDOutDat(0x0000);
 5390              		.loc 1 655 0
 5391 018c 4FF00000 		mov	r0, #0
 5392 0190 FFF7FEFF 		bl	TSLCDOutDat
 656:C:/StellarisWare/driverlib\ELT240320TP.c **** 	TSLCDOutIns(TS_INS_GRAM_VER_AD);
 5393              		.loc 1 656 0
 5394 0194 4FF02100 		mov	r0, #33
 5395 0198 FFF7FEFF 		bl	TSLCDOutIns
 657:C:/StellarisWare/driverlib\ELT240320TP.c **** 	TSLCDOutDat(0x0000);
 5396              		.loc 1 657 0
 5397 019c 4FF00000 		mov	r0, #0
 5398 01a0 FFF7FEFF 		bl	TSLCDOutDat
 658:C:/StellarisWare/driverlib\ELT240320TP.c **** 
 659:C:/StellarisWare/driverlib\ELT240320TP.c **** 	TSLCDOutIns(TS_INS_GAMMA_CTRL1);
 5399              		.loc 1 659 0
 5400 01a4 4FF03000 		mov	r0, #48
 5401 01a8 FFF7FEFF 		bl	TSLCDOutIns
 660:C:/StellarisWare/driverlib\ELT240320TP.c **** 	TSLCDOutDat(0x0007);
 5402              		.loc 1 660 0
 5403 01ac 4FF00700 		mov	r0, #7
 5404 01b0 FFF7FEFF 		bl	TSLCDOutDat
 661:C:/StellarisWare/driverlib\ELT240320TP.c **** 	TSLCDOutIns(TS_INS_GAMMA_CTRL2);
 5405              		.loc 1 661 0
 5406 01b4 4FF03100 		mov	r0, #49
 5407 01b8 FFF7FEFF 		bl	TSLCDOutIns
 662:C:/StellarisWare/driverlib\ELT240320TP.c **** 	TSLCDOutDat(0x0504);
 5408              		.loc 1 662 0
 5409 01bc 40F20450 		movw	r0, #1284
 5410 01c0 FFF7FEFF 		bl	TSLCDOutDat
 663:C:/StellarisWare/driverlib\ELT240320TP.c **** 	TSLCDOutIns(TS_INS_GAMMA_CTRL3);
 5411              		.loc 1 663 0
 5412 01c4 4FF03200 		mov	r0, #50
 5413 01c8 FFF7FEFF 		bl	TSLCDOutIns
 664:C:/StellarisWare/driverlib\ELT240320TP.c **** 	TSLCDOutDat(0x0703);
 5414              		.loc 1 664 0
 5415 01cc 40F20370 		movw	r0, #1795
 5416 01d0 FFF7FEFF 		bl	TSLCDOutDat
 665:C:/StellarisWare/driverlib\ELT240320TP.c **** 	TSLCDOutIns(TS_INS_GAMMA_CTRL4);
 5417              		.loc 1 665 0
 5418 01d4 4FF03500 		mov	r0, #53
 5419 01d8 FFF7FEFF 		bl	TSLCDOutIns
 666:C:/StellarisWare/driverlib\ELT240320TP.c **** 	TSLCDOutDat(0x0002);
 5420              		.loc 1 666 0
 5421 01dc 4FF00200 		mov	r0, #2
 5422 01e0 FFF7FEFF 		bl	TSLCDOutDat
 667:C:/StellarisWare/driverlib\ELT240320TP.c **** 	TSLCDOutIns(TS_INS_GAMMA_CTRL5);
 5423              		.loc 1 667 0
 5424 01e4 4FF03600 		mov	r0, #54
 5425 01e8 FFF7FEFF 		bl	TSLCDOutIns
 668:C:/StellarisWare/driverlib\ELT240320TP.c **** 	TSLCDOutDat(0x0707);
 5426              		.loc 1 668 0
 5427 01ec 40F20770 		movw	r0, #1799
 5428 01f0 FFF7FEFF 		bl	TSLCDOutDat
 669:C:/StellarisWare/driverlib\ELT240320TP.c **** 	TSLCDOutIns(TS_INS_GAMMA_CTRL6);
 5429              		.loc 1 669 0
 5430 01f4 4FF03700 		mov	r0, #55
 5431 01f8 FFF7FEFF 		bl	TSLCDOutIns
 670:C:/StellarisWare/driverlib\ELT240320TP.c **** 	TSLCDOutDat(0x0406);
 5432              		.loc 1 670 0
 5433 01fc 40F20640 		movw	r0, #1030
 5434 0200 FFF7FEFF 		bl	TSLCDOutDat
 671:C:/StellarisWare/driverlib\ELT240320TP.c **** 	TSLCDOutIns(TS_INS_GAMMA_CTRL7);
 5435              		.loc 1 671 0
 5436 0204 4FF03800 		mov	r0, #56
 5437 0208 FFF7FEFF 		bl	TSLCDOutIns
 672:C:/StellarisWare/driverlib\ELT240320TP.c **** 	TSLCDOutDat(0x0006);
 5438              		.loc 1 672 0
 5439 020c 4FF00600 		mov	r0, #6
 5440 0210 FFF7FEFF 		bl	TSLCDOutDat
 673:C:/StellarisWare/driverlib\ELT240320TP.c **** 	TSLCDOutIns(TS_INS_GAMMA_CTRL8);
 5441              		.loc 1 673 0
 5442 0214 4FF03900 		mov	r0, #57
 5443 0218 FFF7FEFF 		bl	TSLCDOutIns
 674:C:/StellarisWare/driverlib\ELT240320TP.c **** 	TSLCDOutDat(0x0404);
 5444              		.loc 1 674 0
 5445 021c 40F20440 		movw	r0, #1028
 5446 0220 FFF7FEFF 		bl	TSLCDOutDat
 675:C:/StellarisWare/driverlib\ELT240320TP.c **** 	TSLCDOutIns(TS_INS_GAMMA_CTRL9);
 5447              		.loc 1 675 0
 5448 0224 4FF03C00 		mov	r0, #60
 5449 0228 FFF7FEFF 		bl	TSLCDOutIns
 676:C:/StellarisWare/driverlib\ELT240320TP.c **** 	TSLCDOutDat(0x0700);
 5450              		.loc 1 676 0
 5451 022c 4FF4E060 		mov	r0, #1792
 5452 0230 FFF7FEFF 		bl	TSLCDOutDat
 677:C:/StellarisWare/driverlib\ELT240320TP.c **** 	TSLCDOutIns(TS_INS_GAMMA_CTRL10);
 5453              		.loc 1 677 0
 5454 0234 4FF03D00 		mov	r0, #61
 5455 0238 FFF7FEFF 		bl	TSLCDOutIns
 678:C:/StellarisWare/driverlib\ELT240320TP.c **** 	TSLCDOutDat(0x0A08);
 5456              		.loc 1 678 0
 5457 023c 40F60820 		movw	r0, #2568
 5458 0240 FFF7FEFF 		bl	TSLCDOutDat
 679:C:/StellarisWare/driverlib\ELT240320TP.c **** 
 680:C:/StellarisWare/driverlib\ELT240320TP.c **** 	TSLCDOutIns(TS_INS_HOR_START_AD);
 5459              		.loc 1 680 0
 5460 0244 4FF05000 		mov	r0, #80
 5461 0248 FFF7FEFF 		bl	TSLCDOutIns
 681:C:/StellarisWare/driverlib\ELT240320TP.c **** 	TSLCDOutDat(0x0000);
 5462              		.loc 1 681 0
 5463 024c 4FF00000 		mov	r0, #0
 5464 0250 FFF7FEFF 		bl	TSLCDOutDat
 682:C:/StellarisWare/driverlib\ELT240320TP.c **** 	TSLCDOutIns(TS_INS_HOR_END_AD);
 5465              		.loc 1 682 0
 5466 0254 4FF05100 		mov	r0, #81
 5467 0258 FFF7FEFF 		bl	TSLCDOutIns
 683:C:/StellarisWare/driverlib\ELT240320TP.c **** 	TSLCDOutDat(0x00EF);
 5468              		.loc 1 683 0
 5469 025c 4FF0EF00 		mov	r0, #239
 5470 0260 FFF7FEFF 		bl	TSLCDOutDat
 684:C:/StellarisWare/driverlib\ELT240320TP.c **** 	TSLCDOutIns(TS_INS_VER_START_AD);
 5471              		.loc 1 684 0
 5472 0264 4FF05200 		mov	r0, #82
 5473 0268 FFF7FEFF 		bl	TSLCDOutIns
 685:C:/StellarisWare/driverlib\ELT240320TP.c **** 	TSLCDOutDat(0x0000);
 5474              		.loc 1 685 0
 5475 026c 4FF00000 		mov	r0, #0
 5476 0270 FFF7FEFF 		bl	TSLCDOutDat
 686:C:/StellarisWare/driverlib\ELT240320TP.c **** 	TSLCDOutIns(TS_INS_VER_END_AD);
 5477              		.loc 1 686 0
 5478 0274 4FF05300 		mov	r0, #83
 5479 0278 FFF7FEFF 		bl	TSLCDOutIns
 687:C:/StellarisWare/driverlib\ELT240320TP.c **** 	TSLCDOutDat(0x013F);
 5480              		.loc 1 687 0
 5481 027c 40F23F10 		movw	r0, #319
 5482 0280 FFF7FEFF 		bl	TSLCDOutDat
 688:C:/StellarisWare/driverlib\ELT240320TP.c **** 	TSLCDOutIns(TS_INS_GATE_SCAN_CTRL1);
 5483              		.loc 1 688 0
 5484 0284 4FF06000 		mov	r0, #96
 5485 0288 FFF7FEFF 		bl	TSLCDOutIns
 689:C:/StellarisWare/driverlib\ELT240320TP.c **** 	TSLCDOutDat(0x2700);
 5486              		.loc 1 689 0
 5487 028c 4FF41C50 		mov	r0, #9984
 5488 0290 FFF7FEFF 		bl	TSLCDOutDat
 690:C:/StellarisWare/driverlib\ELT240320TP.c **** 	TSLCDOutIns(TS_INS_GATE_SCAN_CTRL2);
 5489              		.loc 1 690 0
 5490 0294 4FF06100 		mov	r0, #97
 5491 0298 FFF7FEFF 		bl	TSLCDOutIns
 691:C:/StellarisWare/driverlib\ELT240320TP.c **** 	TSLCDOutDat(0x0001);
 5492              		.loc 1 691 0
 5493 029c 4FF00100 		mov	r0, #1
 5494 02a0 FFF7FEFF 		bl	TSLCDOutDat
 692:C:/StellarisWare/driverlib\ELT240320TP.c **** 	TSLCDOutIns(TS_INS_GATE_SCAN_CTRL3);
 5495              		.loc 1 692 0
 5496 02a4 4FF06A00 		mov	r0, #106
 5497 02a8 FFF7FEFF 		bl	TSLCDOutIns
 693:C:/StellarisWare/driverlib\ELT240320TP.c **** 	TSLCDOutDat(0x0000);
 5498              		.loc 1 693 0
 5499 02ac 4FF00000 		mov	r0, #0
 5500 02b0 FFF7FEFF 		bl	TSLCDOutDat
 694:C:/StellarisWare/driverlib\ELT240320TP.c **** 
 695:C:/StellarisWare/driverlib\ELT240320TP.c **** 	TSLCDOutIns(TS_INS_PART_IMG1_DISP_POS);
 5501              		.loc 1 695 0
 5502 02b4 4FF08000 		mov	r0, #128
 5503 02b8 FFF7FEFF 		bl	TSLCDOutIns
 696:C:/StellarisWare/driverlib\ELT240320TP.c **** 	TSLCDOutDat(0x0000);
 5504              		.loc 1 696 0
 5505 02bc 4FF00000 		mov	r0, #0
 5506 02c0 FFF7FEFF 		bl	TSLCDOutDat
 697:C:/StellarisWare/driverlib\ELT240320TP.c **** 	TSLCDOutIns(TS_INS_PART_IMG1_START_AD);
 5507              		.loc 1 697 0
 5508 02c4 4FF08100 		mov	r0, #129
 5509 02c8 FFF7FEFF 		bl	TSLCDOutIns
 698:C:/StellarisWare/driverlib\ELT240320TP.c **** 	TSLCDOutDat(0x0000);
 5510              		.loc 1 698 0
 5511 02cc 4FF00000 		mov	r0, #0
 5512 02d0 FFF7FEFF 		bl	TSLCDOutDat
 699:C:/StellarisWare/driverlib\ELT240320TP.c **** 	TSLCDOutIns(TS_INS_PART_IMG1_END_AD);
 5513              		.loc 1 699 0
 5514 02d4 4FF08200 		mov	r0, #130
 5515 02d8 FFF7FEFF 		bl	TSLCDOutIns
 700:C:/StellarisWare/driverlib\ELT240320TP.c **** 	TSLCDOutDat(0x0000);
 5516              		.loc 1 700 0
 5517 02dc 4FF00000 		mov	r0, #0
 5518 02e0 FFF7FEFF 		bl	TSLCDOutDat
 701:C:/StellarisWare/driverlib\ELT240320TP.c **** 	TSLCDOutIns(TS_INS_PART_IMG2_DISP_POS);
 5519              		.loc 1 701 0
 5520 02e4 4FF08300 		mov	r0, #131
 5521 02e8 FFF7FEFF 		bl	TSLCDOutIns
 702:C:/StellarisWare/driverlib\ELT240320TP.c **** 	TSLCDOutDat(0x0000);
 5522              		.loc 1 702 0
 5523 02ec 4FF00000 		mov	r0, #0
 5524 02f0 FFF7FEFF 		bl	TSLCDOutDat
 703:C:/StellarisWare/driverlib\ELT240320TP.c **** 	TSLCDOutIns(TS_INS_PART_IMG2_START_AD);
 5525              		.loc 1 703 0
 5526 02f4 4FF08400 		mov	r0, #132
 5527 02f8 FFF7FEFF 		bl	TSLCDOutIns
 704:C:/StellarisWare/driverlib\ELT240320TP.c **** 	TSLCDOutDat(0x0000);
 5528              		.loc 1 704 0
 5529 02fc 4FF00000 		mov	r0, #0
 5530 0300 FFF7FEFF 		bl	TSLCDOutDat
 705:C:/StellarisWare/driverlib\ELT240320TP.c **** 	TSLCDOutIns(TS_INS_PART_IMG2_END_AD);
 5531              		.loc 1 705 0
 5532 0304 4FF08500 		mov	r0, #133
 5533 0308 FFF7FEFF 		bl	TSLCDOutIns
 706:C:/StellarisWare/driverlib\ELT240320TP.c **** 	TSLCDOutDat(0x0000);
 5534              		.loc 1 706 0
 5535 030c 4FF00000 		mov	r0, #0
 5536 0310 FFF7FEFF 		bl	TSLCDOutDat
 707:C:/StellarisWare/driverlib\ELT240320TP.c **** 
 708:C:/StellarisWare/driverlib\ELT240320TP.c **** 	TSLCDOutIns(TS_INS_PANEL_IF_CTRL1);
 5537              		.loc 1 708 0
 5538 0314 4FF09000 		mov	r0, #144
 5539 0318 FFF7FEFF 		bl	TSLCDOutIns
 709:C:/StellarisWare/driverlib\ELT240320TP.c **** 	TSLCDOutDat(0x0010);
 5540              		.loc 1 709 0
 5541 031c 4FF01000 		mov	r0, #16
 5542 0320 FFF7FEFF 		bl	TSLCDOutDat
 710:C:/StellarisWare/driverlib\ELT240320TP.c **** 	TSLCDOutIns(TS_INS_PANEL_IF_CTRL2);
 5543              		.loc 1 710 0
 5544 0324 4FF09200 		mov	r0, #146
 5545 0328 FFF7FEFF 		bl	TSLCDOutIns
 711:C:/StellarisWare/driverlib\ELT240320TP.c **** 	TSLCDOutDat(0x0000);
 5546              		.loc 1 711 0
 5547 032c 4FF00000 		mov	r0, #0
 5548 0330 FFF7FEFF 		bl	TSLCDOutDat
 712:C:/StellarisWare/driverlib\ELT240320TP.c **** 	TSLCDOutIns(TS_INS_PANEL_IF_CTRL3);
 5549              		.loc 1 712 0
 5550 0334 4FF09300 		mov	r0, #147
 5551 0338 FFF7FEFF 		bl	TSLCDOutIns
 713:C:/StellarisWare/driverlib\ELT240320TP.c **** 	TSLCDOutDat(0x0003);
 5552              		.loc 1 713 0
 5553 033c 4FF00300 		mov	r0, #3
 5554 0340 FFF7FEFF 		bl	TSLCDOutDat
 714:C:/StellarisWare/driverlib\ELT240320TP.c **** 	TSLCDOutIns(TS_INS_PANEL_IF_CTRL4);
 5555              		.loc 1 714 0
 5556 0344 4FF09500 		mov	r0, #149
 5557 0348 FFF7FEFF 		bl	TSLCDOutIns
 715:C:/StellarisWare/driverlib\ELT240320TP.c **** 	TSLCDOutDat(0x0110);
 5558              		.loc 1 715 0
 5559 034c 4FF48870 		mov	r0, #272
 5560 0350 FFF7FEFF 		bl	TSLCDOutDat
 716:C:/StellarisWare/driverlib\ELT240320TP.c **** 	TSLCDOutIns(TS_INS_PANEL_IF_CTRL5);
 5561              		.loc 1 716 0
 5562 0354 4FF09700 		mov	r0, #151
 5563 0358 FFF7FEFF 		bl	TSLCDOutIns
 717:C:/StellarisWare/driverlib\ELT240320TP.c **** 	TSLCDOutDat(0x0000);
 5564              		.loc 1 717 0
 5565 035c 4FF00000 		mov	r0, #0
 5566 0360 FFF7FEFF 		bl	TSLCDOutDat
 718:C:/StellarisWare/driverlib\ELT240320TP.c **** 	TSLCDOutIns(TS_INS_PANEL_IF_CTRL6);
 5567              		.loc 1 718 0
 5568 0364 4FF09800 		mov	r0, #152
 5569 0368 FFF7FEFF 		bl	TSLCDOutIns
 719:C:/StellarisWare/driverlib\ELT240320TP.c **** 	TSLCDOutDat(0x0000);
 5570              		.loc 1 719 0
 5571 036c 4FF00000 		mov	r0, #0
 5572 0370 FFF7FEFF 		bl	TSLCDOutDat
 720:C:/StellarisWare/driverlib\ELT240320TP.c **** 
 721:C:/StellarisWare/driverlib\ELT240320TP.c **** 	TSLCDOutIns(TS_INS_DISP_CTRL1);
 5573              		.loc 1 721 0
 5574 0374 4FF00700 		mov	r0, #7
 5575 0378 FFF7FEFF 		bl	TSLCDOutIns
 722:C:/StellarisWare/driverlib\ELT240320TP.c **** 	TSLCDOutDat(0x0173);
 5576              		.loc 1 722 0
 5577 037c 40F27310 		movw	r0, #371
 5578 0380 FFF7FEFF 		bl	TSLCDOutDat
 723:C:/StellarisWare/driverlib\ELT240320TP.c **** }
 5579              		.loc 1 723 0
 5580 0384 80BD     		pop	{r7, pc}
 5581              		.cfi_endproc
 5582              	.LFE18:
 5584 0386 00BF     		.section	.text.delay,"ax",%progbits
 5585              		.align	2
 5586              		.global	delay
 5587              		.thumb
 5588              		.thumb_func
 5590              	delay:
 5591              	.LFB19:
 724:C:/StellarisWare/driverlib\ELT240320TP.c **** 
 725:C:/StellarisWare/driverlib\ELT240320TP.c **** //---------------------------------------------------
 726:C:/StellarisWare/driverlib\ELT240320TP.c **** //	Function Delay
 727:C:/StellarisWare/driverlib\ELT240320TP.c **** //---------------------------------------------------
 728:C:/StellarisWare/driverlib\ELT240320TP.c **** void delay(unsigned long int count1)
 729:C:/StellarisWare/driverlib\ELT240320TP.c **** {
 5592              		.loc 1 729 0
 5593              		.cfi_startproc
 5594              		@ args = 0, pretend = 0, frame = 8
 5595              		@ frame_needed = 1, uses_anonymous_args = 0
 5596              		@ link register save eliminated.
 5597 0000 80B4     		push	{r7}
 5598              	.LCFI54:
 5599              		.cfi_def_cfa_offset 4
 5600              		.cfi_offset 7, -4
 5601 0002 83B0     		sub	sp, sp, #12
 5602              	.LCFI55:
 5603              		.cfi_def_cfa_offset 16
 5604 0004 00AF     		add	r7, sp, #0
 5605              	.LCFI56:
 5606              		.cfi_def_cfa_register 7
 5607 0006 7860     		str	r0, [r7, #4]
 730:C:/StellarisWare/driverlib\ELT240320TP.c ****   while(count1 > 0) {count1--;}					// Loop Decrease Counter	
 5608              		.loc 1 730 0
 5609 0008 03E0     		b	.L106
 5610              	.L107:
 5611              		.loc 1 730 0 is_stmt 0 discriminator 2
 5612 000a 7B68     		ldr	r3, [r7, #4]
 5613 000c 03F1FF33 		add	r3, r3, #-1
 5614 0010 7B60     		str	r3, [r7, #4]
 5615              	.L106:
 5616              		.loc 1 730 0 discriminator 1
 5617 0012 7B68     		ldr	r3, [r7, #4]
 5618 0014 002B     		cmp	r3, #0
 5619 0016 F8D1     		bne	.L107
 731:C:/StellarisWare/driverlib\ELT240320TP.c **** }
 5620              		.loc 1 731 0 is_stmt 1
 5621 0018 07F10C07 		add	r7, r7, #12
 5622 001c BD46     		mov	sp, r7
 5623 001e 80BC     		pop	{r7}
 5624 0020 7047     		bx	lr
 5625              		.cfi_endproc
 5626              	.LFE19:
 5628 0022 00BF     		.text
 5629              	.Letext0:
 5630              		.file 2 "C:/StellarisWare/driverlib/font_courier.h"
 5631              		.file 3 "C:/StellarisWare/driverlib/ELT240320TP.h"