   1              		.syntax unified
   2              		.cpu cortex-m3
   3              		.fpu softvfp
   4              		.eabi_attribute 20, 1
   5              		.eabi_attribute 21, 1
   6              		.eabi_attribute 23, 3
   7              		.eabi_attribute 24, 1
   8              		.eabi_attribute 25, 1
   9              		.eabi_attribute 26, 1
  10              		.eabi_attribute 30, 6
  11              		.eabi_attribute 34, 1
  12              		.eabi_attribute 18, 4
  13              		.thumb
  14              		.file	"usb.c"
  15              		.text
  16              	.Ltext0:
  17              		.cfi_sections	.debug_frame
  18              		.section	.text.USBIndexWrite,"ax",%progbits
  19              		.align	2
  20              		.thumb
  21              		.thumb_func
  23              	USBIndexWrite:
  24              	.LFB0:
  25              		.file 1 "C:/StellarisWare/driverlib/usb.c"
   1:C:/StellarisWare/driverlib\usb.c **** //*****************************************************************************
   2:C:/StellarisWare/driverlib\usb.c **** //
   3:C:/StellarisWare/driverlib\usb.c **** // usb.c - Driver for the USB Interface.
   4:C:/StellarisWare/driverlib\usb.c **** //
   5:C:/StellarisWare/driverlib\usb.c **** // Copyright (c) 2007-2012 Texas Instruments Incorporated.  All rights reserved.
   6:C:/StellarisWare/driverlib\usb.c **** // Software License Agreement
   7:C:/StellarisWare/driverlib\usb.c **** // 
   8:C:/StellarisWare/driverlib\usb.c **** //   Redistribution and use in source and binary forms, with or without
   9:C:/StellarisWare/driverlib\usb.c **** //   modification, are permitted provided that the following conditions
  10:C:/StellarisWare/driverlib\usb.c **** //   are met:
  11:C:/StellarisWare/driverlib\usb.c **** // 
  12:C:/StellarisWare/driverlib\usb.c **** //   Redistributions of source code must retain the above copyright
  13:C:/StellarisWare/driverlib\usb.c **** //   notice, this list of conditions and the following disclaimer.
  14:C:/StellarisWare/driverlib\usb.c **** // 
  15:C:/StellarisWare/driverlib\usb.c **** //   Redistributions in binary form must reproduce the above copyright
  16:C:/StellarisWare/driverlib\usb.c **** //   notice, this list of conditions and the following disclaimer in the
  17:C:/StellarisWare/driverlib\usb.c **** //   documentation and/or other materials provided with the  
  18:C:/StellarisWare/driverlib\usb.c **** //   distribution.
  19:C:/StellarisWare/driverlib\usb.c **** // 
  20:C:/StellarisWare/driverlib\usb.c **** //   Neither the name of Texas Instruments Incorporated nor the names of
  21:C:/StellarisWare/driverlib\usb.c **** //   its contributors may be used to endorse or promote products derived
  22:C:/StellarisWare/driverlib\usb.c **** //   from this software without specific prior written permission.
  23:C:/StellarisWare/driverlib\usb.c **** // 
  24:C:/StellarisWare/driverlib\usb.c **** // THIS SOFTWARE IS PROVIDED BY THE COPYRIGHT HOLDERS AND CONTRIBUTORS
  25:C:/StellarisWare/driverlib\usb.c **** // "AS IS" AND ANY EXPRESS OR IMPLIED WARRANTIES, INCLUDING, BUT NOT
  26:C:/StellarisWare/driverlib\usb.c **** // LIMITED TO, THE IMPLIED WARRANTIES OF MERCHANTABILITY AND FITNESS FOR
  27:C:/StellarisWare/driverlib\usb.c **** // A PARTICULAR PURPOSE ARE DISCLAIMED. IN NO EVENT SHALL THE COPYRIGHT
  28:C:/StellarisWare/driverlib\usb.c **** // OWNER OR CONTRIBUTORS BE LIABLE FOR ANY DIRECT, INDIRECT, INCIDENTAL,
  29:C:/StellarisWare/driverlib\usb.c **** // SPECIAL, EXEMPLARY, OR CONSEQUENTIAL DAMAGES (INCLUDING, BUT NOT
  30:C:/StellarisWare/driverlib\usb.c **** // LIMITED TO, PROCUREMENT OF SUBSTITUTE GOODS OR SERVICES; LOSS OF USE,
  31:C:/StellarisWare/driverlib\usb.c **** // DATA, OR PROFITS; OR BUSINESS INTERRUPTION) HOWEVER CAUSED AND ON ANY
  32:C:/StellarisWare/driverlib\usb.c **** // THEORY OF LIABILITY, WHETHER IN CONTRACT, STRICT LIABILITY, OR TORT
  33:C:/StellarisWare/driverlib\usb.c **** // (INCLUDING NEGLIGENCE OR OTHERWISE) ARISING IN ANY WAY OUT OF THE USE
  34:C:/StellarisWare/driverlib\usb.c **** // OF THIS SOFTWARE, EVEN IF ADVISED OF THE POSSIBILITY OF SUCH DAMAGE.
  35:C:/StellarisWare/driverlib\usb.c **** // 
  36:C:/StellarisWare/driverlib\usb.c **** // This is part of revision 9107 of the Stellaris Peripheral Driver Library.
  37:C:/StellarisWare/driverlib\usb.c **** //
  38:C:/StellarisWare/driverlib\usb.c **** //*****************************************************************************
  39:C:/StellarisWare/driverlib\usb.c **** 
  40:C:/StellarisWare/driverlib\usb.c **** //*****************************************************************************
  41:C:/StellarisWare/driverlib\usb.c **** //
  42:C:/StellarisWare/driverlib\usb.c **** //! \addtogroup usb_api
  43:C:/StellarisWare/driverlib\usb.c **** //! @{
  44:C:/StellarisWare/driverlib\usb.c **** //
  45:C:/StellarisWare/driverlib\usb.c **** //*****************************************************************************
  46:C:/StellarisWare/driverlib\usb.c **** 
  47:C:/StellarisWare/driverlib\usb.c **** #include "inc/hw_ints.h"
  48:C:/StellarisWare/driverlib\usb.c **** #include "inc/hw_memmap.h"
  49:C:/StellarisWare/driverlib\usb.c **** #include "inc/hw_types.h"
  50:C:/StellarisWare/driverlib\usb.c **** #include "inc/hw_sysctl.h"
  51:C:/StellarisWare/driverlib\usb.c **** #include "inc/hw_usb.h"
  52:C:/StellarisWare/driverlib\usb.c **** #include "driverlib/debug.h"
  53:C:/StellarisWare/driverlib\usb.c **** #include "driverlib/interrupt.h"
  54:C:/StellarisWare/driverlib\usb.c **** #include "driverlib/sysctl.h"
  55:C:/StellarisWare/driverlib\usb.c **** #include "driverlib/udma.h"
  56:C:/StellarisWare/driverlib\usb.c **** #include "driverlib/usb.h"
  57:C:/StellarisWare/driverlib\usb.c **** 
  58:C:/StellarisWare/driverlib\usb.c **** //*****************************************************************************
  59:C:/StellarisWare/driverlib\usb.c **** //
  60:C:/StellarisWare/driverlib\usb.c **** // Amount to shift the RX interrupt sources by in the flags used in the
  61:C:/StellarisWare/driverlib\usb.c **** // interrupt calls.
  62:C:/StellarisWare/driverlib\usb.c **** //
  63:C:/StellarisWare/driverlib\usb.c **** //*****************************************************************************
  64:C:/StellarisWare/driverlib\usb.c **** #ifndef DEPRECATED
  65:C:/StellarisWare/driverlib\usb.c **** #define USB_INT_RX_SHIFT        8
  66:C:/StellarisWare/driverlib\usb.c **** #endif
  67:C:/StellarisWare/driverlib\usb.c **** #define USB_INTEP_RX_SHIFT      16
  68:C:/StellarisWare/driverlib\usb.c **** 
  69:C:/StellarisWare/driverlib\usb.c **** //*****************************************************************************
  70:C:/StellarisWare/driverlib\usb.c **** //
  71:C:/StellarisWare/driverlib\usb.c **** // Amount to shift the status interrupt sources by in the flags used in the
  72:C:/StellarisWare/driverlib\usb.c **** // interrupt calls.
  73:C:/StellarisWare/driverlib\usb.c **** //
  74:C:/StellarisWare/driverlib\usb.c **** //*****************************************************************************
  75:C:/StellarisWare/driverlib\usb.c **** #ifndef DEPRECATED
  76:C:/StellarisWare/driverlib\usb.c **** #define USB_INT_STATUS_SHIFT    24
  77:C:/StellarisWare/driverlib\usb.c **** #endif
  78:C:/StellarisWare/driverlib\usb.c **** 
  79:C:/StellarisWare/driverlib\usb.c **** //*****************************************************************************
  80:C:/StellarisWare/driverlib\usb.c **** //
  81:C:/StellarisWare/driverlib\usb.c **** // Amount to shift the RX endpoint status sources by in the flags used in the
  82:C:/StellarisWare/driverlib\usb.c **** // calls.
  83:C:/StellarisWare/driverlib\usb.c **** //
  84:C:/StellarisWare/driverlib\usb.c **** //*****************************************************************************
  85:C:/StellarisWare/driverlib\usb.c **** #define USB_RX_EPSTATUS_SHIFT   16
  86:C:/StellarisWare/driverlib\usb.c **** 
  87:C:/StellarisWare/driverlib\usb.c **** //*****************************************************************************
  88:C:/StellarisWare/driverlib\usb.c **** //
  89:C:/StellarisWare/driverlib\usb.c **** // Converts from an endpoint specifier to the offset of the endpoint's
  90:C:/StellarisWare/driverlib\usb.c **** // control/status registers.
  91:C:/StellarisWare/driverlib\usb.c **** //
  92:C:/StellarisWare/driverlib\usb.c **** //*****************************************************************************
  93:C:/StellarisWare/driverlib\usb.c **** #define EP_OFFSET(Endpoint)     (Endpoint - 0x10)
  94:C:/StellarisWare/driverlib\usb.c **** 
  95:C:/StellarisWare/driverlib\usb.c **** //*****************************************************************************
  96:C:/StellarisWare/driverlib\usb.c **** //
  97:C:/StellarisWare/driverlib\usb.c **** // Sets one of the indexed registers.
  98:C:/StellarisWare/driverlib\usb.c **** //
  99:C:/StellarisWare/driverlib\usb.c **** // \param ulBase specifies the USB module base address.
 100:C:/StellarisWare/driverlib\usb.c **** // \param ulEndpoint is the endpoint index to target for this write.
 101:C:/StellarisWare/driverlib\usb.c **** // \param ulIndexedReg is the indexed register to write to.
 102:C:/StellarisWare/driverlib\usb.c **** // \param ucValue is the value to write to the register.
 103:C:/StellarisWare/driverlib\usb.c **** //
 104:C:/StellarisWare/driverlib\usb.c **** // This function is used to access the indexed registers for each endpoint.
 105:C:/StellarisWare/driverlib\usb.c **** // The only registers that are indexed are the FIFO configuration registers,
 106:C:/StellarisWare/driverlib\usb.c **** // which are not used after configuration.
 107:C:/StellarisWare/driverlib\usb.c **** //
 108:C:/StellarisWare/driverlib\usb.c **** // \return None.
 109:C:/StellarisWare/driverlib\usb.c **** //
 110:C:/StellarisWare/driverlib\usb.c **** //*****************************************************************************
 111:C:/StellarisWare/driverlib\usb.c **** static void
 112:C:/StellarisWare/driverlib\usb.c **** USBIndexWrite(unsigned long ulBase, unsigned long ulEndpoint,
 113:C:/StellarisWare/driverlib\usb.c ****               unsigned long ulIndexedReg, unsigned long ulValue,
 114:C:/StellarisWare/driverlib\usb.c ****               unsigned long ulSize)
 115:C:/StellarisWare/driverlib\usb.c **** {
  26              		.loc 1 115 0
  27              		.cfi_startproc
  28              		@ args = 4, pretend = 0, frame = 24
  29              		@ frame_needed = 1, uses_anonymous_args = 0
  30              		@ link register save eliminated.
  31 0000 80B4     		push	{r7}
  32              	.LCFI0:
  33              		.cfi_def_cfa_offset 4
  34              		.cfi_offset 7, -4
  35 0002 87B0     		sub	sp, sp, #28
  36              	.LCFI1:
  37              		.cfi_def_cfa_offset 32
  38 0004 00AF     		add	r7, sp, #0
  39              	.LCFI2:
  40              		.cfi_def_cfa_register 7
  41 0006 F860     		str	r0, [r7, #12]
  42 0008 B960     		str	r1, [r7, #8]
  43 000a 7A60     		str	r2, [r7, #4]
  44 000c 3B60     		str	r3, [r7, #0]
 116:C:/StellarisWare/driverlib\usb.c ****     unsigned long ulIndex;
 117:C:/StellarisWare/driverlib\usb.c **** 
 118:C:/StellarisWare/driverlib\usb.c ****     //
 119:C:/StellarisWare/driverlib\usb.c ****     // Check the arguments.
 120:C:/StellarisWare/driverlib\usb.c ****     //
 121:C:/StellarisWare/driverlib\usb.c ****     ASSERT(ulBase == USB0_BASE);
 122:C:/StellarisWare/driverlib\usb.c ****     ASSERT((ulEndpoint == 0) || (ulEndpoint == 1) || (ulEndpoint == 2) ||
 123:C:/StellarisWare/driverlib\usb.c ****            (ulEndpoint == 3));
 124:C:/StellarisWare/driverlib\usb.c ****     ASSERT((ulSize == 1) || (ulSize == 2));
 125:C:/StellarisWare/driverlib\usb.c **** 
 126:C:/StellarisWare/driverlib\usb.c ****     //
 127:C:/StellarisWare/driverlib\usb.c ****     // Save the old index in case it was in use.
 128:C:/StellarisWare/driverlib\usb.c ****     //
 129:C:/StellarisWare/driverlib\usb.c ****     ulIndex = HWREGB(ulBase + USB_O_EPIDX);
  45              		.loc 1 129 0
  46 000e FB68     		ldr	r3, [r7, #12]
  47 0010 03F10E03 		add	r3, r3, #14
  48 0014 1B78     		ldrb	r3, [r3, #0]
  49 0016 DBB2     		uxtb	r3, r3
  50 0018 7B61     		str	r3, [r7, #20]
 130:C:/StellarisWare/driverlib\usb.c **** 
 131:C:/StellarisWare/driverlib\usb.c ****     //
 132:C:/StellarisWare/driverlib\usb.c ****     // Set the index.
 133:C:/StellarisWare/driverlib\usb.c ****     //
 134:C:/StellarisWare/driverlib\usb.c ****     HWREGB(ulBase + USB_O_EPIDX) = ulEndpoint;
  51              		.loc 1 134 0
  52 001a FB68     		ldr	r3, [r7, #12]
  53 001c 03F10E03 		add	r3, r3, #14
  54 0020 BA68     		ldr	r2, [r7, #8]
  55 0022 D2B2     		uxtb	r2, r2
  56 0024 1A70     		strb	r2, [r3, #0]
 135:C:/StellarisWare/driverlib\usb.c **** 
 136:C:/StellarisWare/driverlib\usb.c ****     //
 137:C:/StellarisWare/driverlib\usb.c ****     // Determine the size of the register value.
 138:C:/StellarisWare/driverlib\usb.c ****     //
 139:C:/StellarisWare/driverlib\usb.c ****     if(ulSize == 1)
  57              		.loc 1 139 0
  58 0026 3B6A     		ldr	r3, [r7, #32]
  59 0028 012B     		cmp	r3, #1
  60 002a 06D1     		bne	.L2
 140:C:/StellarisWare/driverlib\usb.c ****     {
 141:C:/StellarisWare/driverlib\usb.c ****         //
 142:C:/StellarisWare/driverlib\usb.c ****         // Set the value.
 143:C:/StellarisWare/driverlib\usb.c ****         //
 144:C:/StellarisWare/driverlib\usb.c ****         HWREGB(ulBase + ulIndexedReg) = ulValue;
  61              		.loc 1 144 0
  62 002c FA68     		ldr	r2, [r7, #12]
  63 002e 7B68     		ldr	r3, [r7, #4]
  64 0030 D318     		adds	r3, r2, r3
  65 0032 3A68     		ldr	r2, [r7, #0]
  66 0034 D2B2     		uxtb	r2, r2
  67 0036 1A70     		strb	r2, [r3, #0]
  68 0038 05E0     		b	.L3
  69              	.L2:
 145:C:/StellarisWare/driverlib\usb.c ****     }
 146:C:/StellarisWare/driverlib\usb.c ****     else
 147:C:/StellarisWare/driverlib\usb.c ****     {
 148:C:/StellarisWare/driverlib\usb.c ****         //
 149:C:/StellarisWare/driverlib\usb.c ****         // Set the value.
 150:C:/StellarisWare/driverlib\usb.c ****         //
 151:C:/StellarisWare/driverlib\usb.c ****         HWREGH(ulBase + ulIndexedReg) = ulValue;
  70              		.loc 1 151 0
  71 003a FA68     		ldr	r2, [r7, #12]
  72 003c 7B68     		ldr	r3, [r7, #4]
  73 003e D318     		adds	r3, r2, r3
  74 0040 3A68     		ldr	r2, [r7, #0]
  75 0042 92B2     		uxth	r2, r2
  76 0044 1A80     		strh	r2, [r3, #0]	@ movhi
  77              	.L3:
 152:C:/StellarisWare/driverlib\usb.c ****     }
 153:C:/StellarisWare/driverlib\usb.c **** 
 154:C:/StellarisWare/driverlib\usb.c ****     //
 155:C:/StellarisWare/driverlib\usb.c ****     // Restore the old index in case it was in use.
 156:C:/StellarisWare/driverlib\usb.c ****     //
 157:C:/StellarisWare/driverlib\usb.c ****     HWREGB(ulBase + USB_O_EPIDX) = ulIndex;
  78              		.loc 1 157 0
  79 0046 FB68     		ldr	r3, [r7, #12]
  80 0048 03F10E03 		add	r3, r3, #14
  81 004c 7A69     		ldr	r2, [r7, #20]
  82 004e D2B2     		uxtb	r2, r2
  83 0050 1A70     		strb	r2, [r3, #0]
 158:C:/StellarisWare/driverlib\usb.c **** }
  84              		.loc 1 158 0
  85 0052 07F11C07 		add	r7, r7, #28
  86 0056 BD46     		mov	sp, r7
  87 0058 80BC     		pop	{r7}
  88 005a 7047     		bx	lr
  89              		.cfi_endproc
  90              	.LFE0:
  92              		.section	.text.USBIndexRead,"ax",%progbits
  93              		.align	2
  94              		.thumb
  95              		.thumb_func
  97              	USBIndexRead:
  98              	.LFB1:
 159:C:/StellarisWare/driverlib\usb.c **** 
 160:C:/StellarisWare/driverlib\usb.c **** //*****************************************************************************
 161:C:/StellarisWare/driverlib\usb.c **** //
 162:C:/StellarisWare/driverlib\usb.c **** // Reads one of the indexed registers.
 163:C:/StellarisWare/driverlib\usb.c **** //
 164:C:/StellarisWare/driverlib\usb.c **** // \param ulBase specifies the USB module base address.
 165:C:/StellarisWare/driverlib\usb.c **** // \param ulEndpoint is the endpoint index to target for this write.
 166:C:/StellarisWare/driverlib\usb.c **** // \param ulIndexedReg is the indexed register to write to.
 167:C:/StellarisWare/driverlib\usb.c **** //
 168:C:/StellarisWare/driverlib\usb.c **** // This function is used internally to access the indexed registers for each
 169:C:/StellarisWare/driverlib\usb.c **** // endpoint.  The only registers that are indexed are the FIFO configuration
 170:C:/StellarisWare/driverlib\usb.c **** // registers, which are not used after configuration.
 171:C:/StellarisWare/driverlib\usb.c **** //
 172:C:/StellarisWare/driverlib\usb.c **** // \return The value in the register requested.
 173:C:/StellarisWare/driverlib\usb.c **** //
 174:C:/StellarisWare/driverlib\usb.c **** //*****************************************************************************
 175:C:/StellarisWare/driverlib\usb.c **** static unsigned long
 176:C:/StellarisWare/driverlib\usb.c **** USBIndexRead(unsigned long ulBase, unsigned long ulEndpoint,
 177:C:/StellarisWare/driverlib\usb.c ****              unsigned long ulIndexedReg, unsigned long ulSize)
 178:C:/StellarisWare/driverlib\usb.c **** {
  99              		.loc 1 178 0
 100              		.cfi_startproc
 101              		@ args = 0, pretend = 0, frame = 24
 102              		@ frame_needed = 1, uses_anonymous_args = 0
 103              		@ link register save eliminated.
 104 0000 80B4     		push	{r7}
 105              	.LCFI3:
 106              		.cfi_def_cfa_offset 4
 107              		.cfi_offset 7, -4
 108 0002 87B0     		sub	sp, sp, #28
 109              	.LCFI4:
 110              		.cfi_def_cfa_offset 32
 111 0004 00AF     		add	r7, sp, #0
 112              	.LCFI5:
 113              		.cfi_def_cfa_register 7
 114 0006 F860     		str	r0, [r7, #12]
 115 0008 B960     		str	r1, [r7, #8]
 116 000a 7A60     		str	r2, [r7, #4]
 117 000c 3B60     		str	r3, [r7, #0]
 179:C:/StellarisWare/driverlib\usb.c ****     unsigned char ulIndex;
 180:C:/StellarisWare/driverlib\usb.c ****     unsigned char ulValue;
 181:C:/StellarisWare/driverlib\usb.c **** 
 182:C:/StellarisWare/driverlib\usb.c ****     //
 183:C:/StellarisWare/driverlib\usb.c ****     // Check the arguments.
 184:C:/StellarisWare/driverlib\usb.c ****     //
 185:C:/StellarisWare/driverlib\usb.c ****     ASSERT(ulBase == USB0_BASE);
 186:C:/StellarisWare/driverlib\usb.c ****     ASSERT((ulEndpoint == 0) || (ulEndpoint == 1) || (ulEndpoint == 2) ||
 187:C:/StellarisWare/driverlib\usb.c ****            (ulEndpoint == 3));
 188:C:/StellarisWare/driverlib\usb.c ****     ASSERT((ulSize == 1) || (ulSize == 2));
 189:C:/StellarisWare/driverlib\usb.c **** 
 190:C:/StellarisWare/driverlib\usb.c ****     //
 191:C:/StellarisWare/driverlib\usb.c ****     // Save the old index in case it was in use.
 192:C:/StellarisWare/driverlib\usb.c ****     //
 193:C:/StellarisWare/driverlib\usb.c ****     ulIndex = HWREGB(ulBase + USB_O_EPIDX);
 118              		.loc 1 193 0
 119 000e FB68     		ldr	r3, [r7, #12]
 120 0010 03F10E03 		add	r3, r3, #14
 121 0014 1B78     		ldrb	r3, [r3, #0]
 122 0016 BB75     		strb	r3, [r7, #22]
 194:C:/StellarisWare/driverlib\usb.c **** 
 195:C:/StellarisWare/driverlib\usb.c ****     //
 196:C:/StellarisWare/driverlib\usb.c ****     // Set the index.
 197:C:/StellarisWare/driverlib\usb.c ****     //
 198:C:/StellarisWare/driverlib\usb.c ****     HWREGB(ulBase + USB_O_EPIDX) = ulEndpoint;
 123              		.loc 1 198 0
 124 0018 FB68     		ldr	r3, [r7, #12]
 125 001a 03F10E03 		add	r3, r3, #14
 126 001e BA68     		ldr	r2, [r7, #8]
 127 0020 D2B2     		uxtb	r2, r2
 128 0022 1A70     		strb	r2, [r3, #0]
 199:C:/StellarisWare/driverlib\usb.c **** 
 200:C:/StellarisWare/driverlib\usb.c ****     //
 201:C:/StellarisWare/driverlib\usb.c ****     // Determine the size of the register value.
 202:C:/StellarisWare/driverlib\usb.c ****     //
 203:C:/StellarisWare/driverlib\usb.c ****     if(ulSize == 1)
 129              		.loc 1 203 0
 130 0024 3B68     		ldr	r3, [r7, #0]
 131 0026 012B     		cmp	r3, #1
 132 0028 05D1     		bne	.L5
 204:C:/StellarisWare/driverlib\usb.c ****     {
 205:C:/StellarisWare/driverlib\usb.c ****         //
 206:C:/StellarisWare/driverlib\usb.c ****         // Get the value.
 207:C:/StellarisWare/driverlib\usb.c ****         //
 208:C:/StellarisWare/driverlib\usb.c ****         ulValue = HWREGB(ulBase + ulIndexedReg);
 133              		.loc 1 208 0
 134 002a FA68     		ldr	r2, [r7, #12]
 135 002c 7B68     		ldr	r3, [r7, #4]
 136 002e D318     		adds	r3, r2, r3
 137 0030 1B78     		ldrb	r3, [r3, #0]
 138 0032 FB75     		strb	r3, [r7, #23]
 139 0034 05E0     		b	.L6
 140              	.L5:
 209:C:/StellarisWare/driverlib\usb.c ****     }
 210:C:/StellarisWare/driverlib\usb.c ****     else
 211:C:/StellarisWare/driverlib\usb.c ****     {
 212:C:/StellarisWare/driverlib\usb.c ****         //
 213:C:/StellarisWare/driverlib\usb.c ****         // Get the value.
 214:C:/StellarisWare/driverlib\usb.c ****         //
 215:C:/StellarisWare/driverlib\usb.c ****         ulValue = HWREGH(ulBase + ulIndexedReg);
 141              		.loc 1 215 0
 142 0036 FA68     		ldr	r2, [r7, #12]
 143 0038 7B68     		ldr	r3, [r7, #4]
 144 003a D318     		adds	r3, r2, r3
 145 003c 1B88     		ldrh	r3, [r3, #0]	@ movhi
 146 003e 9BB2     		uxth	r3, r3
 147 0040 FB75     		strb	r3, [r7, #23]
 148              	.L6:
 216:C:/StellarisWare/driverlib\usb.c ****     }
 217:C:/StellarisWare/driverlib\usb.c **** 
 218:C:/StellarisWare/driverlib\usb.c ****     //
 219:C:/StellarisWare/driverlib\usb.c ****     // Restore the old index in case it was in use.
 220:C:/StellarisWare/driverlib\usb.c ****     //
 221:C:/StellarisWare/driverlib\usb.c ****     HWREGB(ulBase + USB_O_EPIDX) = ulIndex;
 149              		.loc 1 221 0
 150 0042 FB68     		ldr	r3, [r7, #12]
 151 0044 03F10E03 		add	r3, r3, #14
 152 0048 BA7D     		ldrb	r2, [r7, #22]
 153 004a 1A70     		strb	r2, [r3, #0]
 222:C:/StellarisWare/driverlib\usb.c **** 
 223:C:/StellarisWare/driverlib\usb.c ****     //
 224:C:/StellarisWare/driverlib\usb.c ****     // Return the register's value.
 225:C:/StellarisWare/driverlib\usb.c ****     //
 226:C:/StellarisWare/driverlib\usb.c ****     return(ulValue);
 154              		.loc 1 226 0
 155 004c FB7D     		ldrb	r3, [r7, #23]	@ zero_extendqisi2
 227:C:/StellarisWare/driverlib\usb.c **** }
 156              		.loc 1 227 0
 157 004e 1846     		mov	r0, r3
 158 0050 07F11C07 		add	r7, r7, #28
 159 0054 BD46     		mov	sp, r7
 160 0056 80BC     		pop	{r7}
 161 0058 7047     		bx	lr
 162              		.cfi_endproc
 163              	.LFE1:
 165 005a 00BF     		.section	.text.USBHostSuspend,"ax",%progbits
 166              		.align	2
 167              		.global	USBHostSuspend
 168              		.thumb
 169              		.thumb_func
 171              	USBHostSuspend:
 172              	.LFB2:
 228:C:/StellarisWare/driverlib\usb.c **** 
 229:C:/StellarisWare/driverlib\usb.c **** //*****************************************************************************
 230:C:/StellarisWare/driverlib\usb.c **** //
 231:C:/StellarisWare/driverlib\usb.c **** //! Puts the USB bus in a suspended state.
 232:C:/StellarisWare/driverlib\usb.c **** //!
 233:C:/StellarisWare/driverlib\usb.c **** //! \param ulBase specifies the USB module base address.
 234:C:/StellarisWare/driverlib\usb.c **** //!
 235:C:/StellarisWare/driverlib\usb.c **** //! When used in host mode, this function puts the USB bus in the suspended
 236:C:/StellarisWare/driverlib\usb.c **** //! state.
 237:C:/StellarisWare/driverlib\usb.c **** //!
 238:C:/StellarisWare/driverlib\usb.c **** //! \note This function should only be called in host mode.
 239:C:/StellarisWare/driverlib\usb.c **** //!
 240:C:/StellarisWare/driverlib\usb.c **** //! \return None.
 241:C:/StellarisWare/driverlib\usb.c **** //
 242:C:/StellarisWare/driverlib\usb.c **** //*****************************************************************************
 243:C:/StellarisWare/driverlib\usb.c **** void
 244:C:/StellarisWare/driverlib\usb.c **** USBHostSuspend(unsigned long ulBase)
 245:C:/StellarisWare/driverlib\usb.c **** {
 173              		.loc 1 245 0
 174              		.cfi_startproc
 175              		@ args = 0, pretend = 0, frame = 8
 176              		@ frame_needed = 1, uses_anonymous_args = 0
 177              		@ link register save eliminated.
 178 0000 80B4     		push	{r7}
 179              	.LCFI6:
 180              		.cfi_def_cfa_offset 4
 181              		.cfi_offset 7, -4
 182 0002 83B0     		sub	sp, sp, #12
 183              	.LCFI7:
 184              		.cfi_def_cfa_offset 16
 185 0004 00AF     		add	r7, sp, #0
 186              	.LCFI8:
 187              		.cfi_def_cfa_register 7
 188 0006 7860     		str	r0, [r7, #4]
 246:C:/StellarisWare/driverlib\usb.c ****     //
 247:C:/StellarisWare/driverlib\usb.c ****     // Check the arguments.
 248:C:/StellarisWare/driverlib\usb.c ****     //
 249:C:/StellarisWare/driverlib\usb.c ****     ASSERT(ulBase == USB0_BASE);
 250:C:/StellarisWare/driverlib\usb.c **** 
 251:C:/StellarisWare/driverlib\usb.c ****     //
 252:C:/StellarisWare/driverlib\usb.c ****     // Send the suspend signaling to the USB bus.
 253:C:/StellarisWare/driverlib\usb.c ****     //
 254:C:/StellarisWare/driverlib\usb.c ****     HWREGB(ulBase + USB_O_POWER) |= USB_POWER_SUSPEND;
 189              		.loc 1 254 0
 190 0008 7B68     		ldr	r3, [r7, #4]
 191 000a 03F10103 		add	r3, r3, #1
 192 000e 7A68     		ldr	r2, [r7, #4]
 193 0010 02F10102 		add	r2, r2, #1
 194 0014 1278     		ldrb	r2, [r2, #0]
 195 0016 D2B2     		uxtb	r2, r2
 196 0018 42F00202 		orr	r2, r2, #2
 197 001c D2B2     		uxtb	r2, r2
 198 001e 1A70     		strb	r2, [r3, #0]
 255:C:/StellarisWare/driverlib\usb.c **** }
 199              		.loc 1 255 0
 200 0020 07F10C07 		add	r7, r7, #12
 201 0024 BD46     		mov	sp, r7
 202 0026 80BC     		pop	{r7}
 203 0028 7047     		bx	lr
 204              		.cfi_endproc
 205              	.LFE2:
 207 002a 00BF     		.section	.text.USBHostReset,"ax",%progbits
 208              		.align	2
 209              		.global	USBHostReset
 210              		.thumb
 211              		.thumb_func
 213              	USBHostReset:
 214              	.LFB3:
 256:C:/StellarisWare/driverlib\usb.c **** 
 257:C:/StellarisWare/driverlib\usb.c **** //*****************************************************************************
 258:C:/StellarisWare/driverlib\usb.c **** //
 259:C:/StellarisWare/driverlib\usb.c **** //! Handles the USB bus reset condition.
 260:C:/StellarisWare/driverlib\usb.c **** //!
 261:C:/StellarisWare/driverlib\usb.c **** //! \param ulBase specifies the USB module base address.
 262:C:/StellarisWare/driverlib\usb.c **** //! \param bStart specifies whether to start or stop signaling reset on the USB
 263:C:/StellarisWare/driverlib\usb.c **** //! bus.
 264:C:/StellarisWare/driverlib\usb.c **** //!
 265:C:/StellarisWare/driverlib\usb.c **** //! When this function is called with the \e bStart parameter set to \b true,
 266:C:/StellarisWare/driverlib\usb.c **** //! this function causes the start of a reset condition on the USB bus.
 267:C:/StellarisWare/driverlib\usb.c **** //! The caller should then delay at least 20ms before calling this function
 268:C:/StellarisWare/driverlib\usb.c **** //! again with the \e bStart parameter set to \b false.
 269:C:/StellarisWare/driverlib\usb.c **** //!
 270:C:/StellarisWare/driverlib\usb.c **** //! \note This function should only be called in host mode.
 271:C:/StellarisWare/driverlib\usb.c **** //!
 272:C:/StellarisWare/driverlib\usb.c **** //! \return None.
 273:C:/StellarisWare/driverlib\usb.c **** //
 274:C:/StellarisWare/driverlib\usb.c **** //*****************************************************************************
 275:C:/StellarisWare/driverlib\usb.c **** void
 276:C:/StellarisWare/driverlib\usb.c **** USBHostReset(unsigned long ulBase, tBoolean bStart)
 277:C:/StellarisWare/driverlib\usb.c **** {
 215              		.loc 1 277 0
 216              		.cfi_startproc
 217              		@ args = 0, pretend = 0, frame = 8
 218              		@ frame_needed = 1, uses_anonymous_args = 0
 219              		@ link register save eliminated.
 220 0000 80B4     		push	{r7}
 221              	.LCFI9:
 222              		.cfi_def_cfa_offset 4
 223              		.cfi_offset 7, -4
 224 0002 83B0     		sub	sp, sp, #12
 225              	.LCFI10:
 226              		.cfi_def_cfa_offset 16
 227 0004 00AF     		add	r7, sp, #0
 228              	.LCFI11:
 229              		.cfi_def_cfa_register 7
 230 0006 7860     		str	r0, [r7, #4]
 231 0008 0B46     		mov	r3, r1
 232 000a FB70     		strb	r3, [r7, #3]
 278:C:/StellarisWare/driverlib\usb.c ****     //
 279:C:/StellarisWare/driverlib\usb.c ****     // Check the arguments.
 280:C:/StellarisWare/driverlib\usb.c ****     //
 281:C:/StellarisWare/driverlib\usb.c ****     ASSERT(ulBase == USB0_BASE);
 282:C:/StellarisWare/driverlib\usb.c **** 
 283:C:/StellarisWare/driverlib\usb.c ****     //
 284:C:/StellarisWare/driverlib\usb.c ****     // Send a reset signal to the bus.
 285:C:/StellarisWare/driverlib\usb.c ****     //
 286:C:/StellarisWare/driverlib\usb.c ****     if(bStart)
 233              		.loc 1 286 0
 234 000c FB78     		ldrb	r3, [r7, #3]	@ zero_extendqisi2
 235 000e 002B     		cmp	r3, #0
 236 0010 0CD0     		beq	.L9
 287:C:/StellarisWare/driverlib\usb.c ****     {
 288:C:/StellarisWare/driverlib\usb.c ****         HWREGB(ulBase + USB_O_POWER) |= USB_POWER_RESET;
 237              		.loc 1 288 0
 238 0012 7B68     		ldr	r3, [r7, #4]
 239 0014 03F10103 		add	r3, r3, #1
 240 0018 7A68     		ldr	r2, [r7, #4]
 241 001a 02F10102 		add	r2, r2, #1
 242 001e 1278     		ldrb	r2, [r2, #0]
 243 0020 D2B2     		uxtb	r2, r2
 244 0022 42F00802 		orr	r2, r2, #8
 245 0026 D2B2     		uxtb	r2, r2
 246 0028 1A70     		strb	r2, [r3, #0]
 247 002a 0BE0     		b	.L8
 248              	.L9:
 289:C:/StellarisWare/driverlib\usb.c ****     }
 290:C:/StellarisWare/driverlib\usb.c ****     else
 291:C:/StellarisWare/driverlib\usb.c ****     {
 292:C:/StellarisWare/driverlib\usb.c ****         HWREGB(ulBase + USB_O_POWER) &= ~USB_POWER_RESET;
 249              		.loc 1 292 0
 250 002c 7B68     		ldr	r3, [r7, #4]
 251 002e 03F10103 		add	r3, r3, #1
 252 0032 7A68     		ldr	r2, [r7, #4]
 253 0034 02F10102 		add	r2, r2, #1
 254 0038 1278     		ldrb	r2, [r2, #0]
 255 003a D2B2     		uxtb	r2, r2
 256 003c 22F00802 		bic	r2, r2, #8
 257 0040 D2B2     		uxtb	r2, r2
 258 0042 1A70     		strb	r2, [r3, #0]
 259              	.L8:
 293:C:/StellarisWare/driverlib\usb.c ****     }
 294:C:/StellarisWare/driverlib\usb.c **** }
 260              		.loc 1 294 0
 261 0044 07F10C07 		add	r7, r7, #12
 262 0048 BD46     		mov	sp, r7
 263 004a 80BC     		pop	{r7}
 264 004c 7047     		bx	lr
 265              		.cfi_endproc
 266              	.LFE3:
 268 004e 00BF     		.section	.text.USBHostResume,"ax",%progbits
 269              		.align	2
 270              		.global	USBHostResume
 271              		.thumb
 272              		.thumb_func
 274              	USBHostResume:
 275              	.LFB4:
 295:C:/StellarisWare/driverlib\usb.c **** 
 296:C:/StellarisWare/driverlib\usb.c **** //*****************************************************************************
 297:C:/StellarisWare/driverlib\usb.c **** //
 298:C:/StellarisWare/driverlib\usb.c **** //! Handles the USB bus resume condition.
 299:C:/StellarisWare/driverlib\usb.c **** //!
 300:C:/StellarisWare/driverlib\usb.c **** //! \param ulBase specifies the USB module base address.
 301:C:/StellarisWare/driverlib\usb.c **** //! \param bStart specifies if the USB controller is entering or leaving the
 302:C:/StellarisWare/driverlib\usb.c **** //! resume signaling state.
 303:C:/StellarisWare/driverlib\usb.c **** //!
 304:C:/StellarisWare/driverlib\usb.c **** //! When in device mode, this function brings the USB controller out of the
 305:C:/StellarisWare/driverlib\usb.c **** //! suspend state.  This call should first be made with the \e bStart parameter
 306:C:/StellarisWare/driverlib\usb.c **** //! set to \b true to start resume signaling.  The device application should
 307:C:/StellarisWare/driverlib\usb.c **** //! then delay at least 10ms but not more than 15ms before calling this
 308:C:/StellarisWare/driverlib\usb.c **** //! function with the \e bStart parameter set to \b false.
 309:C:/StellarisWare/driverlib\usb.c **** //!
 310:C:/StellarisWare/driverlib\usb.c **** //! When in host mode, this function signals devices to leave the suspend
 311:C:/StellarisWare/driverlib\usb.c **** //! state.  This call should first be made with the \e bStart parameter set to
 312:C:/StellarisWare/driverlib\usb.c **** //! \b true to start resume signaling.  The host application should then delay
 313:C:/StellarisWare/driverlib\usb.c **** //! at least 20ms before calling this function with the \e bStart parameter set
 314:C:/StellarisWare/driverlib\usb.c **** //! to \b false.  This action causes the controller to complete the resume
 315:C:/StellarisWare/driverlib\usb.c **** //! signaling on the USB bus.
 316:C:/StellarisWare/driverlib\usb.c **** //!
 317:C:/StellarisWare/driverlib\usb.c **** //! \return None.
 318:C:/StellarisWare/driverlib\usb.c **** //
 319:C:/StellarisWare/driverlib\usb.c **** //*****************************************************************************
 320:C:/StellarisWare/driverlib\usb.c **** void
 321:C:/StellarisWare/driverlib\usb.c **** USBHostResume(unsigned long ulBase, tBoolean bStart)
 322:C:/StellarisWare/driverlib\usb.c **** {
 276              		.loc 1 322 0
 277              		.cfi_startproc
 278              		@ args = 0, pretend = 0, frame = 8
 279              		@ frame_needed = 1, uses_anonymous_args = 0
 280              		@ link register save eliminated.
 281 0000 80B4     		push	{r7}
 282              	.LCFI12:
 283              		.cfi_def_cfa_offset 4
 284              		.cfi_offset 7, -4
 285 0002 83B0     		sub	sp, sp, #12
 286              	.LCFI13:
 287              		.cfi_def_cfa_offset 16
 288 0004 00AF     		add	r7, sp, #0
 289              	.LCFI14:
 290              		.cfi_def_cfa_register 7
 291 0006 7860     		str	r0, [r7, #4]
 292 0008 0B46     		mov	r3, r1
 293 000a FB70     		strb	r3, [r7, #3]
 323:C:/StellarisWare/driverlib\usb.c ****     //
 324:C:/StellarisWare/driverlib\usb.c ****     // Check the arguments.
 325:C:/StellarisWare/driverlib\usb.c ****     //
 326:C:/StellarisWare/driverlib\usb.c ****     ASSERT(ulBase == USB0_BASE);
 327:C:/StellarisWare/driverlib\usb.c **** 
 328:C:/StellarisWare/driverlib\usb.c ****     //
 329:C:/StellarisWare/driverlib\usb.c ****     // Send a resume signal to the bus.
 330:C:/StellarisWare/driverlib\usb.c ****     //
 331:C:/StellarisWare/driverlib\usb.c ****     if(bStart)
 294              		.loc 1 331 0
 295 000c FB78     		ldrb	r3, [r7, #3]	@ zero_extendqisi2
 296 000e 002B     		cmp	r3, #0
 297 0010 0CD0     		beq	.L12
 332:C:/StellarisWare/driverlib\usb.c ****     {
 333:C:/StellarisWare/driverlib\usb.c ****         HWREGB(ulBase + USB_O_POWER) |= USB_POWER_RESUME;
 298              		.loc 1 333 0
 299 0012 7B68     		ldr	r3, [r7, #4]
 300 0014 03F10103 		add	r3, r3, #1
 301 0018 7A68     		ldr	r2, [r7, #4]
 302 001a 02F10102 		add	r2, r2, #1
 303 001e 1278     		ldrb	r2, [r2, #0]
 304 0020 D2B2     		uxtb	r2, r2
 305 0022 42F00402 		orr	r2, r2, #4
 306 0026 D2B2     		uxtb	r2, r2
 307 0028 1A70     		strb	r2, [r3, #0]
 308 002a 0BE0     		b	.L11
 309              	.L12:
 334:C:/StellarisWare/driverlib\usb.c ****     }
 335:C:/StellarisWare/driverlib\usb.c ****     else
 336:C:/StellarisWare/driverlib\usb.c ****     {
 337:C:/StellarisWare/driverlib\usb.c ****         HWREGB(ulBase + USB_O_POWER) &= ~USB_POWER_RESUME;
 310              		.loc 1 337 0
 311 002c 7B68     		ldr	r3, [r7, #4]
 312 002e 03F10103 		add	r3, r3, #1
 313 0032 7A68     		ldr	r2, [r7, #4]
 314 0034 02F10102 		add	r2, r2, #1
 315 0038 1278     		ldrb	r2, [r2, #0]
 316 003a D2B2     		uxtb	r2, r2
 317 003c 22F00402 		bic	r2, r2, #4
 318 0040 D2B2     		uxtb	r2, r2
 319 0042 1A70     		strb	r2, [r3, #0]
 320              	.L11:
 338:C:/StellarisWare/driverlib\usb.c ****     }
 339:C:/StellarisWare/driverlib\usb.c **** }
 321              		.loc 1 339 0
 322 0044 07F10C07 		add	r7, r7, #12
 323 0048 BD46     		mov	sp, r7
 324 004a 80BC     		pop	{r7}
 325 004c 7047     		bx	lr
 326              		.cfi_endproc
 327              	.LFE4:
 329 004e 00BF     		.section	.text.USBHostSpeedGet,"ax",%progbits
 330              		.align	2
 331              		.global	USBHostSpeedGet
 332              		.thumb
 333              		.thumb_func
 335              	USBHostSpeedGet:
 336              	.LFB5:
 340:C:/StellarisWare/driverlib\usb.c **** 
 341:C:/StellarisWare/driverlib\usb.c **** //*****************************************************************************
 342:C:/StellarisWare/driverlib\usb.c **** //
 343:C:/StellarisWare/driverlib\usb.c **** //! Returns the current speed of the USB device connected.
 344:C:/StellarisWare/driverlib\usb.c **** //!
 345:C:/StellarisWare/driverlib\usb.c **** //! \param ulBase specifies the USB module base address.
 346:C:/StellarisWare/driverlib\usb.c **** //!
 347:C:/StellarisWare/driverlib\usb.c **** //! This function returns the current speed of the USB bus.
 348:C:/StellarisWare/driverlib\usb.c **** //!
 349:C:/StellarisWare/driverlib\usb.c **** //! \note This function should only be called in host mode.
 350:C:/StellarisWare/driverlib\usb.c **** //!
 351:C:/StellarisWare/driverlib\usb.c **** //! \return Returns either \b USB_LOW_SPEED, \b USB_FULL_SPEED, or
 352:C:/StellarisWare/driverlib\usb.c **** //! \b USB_UNDEF_SPEED.
 353:C:/StellarisWare/driverlib\usb.c **** //
 354:C:/StellarisWare/driverlib\usb.c **** //*****************************************************************************
 355:C:/StellarisWare/driverlib\usb.c **** unsigned long
 356:C:/StellarisWare/driverlib\usb.c **** USBHostSpeedGet(unsigned long ulBase)
 357:C:/StellarisWare/driverlib\usb.c **** {
 337              		.loc 1 357 0
 338              		.cfi_startproc
 339              		@ args = 0, pretend = 0, frame = 8
 340              		@ frame_needed = 1, uses_anonymous_args = 0
 341              		@ link register save eliminated.
 342 0000 80B4     		push	{r7}
 343              	.LCFI15:
 344              		.cfi_def_cfa_offset 4
 345              		.cfi_offset 7, -4
 346 0002 83B0     		sub	sp, sp, #12
 347              	.LCFI16:
 348              		.cfi_def_cfa_offset 16
 349 0004 00AF     		add	r7, sp, #0
 350              	.LCFI17:
 351              		.cfi_def_cfa_register 7
 352 0006 7860     		str	r0, [r7, #4]
 358:C:/StellarisWare/driverlib\usb.c ****     //
 359:C:/StellarisWare/driverlib\usb.c ****     // Check the arguments.
 360:C:/StellarisWare/driverlib\usb.c ****     //
 361:C:/StellarisWare/driverlib\usb.c ****     ASSERT(ulBase == USB0_BASE);
 362:C:/StellarisWare/driverlib\usb.c **** 
 363:C:/StellarisWare/driverlib\usb.c ****     //
 364:C:/StellarisWare/driverlib\usb.c ****     // If the Full Speed device bit is set, then this is a full speed device.
 365:C:/StellarisWare/driverlib\usb.c ****     //
 366:C:/StellarisWare/driverlib\usb.c ****     if(HWREGB(ulBase + USB_O_DEVCTL) & USB_DEVCTL_FSDEV)
 353              		.loc 1 366 0
 354 0008 7B68     		ldr	r3, [r7, #4]
 355 000a 03F16003 		add	r3, r3, #96
 356 000e 1B78     		ldrb	r3, [r3, #0]
 357 0010 DBB2     		uxtb	r3, r3
 358 0012 03F04003 		and	r3, r3, #64
 359 0016 002B     		cmp	r3, #0
 360 0018 02D0     		beq	.L15
 367:C:/StellarisWare/driverlib\usb.c ****     {
 368:C:/StellarisWare/driverlib\usb.c ****         return(USB_FULL_SPEED);
 361              		.loc 1 368 0
 362 001a 4FF00103 		mov	r3, #1
 363 001e 0DE0     		b	.L16
 364              	.L15:
 369:C:/StellarisWare/driverlib\usb.c ****     }
 370:C:/StellarisWare/driverlib\usb.c **** 
 371:C:/StellarisWare/driverlib\usb.c ****     //
 372:C:/StellarisWare/driverlib\usb.c ****     // If the Low Speed device bit is set, then this is a low speed device.
 373:C:/StellarisWare/driverlib\usb.c ****     //
 374:C:/StellarisWare/driverlib\usb.c ****     if(HWREGB(ulBase + USB_O_DEVCTL) & USB_DEVCTL_LSDEV)
 365              		.loc 1 374 0
 366 0020 7B68     		ldr	r3, [r7, #4]
 367 0022 03F16003 		add	r3, r3, #96
 368 0026 1B78     		ldrb	r3, [r3, #0]
 369 0028 DBB2     		uxtb	r3, r3
 370 002a 03F02003 		and	r3, r3, #32
 371 002e 002B     		cmp	r3, #0
 372 0030 02D0     		beq	.L17
 375:C:/StellarisWare/driverlib\usb.c ****     {
 376:C:/StellarisWare/driverlib\usb.c ****         return(USB_LOW_SPEED);
 373              		.loc 1 376 0
 374 0032 4FF00003 		mov	r3, #0
 375 0036 01E0     		b	.L16
 376              	.L17:
 377:C:/StellarisWare/driverlib\usb.c ****     }
 378:C:/StellarisWare/driverlib\usb.c **** 
 379:C:/StellarisWare/driverlib\usb.c ****     //
 380:C:/StellarisWare/driverlib\usb.c ****     // The device speed is not known.
 381:C:/StellarisWare/driverlib\usb.c ****     //
 382:C:/StellarisWare/driverlib\usb.c ****     return(USB_UNDEF_SPEED);
 377              		.loc 1 382 0
 378 0038 4FF00043 		mov	r3, #-2147483648
 379              	.L16:
 383:C:/StellarisWare/driverlib\usb.c **** }
 380              		.loc 1 383 0
 381 003c 1846     		mov	r0, r3
 382 003e 07F10C07 		add	r7, r7, #12
 383 0042 BD46     		mov	sp, r7
 384 0044 80BC     		pop	{r7}
 385 0046 7047     		bx	lr
 386              		.cfi_endproc
 387              	.LFE5:
 389              		.section	.text.USBIntStatus,"ax",%progbits
 390              		.align	2
 391              		.global	USBIntStatus
 392              		.thumb
 393              		.thumb_func
 395              	USBIntStatus:
 396              	.LFB6:
 384:C:/StellarisWare/driverlib\usb.c **** 
 385:C:/StellarisWare/driverlib\usb.c **** //*****************************************************************************
 386:C:/StellarisWare/driverlib\usb.c **** //
 387:C:/StellarisWare/driverlib\usb.c **** //! Returns the status of the USB interrupts.
 388:C:/StellarisWare/driverlib\usb.c **** //!
 389:C:/StellarisWare/driverlib\usb.c **** //! \param ulBase specifies the USB module base address.
 390:C:/StellarisWare/driverlib\usb.c **** //!
 391:C:/StellarisWare/driverlib\usb.c **** //! This function reads the source of the interrupt for the USB controller.
 392:C:/StellarisWare/driverlib\usb.c **** //! There are three groups of interrupt sources, IN Endpoints, OUT Endpoints,
 393:C:/StellarisWare/driverlib\usb.c **** //! and general status changes.  This call returns the current status for
 394:C:/StellarisWare/driverlib\usb.c **** //! all of these interrupts.  The bit values returned should be compared
 395:C:/StellarisWare/driverlib\usb.c **** //! against the \b USB_HOST_IN, \b USB_HOST_OUT, \b USB_HOST_EP0,
 396:C:/StellarisWare/driverlib\usb.c **** //! \b USB_DEV_IN, \b USB_DEV_OUT, and \b USB_DEV_EP0 values.
 397:C:/StellarisWare/driverlib\usb.c **** //!
 398:C:/StellarisWare/driverlib\usb.c **** //! \note This call clears the source of all of the general status interrupts.
 399:C:/StellarisWare/driverlib\usb.c **** //!
 400:C:/StellarisWare/driverlib\usb.c **** //! \note WARNING: This API cannot be used on endpoint numbers greater than
 401:C:/StellarisWare/driverlib\usb.c **** //! endpoint 3 so USBIntStatusControl() or USBIntStatusEndpoint() should be
 402:C:/StellarisWare/driverlib\usb.c **** //! used instead.
 403:C:/StellarisWare/driverlib\usb.c **** //!
 404:C:/StellarisWare/driverlib\usb.c **** //! \return Returns the status of the sources for the USB controller's
 405:C:/StellarisWare/driverlib\usb.c **** //! interrupt.
 406:C:/StellarisWare/driverlib\usb.c **** //
 407:C:/StellarisWare/driverlib\usb.c **** //*****************************************************************************
 408:C:/StellarisWare/driverlib\usb.c **** #ifndef DEPRECATED
 409:C:/StellarisWare/driverlib\usb.c **** unsigned long
 410:C:/StellarisWare/driverlib\usb.c **** USBIntStatus(unsigned long ulBase)
 411:C:/StellarisWare/driverlib\usb.c **** {
 397              		.loc 1 411 0
 398              		.cfi_startproc
 399              		@ args = 0, pretend = 0, frame = 16
 400              		@ frame_needed = 1, uses_anonymous_args = 0
 401              		@ link register save eliminated.
 402 0000 80B4     		push	{r7}
 403              	.LCFI18:
 404              		.cfi_def_cfa_offset 4
 405              		.cfi_offset 7, -4
 406 0002 85B0     		sub	sp, sp, #20
 407              	.LCFI19:
 408              		.cfi_def_cfa_offset 24
 409 0004 00AF     		add	r7, sp, #0
 410              	.LCFI20:
 411              		.cfi_def_cfa_register 7
 412 0006 7860     		str	r0, [r7, #4]
 412:C:/StellarisWare/driverlib\usb.c ****     unsigned long ulStatus;
 413:C:/StellarisWare/driverlib\usb.c **** 
 414:C:/StellarisWare/driverlib\usb.c ****     //
 415:C:/StellarisWare/driverlib\usb.c ****     // Check the arguments.
 416:C:/StellarisWare/driverlib\usb.c ****     //
 417:C:/StellarisWare/driverlib\usb.c ****     ASSERT(ulBase == USB0_BASE);
 418:C:/StellarisWare/driverlib\usb.c **** 
 419:C:/StellarisWare/driverlib\usb.c ****     //
 420:C:/StellarisWare/driverlib\usb.c ****     // Get the transmit interrupt status.
 421:C:/StellarisWare/driverlib\usb.c ****     //
 422:C:/StellarisWare/driverlib\usb.c ****     ulStatus = (HWREGB(ulBase + USB_O_TXIS));
 413              		.loc 1 422 0
 414 0008 7B68     		ldr	r3, [r7, #4]
 415 000a 03F10203 		add	r3, r3, #2
 416 000e 1B78     		ldrb	r3, [r3, #0]
 417 0010 DBB2     		uxtb	r3, r3
 418 0012 FB60     		str	r3, [r7, #12]
 423:C:/StellarisWare/driverlib\usb.c **** 
 424:C:/StellarisWare/driverlib\usb.c ****     //
 425:C:/StellarisWare/driverlib\usb.c ****     // Get the receive interrupt status, these bits go into the second byte of
 426:C:/StellarisWare/driverlib\usb.c ****     // the returned value.
 427:C:/StellarisWare/driverlib\usb.c ****     //
 428:C:/StellarisWare/driverlib\usb.c ****     ulStatus |= (HWREGB(ulBase + USB_O_RXIS) << USB_INT_RX_SHIFT);
 419              		.loc 1 428 0
 420 0014 7B68     		ldr	r3, [r7, #4]
 421 0016 03F10403 		add	r3, r3, #4
 422 001a 1B78     		ldrb	r3, [r3, #0]
 423 001c DBB2     		uxtb	r3, r3
 424 001e 4FEA0323 		lsl	r3, r3, #8
 425 0022 FA68     		ldr	r2, [r7, #12]
 426 0024 1343     		orrs	r3, r3, r2
 427 0026 FB60     		str	r3, [r7, #12]
 429:C:/StellarisWare/driverlib\usb.c **** 
 430:C:/StellarisWare/driverlib\usb.c ****     //
 431:C:/StellarisWare/driverlib\usb.c ****     // Get the general interrupt status, these bits go into the upper 8 bits
 432:C:/StellarisWare/driverlib\usb.c ****     // of the returned value.
 433:C:/StellarisWare/driverlib\usb.c ****     //
 434:C:/StellarisWare/driverlib\usb.c ****     ulStatus |= (HWREGB(ulBase + USB_O_IS) << USB_INT_STATUS_SHIFT);
 428              		.loc 1 434 0
 429 0028 7B68     		ldr	r3, [r7, #4]
 430 002a 03F10A03 		add	r3, r3, #10
 431 002e 1B78     		ldrb	r3, [r3, #0]
 432 0030 DBB2     		uxtb	r3, r3
 433 0032 4FEA0363 		lsl	r3, r3, #24
 434 0036 FA68     		ldr	r2, [r7, #12]
 435 0038 1343     		orrs	r3, r3, r2
 436 003a FB60     		str	r3, [r7, #12]
 435:C:/StellarisWare/driverlib\usb.c **** 
 436:C:/StellarisWare/driverlib\usb.c ****     //
 437:C:/StellarisWare/driverlib\usb.c ****     // Add the power fault status.
 438:C:/StellarisWare/driverlib\usb.c ****     //
 439:C:/StellarisWare/driverlib\usb.c ****     if(HWREG(ulBase + USB_O_EPCISC) & USB_EPCISC_PF)
 437              		.loc 1 439 0
 438 003c 7B68     		ldr	r3, [r7, #4]
 439 003e 03F58063 		add	r3, r3, #1024
 440 0042 03F10C03 		add	r3, r3, #12
 441 0046 1B68     		ldr	r3, [r3, #0]
 442 0048 03F00103 		and	r3, r3, #1
 443 004c DBB2     		uxtb	r3, r3
 444 004e 002B     		cmp	r3, #0
 445 0050 14D0     		beq	.L19
 440:C:/StellarisWare/driverlib\usb.c ****     {
 441:C:/StellarisWare/driverlib\usb.c ****         //
 442:C:/StellarisWare/driverlib\usb.c ****         // Indicate a power fault was detected.
 443:C:/StellarisWare/driverlib\usb.c ****         //
 444:C:/StellarisWare/driverlib\usb.c ****         ulStatus |= USB_INT_POWER_FAULT;
 446              		.loc 1 444 0
 447 0052 FB68     		ldr	r3, [r7, #12]
 448 0054 43F48033 		orr	r3, r3, #65536
 449 0058 FB60     		str	r3, [r7, #12]
 445:C:/StellarisWare/driverlib\usb.c **** 
 446:C:/StellarisWare/driverlib\usb.c ****         //
 447:C:/StellarisWare/driverlib\usb.c ****         // Clear the power fault interrupt.
 448:C:/StellarisWare/driverlib\usb.c ****         //
 449:C:/StellarisWare/driverlib\usb.c ****         HWREGB(ulBase + USB_O_EPCISC) |= USB_EPCISC_PF;
 450              		.loc 1 449 0
 451 005a 7B68     		ldr	r3, [r7, #4]
 452 005c 03F58063 		add	r3, r3, #1024
 453 0060 03F10C03 		add	r3, r3, #12
 454 0064 1A46     		mov	r2, r3
 455 0066 7B68     		ldr	r3, [r7, #4]
 456 0068 03F58063 		add	r3, r3, #1024
 457 006c 03F10C03 		add	r3, r3, #12
 458 0070 1B78     		ldrb	r3, [r3, #0]
 459 0072 DBB2     		uxtb	r3, r3
 460 0074 43F00103 		orr	r3, r3, #1
 461 0078 DBB2     		uxtb	r3, r3
 462 007a 1370     		strb	r3, [r2, #0]
 463              	.L19:
 450:C:/StellarisWare/driverlib\usb.c ****     }
 451:C:/StellarisWare/driverlib\usb.c **** 
 452:C:/StellarisWare/driverlib\usb.c ****     if(HWREG(USB0_BASE + USB_O_IDVISC) & USB_IDVRIS_ID)
 464              		.loc 1 452 0
 465 007c 40F24C43 		movw	r3, #1100
 466 0080 C4F20503 		movt	r3, 16389
 467 0084 1B68     		ldr	r3, [r3, #0]
 468 0086 03F00103 		and	r3, r3, #1
 469 008a DBB2     		uxtb	r3, r3
 470 008c 002B     		cmp	r3, #0
 471 008e 0FD0     		beq	.L20
 453:C:/StellarisWare/driverlib\usb.c ****     {
 454:C:/StellarisWare/driverlib\usb.c ****         //
 455:C:/StellarisWare/driverlib\usb.c ****         // Indicate an id detection was detected.
 456:C:/StellarisWare/driverlib\usb.c ****         //
 457:C:/StellarisWare/driverlib\usb.c ****         ulStatus |= USB_INT_MODE_DETECT;
 472              		.loc 1 457 0
 473 0090 FB68     		ldr	r3, [r7, #12]
 474 0092 43F40033 		orr	r3, r3, #131072
 475 0096 FB60     		str	r3, [r7, #12]
 458:C:/StellarisWare/driverlib\usb.c **** 
 459:C:/StellarisWare/driverlib\usb.c ****         //
 460:C:/StellarisWare/driverlib\usb.c ****         // Clear the id detection interrupt.
 461:C:/StellarisWare/driverlib\usb.c ****         //
 462:C:/StellarisWare/driverlib\usb.c ****         HWREG(USB0_BASE + USB_O_IDVISC) |= USB_IDVRIS_ID;
 476              		.loc 1 462 0
 477 0098 40F24C43 		movw	r3, #1100
 478 009c C4F20503 		movt	r3, 16389
 479 00a0 40F24C42 		movw	r2, #1100
 480 00a4 C4F20502 		movt	r2, 16389
 481 00a8 1268     		ldr	r2, [r2, #0]
 482 00aa 42F00102 		orr	r2, r2, #1
 483 00ae 1A60     		str	r2, [r3, #0]
 484              	.L20:
 463:C:/StellarisWare/driverlib\usb.c ****     }
 464:C:/StellarisWare/driverlib\usb.c **** 
 465:C:/StellarisWare/driverlib\usb.c ****     //
 466:C:/StellarisWare/driverlib\usb.c ****     // Return the combined interrupt status.
 467:C:/StellarisWare/driverlib\usb.c ****     //
 468:C:/StellarisWare/driverlib\usb.c ****     return(ulStatus);
 485              		.loc 1 468 0
 486 00b0 FB68     		ldr	r3, [r7, #12]
 469:C:/StellarisWare/driverlib\usb.c **** }
 487              		.loc 1 469 0
 488 00b2 1846     		mov	r0, r3
 489 00b4 07F11407 		add	r7, r7, #20
 490 00b8 BD46     		mov	sp, r7
 491 00ba 80BC     		pop	{r7}
 492 00bc 7047     		bx	lr
 493              		.cfi_endproc
 494              	.LFE6:
 496 00be 00BF     		.section	.text.USBIntDisable,"ax",%progbits
 497              		.align	2
 498              		.global	USBIntDisable
 499              		.thumb
 500              		.thumb_func
 502              	USBIntDisable:
 503              	.LFB7:
 470:C:/StellarisWare/driverlib\usb.c **** #endif
 471:C:/StellarisWare/driverlib\usb.c **** 
 472:C:/StellarisWare/driverlib\usb.c **** //*****************************************************************************
 473:C:/StellarisWare/driverlib\usb.c **** //
 474:C:/StellarisWare/driverlib\usb.c **** //! Disables the sources for USB interrupts.
 475:C:/StellarisWare/driverlib\usb.c **** //!
 476:C:/StellarisWare/driverlib\usb.c **** //! \param ulBase specifies the USB module base address.
 477:C:/StellarisWare/driverlib\usb.c **** //! \param ulFlags specifies which interrupts to disable.
 478:C:/StellarisWare/driverlib\usb.c **** //!
 479:C:/StellarisWare/driverlib\usb.c **** //! This function disables the USB controller from generating the
 480:C:/StellarisWare/driverlib\usb.c **** //! interrupts indicated by the \e ulFlags parameter.  There are three groups
 481:C:/StellarisWare/driverlib\usb.c **** //! of interrupt sources, IN Endpoints, OUT Endpoints, and general status
 482:C:/StellarisWare/driverlib\usb.c **** //! changes, specified by \b USB_INT_HOST_IN, \b USB_INT_HOST_OUT,
 483:C:/StellarisWare/driverlib\usb.c **** //! \b USB_INT_DEV_IN, \b USB_INT_DEV_OUT, and \b USB_INT_STATUS.  If
 484:C:/StellarisWare/driverlib\usb.c **** //! \b USB_INT_ALL is specified, then all interrupts are disabled.
 485:C:/StellarisWare/driverlib\usb.c **** //!
 486:C:/StellarisWare/driverlib\usb.c **** //! \note WARNING: This API cannot be used on endpoint numbers greater than
 487:C:/StellarisWare/driverlib\usb.c **** //! endpoint 3 so USBIntDisableControl() or USBIntDisableEndpoint() should be
 488:C:/StellarisWare/driverlib\usb.c **** //! used instead.
 489:C:/StellarisWare/driverlib\usb.c **** //!
 490:C:/StellarisWare/driverlib\usb.c **** //! \return None.
 491:C:/StellarisWare/driverlib\usb.c **** //
 492:C:/StellarisWare/driverlib\usb.c **** //*****************************************************************************
 493:C:/StellarisWare/driverlib\usb.c **** #ifndef DEPRECATED
 494:C:/StellarisWare/driverlib\usb.c **** void
 495:C:/StellarisWare/driverlib\usb.c **** USBIntDisable(unsigned long ulBase, unsigned long ulFlags)
 496:C:/StellarisWare/driverlib\usb.c **** {
 504              		.loc 1 496 0
 505              		.cfi_startproc
 506              		@ args = 0, pretend = 0, frame = 8
 507              		@ frame_needed = 1, uses_anonymous_args = 0
 508              		@ link register save eliminated.
 509 0000 80B4     		push	{r7}
 510              	.LCFI21:
 511              		.cfi_def_cfa_offset 4
 512              		.cfi_offset 7, -4
 513 0002 83B0     		sub	sp, sp, #12
 514              	.LCFI22:
 515              		.cfi_def_cfa_offset 16
 516 0004 00AF     		add	r7, sp, #0
 517              	.LCFI23:
 518              		.cfi_def_cfa_register 7
 519 0006 7860     		str	r0, [r7, #4]
 520 0008 3960     		str	r1, [r7, #0]
 497:C:/StellarisWare/driverlib\usb.c ****     //
 498:C:/StellarisWare/driverlib\usb.c ****     // Check the arguments.
 499:C:/StellarisWare/driverlib\usb.c ****     //
 500:C:/StellarisWare/driverlib\usb.c ****     ASSERT(ulBase == USB0_BASE);
 501:C:/StellarisWare/driverlib\usb.c ****     ASSERT((ulFlags & ~(USB_INT_ALL)) == 0);
 502:C:/StellarisWare/driverlib\usb.c **** 
 503:C:/StellarisWare/driverlib\usb.c ****     //
 504:C:/StellarisWare/driverlib\usb.c ****     // If any transmit interrupts were disabled, then write the transmit
 505:C:/StellarisWare/driverlib\usb.c ****     // interrupt settings out to the hardware.
 506:C:/StellarisWare/driverlib\usb.c ****     //
 507:C:/StellarisWare/driverlib\usb.c ****     if(ulFlags & (USB_INT_HOST_OUT | USB_INT_DEV_IN | USB_INT_EP0))
 521              		.loc 1 507 0
 522 000a 3B68     		ldr	r3, [r7, #0]
 523 000c 03F00F03 		and	r3, r3, #15
 524 0010 002B     		cmp	r3, #0
 525 0012 12D0     		beq	.L22
 508:C:/StellarisWare/driverlib\usb.c ****     {
 509:C:/StellarisWare/driverlib\usb.c ****         HWREGH(ulBase + USB_O_TXIE) &=
 526              		.loc 1 509 0
 527 0014 7B68     		ldr	r3, [r7, #4]
 528 0016 03F10603 		add	r3, r3, #6
 529 001a 7A68     		ldr	r2, [r7, #4]
 530 001c 02F10602 		add	r2, r2, #6
 531 0020 1288     		ldrh	r2, [r2, #0]	@ movhi
 532 0022 91B2     		uxth	r1, r2
 533 0024 3A68     		ldr	r2, [r7, #0]
 534 0026 92B2     		uxth	r2, r2
 535 0028 02F00F02 		and	r2, r2, #15
 536 002c 92B2     		uxth	r2, r2
 537 002e 6FEA0202 		mvn	r2, r2
 538 0032 92B2     		uxth	r2, r2
 539 0034 0A40     		ands	r2, r2, r1
 540 0036 92B2     		uxth	r2, r2
 541 0038 1A80     		strh	r2, [r3, #0]	@ movhi
 542              	.L22:
 510:C:/StellarisWare/driverlib\usb.c ****             ~(ulFlags & (USB_INT_HOST_OUT | USB_INT_DEV_IN | USB_INT_EP0));
 511:C:/StellarisWare/driverlib\usb.c ****     }
 512:C:/StellarisWare/driverlib\usb.c **** 
 513:C:/StellarisWare/driverlib\usb.c ****     //
 514:C:/StellarisWare/driverlib\usb.c ****     // If any receive interrupts were disabled, then write the receive
 515:C:/StellarisWare/driverlib\usb.c ****     // interrupt settings out to the hardware.
 516:C:/StellarisWare/driverlib\usb.c ****     //
 517:C:/StellarisWare/driverlib\usb.c ****     if(ulFlags & (USB_INT_HOST_IN | USB_INT_DEV_OUT))
 543              		.loc 1 517 0
 544 003a 3B68     		ldr	r3, [r7, #0]
 545 003c 03F46063 		and	r3, r3, #3584
 546 0040 002B     		cmp	r3, #0
 547 0042 13D0     		beq	.L23
 518:C:/StellarisWare/driverlib\usb.c ****     {
 519:C:/StellarisWare/driverlib\usb.c ****         HWREGH(ulBase + USB_O_RXIE) &=
 548              		.loc 1 519 0
 549 0044 7B68     		ldr	r3, [r7, #4]
 550 0046 03F10803 		add	r3, r3, #8
 551 004a 7A68     		ldr	r2, [r7, #4]
 552 004c 02F10802 		add	r2, r2, #8
 553 0050 1288     		ldrh	r2, [r2, #0]	@ movhi
 554 0052 91B2     		uxth	r1, r2
 520:C:/StellarisWare/driverlib\usb.c ****             ~((ulFlags & (USB_INT_HOST_IN | USB_INT_DEV_OUT)) >>
 555              		.loc 1 520 0
 556 0054 3A68     		ldr	r2, [r7, #0]
 557 0056 02F46062 		and	r2, r2, #3584
 558 005a 4FEA1222 		lsr	r2, r2, #8
 519:C:/StellarisWare/driverlib\usb.c ****         HWREGH(ulBase + USB_O_RXIE) &=
 559              		.loc 1 519 0
 560 005e 92B2     		uxth	r2, r2
 561 0060 6FEA0202 		mvn	r2, r2
 562 0064 92B2     		uxth	r2, r2
 563 0066 0A40     		ands	r2, r2, r1
 564 0068 92B2     		uxth	r2, r2
 565 006a 1A80     		strh	r2, [r3, #0]	@ movhi
 566              	.L23:
 521:C:/StellarisWare/driverlib\usb.c ****               USB_INT_RX_SHIFT);
 522:C:/StellarisWare/driverlib\usb.c ****     }
 523:C:/StellarisWare/driverlib\usb.c **** 
 524:C:/StellarisWare/driverlib\usb.c ****     //
 525:C:/StellarisWare/driverlib\usb.c ****     // If any general interrupts were disabled, then write the general
 526:C:/StellarisWare/driverlib\usb.c ****     // interrupt settings out to the hardware.
 527:C:/StellarisWare/driverlib\usb.c ****     //
 528:C:/StellarisWare/driverlib\usb.c ****     if(ulFlags & USB_INT_STATUS)
 567              		.loc 1 528 0
 568 006c 3B68     		ldr	r3, [r7, #0]
 569 006e 03F07F43 		and	r3, r3, #-16777216
 570 0072 002B     		cmp	r3, #0
 571 0074 11D0     		beq	.L24
 529:C:/StellarisWare/driverlib\usb.c ****     {
 530:C:/StellarisWare/driverlib\usb.c ****         HWREGB(ulBase + USB_O_IE) &=
 572              		.loc 1 530 0
 573 0076 7B68     		ldr	r3, [r7, #4]
 574 0078 03F10B03 		add	r3, r3, #11
 575 007c 7A68     		ldr	r2, [r7, #4]
 576 007e 02F10B02 		add	r2, r2, #11
 577 0082 1278     		ldrb	r2, [r2, #0]
 578 0084 D1B2     		uxtb	r1, r2
 531:C:/StellarisWare/driverlib\usb.c ****             ~((ulFlags & USB_INT_STATUS) >> USB_INT_STATUS_SHIFT);
 579              		.loc 1 531 0
 580 0086 3A68     		ldr	r2, [r7, #0]
 581 0088 4FEA1262 		lsr	r2, r2, #24
 530:C:/StellarisWare/driverlib\usb.c ****         HWREGB(ulBase + USB_O_IE) &=
 582              		.loc 1 530 0
 583 008c D2B2     		uxtb	r2, r2
 584 008e 6FEA0202 		mvn	r2, r2
 585 0092 D2B2     		uxtb	r2, r2
 586 0094 0A40     		ands	r2, r2, r1
 587 0096 D2B2     		uxtb	r2, r2
 588 0098 1A70     		strb	r2, [r3, #0]
 589              	.L24:
 532:C:/StellarisWare/driverlib\usb.c ****     }
 533:C:/StellarisWare/driverlib\usb.c **** 
 534:C:/StellarisWare/driverlib\usb.c ****     //
 535:C:/StellarisWare/driverlib\usb.c ****     // Disable the power fault interrupt.
 536:C:/StellarisWare/driverlib\usb.c ****     //
 537:C:/StellarisWare/driverlib\usb.c ****     if(ulFlags & USB_INT_POWER_FAULT)
 590              		.loc 1 537 0
 591 009a 3B68     		ldr	r3, [r7, #0]
 592 009c 03F48033 		and	r3, r3, #65536
 593 00a0 002B     		cmp	r3, #0
 594 00a2 05D0     		beq	.L25
 538:C:/StellarisWare/driverlib\usb.c ****     {
 539:C:/StellarisWare/driverlib\usb.c ****         HWREG(ulBase + USB_O_EPCIM) = 0;
 595              		.loc 1 539 0
 596 00a4 7B68     		ldr	r3, [r7, #4]
 597 00a6 03F58163 		add	r3, r3, #1032
 598 00aa 4FF00002 		mov	r2, #0
 599 00ae 1A60     		str	r2, [r3, #0]
 600              	.L25:
 540:C:/StellarisWare/driverlib\usb.c ****     }
 541:C:/StellarisWare/driverlib\usb.c **** 
 542:C:/StellarisWare/driverlib\usb.c ****     //
 543:C:/StellarisWare/driverlib\usb.c ****     // Disable the ID pin detect interrupt.
 544:C:/StellarisWare/driverlib\usb.c ****     //
 545:C:/StellarisWare/driverlib\usb.c ****     if(ulFlags & USB_INT_MODE_DETECT)
 601              		.loc 1 545 0
 602 00b0 3B68     		ldr	r3, [r7, #0]
 603 00b2 03F40033 		and	r3, r3, #131072
 604 00b6 002B     		cmp	r3, #0
 605 00b8 06D0     		beq	.L21
 546:C:/StellarisWare/driverlib\usb.c ****     {
 547:C:/StellarisWare/driverlib\usb.c ****         HWREG(USB0_BASE + USB_O_IDVIM) = 0;
 606              		.loc 1 547 0
 607 00ba 4FF48963 		mov	r3, #1096
 608 00be C4F20503 		movt	r3, 16389
 609 00c2 4FF00002 		mov	r2, #0
 610 00c6 1A60     		str	r2, [r3, #0]
 611              	.L21:
 548:C:/StellarisWare/driverlib\usb.c ****     }
 549:C:/StellarisWare/driverlib\usb.c **** }
 612              		.loc 1 549 0
 613 00c8 07F10C07 		add	r7, r7, #12
 614 00cc BD46     		mov	sp, r7
 615 00ce 80BC     		pop	{r7}
 616 00d0 7047     		bx	lr
 617              		.cfi_endproc
 618              	.LFE7:
 620 00d2 00BF     		.section	.text.USBIntEnable,"ax",%progbits
 621              		.align	2
 622              		.global	USBIntEnable
 623              		.thumb
 624              		.thumb_func
 626              	USBIntEnable:
 627              	.LFB8:
 550:C:/StellarisWare/driverlib\usb.c **** #endif
 551:C:/StellarisWare/driverlib\usb.c **** 
 552:C:/StellarisWare/driverlib\usb.c **** //*****************************************************************************
 553:C:/StellarisWare/driverlib\usb.c **** //
 554:C:/StellarisWare/driverlib\usb.c **** //! Enables the sources for USB interrupts.
 555:C:/StellarisWare/driverlib\usb.c **** //!
 556:C:/StellarisWare/driverlib\usb.c **** //! \param ulBase specifies the USB module base address.
 557:C:/StellarisWare/driverlib\usb.c **** //! \param ulFlags specifies which interrupts to enable.
 558:C:/StellarisWare/driverlib\usb.c **** //!
 559:C:/StellarisWare/driverlib\usb.c **** //! This function enables the USB controller's ability to generate the
 560:C:/StellarisWare/driverlib\usb.c **** //! interrupts indicated by the \e ulFlags parameter.  There are three
 561:C:/StellarisWare/driverlib\usb.c **** //! groups of interrupt sources, IN Endpoints, OUT Endpoints, and
 562:C:/StellarisWare/driverlib\usb.c **** //! general status changes, specified by \b USB_INT_HOST_IN,
 563:C:/StellarisWare/driverlib\usb.c **** //! \b USB_INT_HOST_OUT, \b USB_INT_DEV_IN, \b USB_INT_DEV_OUT, and
 564:C:/StellarisWare/driverlib\usb.c **** //! \b USB_STATUS.  If \b USB_INT_ALL is specified then all interrupts are
 565:C:/StellarisWare/driverlib\usb.c **** //! enabled.
 566:C:/StellarisWare/driverlib\usb.c **** //!
 567:C:/StellarisWare/driverlib\usb.c **** //! \note A call must be made to enable the interrupt in the main interrupt
 568:C:/StellarisWare/driverlib\usb.c **** //! controller to receive interrupts.  The USBIntRegister() API performs this
 569:C:/StellarisWare/driverlib\usb.c **** //! controller-level interrupt enable.  However if static interrupt handlers
 570:C:/StellarisWare/driverlib\usb.c **** //! are used, then then a call to IntEnable() must be made in order to allow
 571:C:/StellarisWare/driverlib\usb.c **** //! any USB interrupts to occur.
 572:C:/StellarisWare/driverlib\usb.c **** //!
 573:C:/StellarisWare/driverlib\usb.c **** //! \note WARNING: This API cannot be used on endpoint numbers greater than
 574:C:/StellarisWare/driverlib\usb.c **** //! endpoint 3 so USBIntEnableControl() or USBIntEnableEndpoint() should be
 575:C:/StellarisWare/driverlib\usb.c **** //! used instead.
 576:C:/StellarisWare/driverlib\usb.c **** //!
 577:C:/StellarisWare/driverlib\usb.c **** //! \return None.
 578:C:/StellarisWare/driverlib\usb.c **** //
 579:C:/StellarisWare/driverlib\usb.c **** //*****************************************************************************
 580:C:/StellarisWare/driverlib\usb.c **** #ifndef DEPRECATED
 581:C:/StellarisWare/driverlib\usb.c **** void
 582:C:/StellarisWare/driverlib\usb.c **** USBIntEnable(unsigned long ulBase, unsigned long ulFlags)
 583:C:/StellarisWare/driverlib\usb.c **** {
 628              		.loc 1 583 0
 629              		.cfi_startproc
 630              		@ args = 0, pretend = 0, frame = 8
 631              		@ frame_needed = 1, uses_anonymous_args = 0
 632              		@ link register save eliminated.
 633 0000 80B4     		push	{r7}
 634              	.LCFI24:
 635              		.cfi_def_cfa_offset 4
 636              		.cfi_offset 7, -4
 637 0002 83B0     		sub	sp, sp, #12
 638              	.LCFI25:
 639              		.cfi_def_cfa_offset 16
 640 0004 00AF     		add	r7, sp, #0
 641              	.LCFI26:
 642              		.cfi_def_cfa_register 7
 643 0006 7860     		str	r0, [r7, #4]
 644 0008 3960     		str	r1, [r7, #0]
 584:C:/StellarisWare/driverlib\usb.c ****     //
 585:C:/StellarisWare/driverlib\usb.c ****     // Check the arguments.
 586:C:/StellarisWare/driverlib\usb.c ****     //
 587:C:/StellarisWare/driverlib\usb.c ****     ASSERT(ulBase == USB0_BASE);
 588:C:/StellarisWare/driverlib\usb.c ****     ASSERT((ulFlags & (~USB_INT_ALL)) == 0);
 589:C:/StellarisWare/driverlib\usb.c **** 
 590:C:/StellarisWare/driverlib\usb.c ****     //
 591:C:/StellarisWare/driverlib\usb.c ****     // If any transmit interrupts were enabled, then write the transmit
 592:C:/StellarisWare/driverlib\usb.c ****     // interrupt settings out to the hardware.
 593:C:/StellarisWare/driverlib\usb.c ****     //
 594:C:/StellarisWare/driverlib\usb.c ****     if(ulFlags & (USB_INT_HOST_OUT | USB_INT_DEV_IN | USB_INT_EP0))
 645              		.loc 1 594 0
 646 000a 3B68     		ldr	r3, [r7, #0]
 647 000c 03F00F03 		and	r3, r3, #15
 648 0010 002B     		cmp	r3, #0
 649 0012 0FD0     		beq	.L28
 595:C:/StellarisWare/driverlib\usb.c ****     {
 596:C:/StellarisWare/driverlib\usb.c ****         HWREGH(ulBase + USB_O_TXIE) |=
 650              		.loc 1 596 0
 651 0014 7B68     		ldr	r3, [r7, #4]
 652 0016 03F10603 		add	r3, r3, #6
 653 001a 7A68     		ldr	r2, [r7, #4]
 654 001c 02F10602 		add	r2, r2, #6
 655 0020 1288     		ldrh	r2, [r2, #0]	@ movhi
 656 0022 91B2     		uxth	r1, r2
 657 0024 3A68     		ldr	r2, [r7, #0]
 658 0026 92B2     		uxth	r2, r2
 659 0028 02F00F02 		and	r2, r2, #15
 660 002c 92B2     		uxth	r2, r2
 661 002e 0A43     		orrs	r2, r2, r1
 662 0030 92B2     		uxth	r2, r2
 663 0032 1A80     		strh	r2, [r3, #0]	@ movhi
 664              	.L28:
 597:C:/StellarisWare/driverlib\usb.c ****             ulFlags & (USB_INT_HOST_OUT | USB_INT_DEV_IN | USB_INT_EP0);
 598:C:/StellarisWare/driverlib\usb.c ****     }
 599:C:/StellarisWare/driverlib\usb.c **** 
 600:C:/StellarisWare/driverlib\usb.c ****     //
 601:C:/StellarisWare/driverlib\usb.c ****     // If any receive interrupts were enabled, then write the receive
 602:C:/StellarisWare/driverlib\usb.c ****     // interrupt settings out to the hardware.
 603:C:/StellarisWare/driverlib\usb.c ****     //
 604:C:/StellarisWare/driverlib\usb.c ****     if(ulFlags & (USB_INT_HOST_IN | USB_INT_DEV_OUT))
 665              		.loc 1 604 0
 666 0034 3B68     		ldr	r3, [r7, #0]
 667 0036 03F46063 		and	r3, r3, #3584
 668 003a 002B     		cmp	r3, #0
 669 003c 10D0     		beq	.L29
 605:C:/StellarisWare/driverlib\usb.c ****     {
 606:C:/StellarisWare/driverlib\usb.c ****         HWREGH(ulBase + USB_O_RXIE) |=
 670              		.loc 1 606 0
 671 003e 7B68     		ldr	r3, [r7, #4]
 672 0040 03F10803 		add	r3, r3, #8
 673 0044 7A68     		ldr	r2, [r7, #4]
 674 0046 02F10802 		add	r2, r2, #8
 675 004a 1288     		ldrh	r2, [r2, #0]	@ movhi
 676 004c 91B2     		uxth	r1, r2
 607:C:/StellarisWare/driverlib\usb.c ****             ((ulFlags & (USB_INT_HOST_IN | USB_INT_DEV_OUT)) >>
 677              		.loc 1 607 0
 678 004e 3A68     		ldr	r2, [r7, #0]
 679 0050 02F46062 		and	r2, r2, #3584
 680 0054 4FEA1222 		lsr	r2, r2, #8
 606:C:/StellarisWare/driverlib\usb.c ****         HWREGH(ulBase + USB_O_RXIE) |=
 681              		.loc 1 606 0
 682 0058 92B2     		uxth	r2, r2
 683 005a 0A43     		orrs	r2, r2, r1
 684 005c 92B2     		uxth	r2, r2
 685 005e 1A80     		strh	r2, [r3, #0]	@ movhi
 686              	.L29:
 608:C:/StellarisWare/driverlib\usb.c ****              USB_INT_RX_SHIFT);
 609:C:/StellarisWare/driverlib\usb.c ****     }
 610:C:/StellarisWare/driverlib\usb.c **** 
 611:C:/StellarisWare/driverlib\usb.c ****     //
 612:C:/StellarisWare/driverlib\usb.c ****     // If any general interrupts were enabled, then write the general
 613:C:/StellarisWare/driverlib\usb.c ****     // interrupt settings out to the hardware.
 614:C:/StellarisWare/driverlib\usb.c ****     //
 615:C:/StellarisWare/driverlib\usb.c ****     if(ulFlags & USB_INT_STATUS)
 687              		.loc 1 615 0
 688 0060 3B68     		ldr	r3, [r7, #0]
 689 0062 03F07F43 		and	r3, r3, #-16777216
 690 0066 002B     		cmp	r3, #0
 691 0068 0ED0     		beq	.L30
 616:C:/StellarisWare/driverlib\usb.c ****     {
 617:C:/StellarisWare/driverlib\usb.c ****         HWREGB(ulBase + USB_O_IE) |=
 692              		.loc 1 617 0
 693 006a 7B68     		ldr	r3, [r7, #4]
 694 006c 03F10B03 		add	r3, r3, #11
 695 0070 7A68     		ldr	r2, [r7, #4]
 696 0072 02F10B02 		add	r2, r2, #11
 697 0076 1278     		ldrb	r2, [r2, #0]
 698 0078 D1B2     		uxtb	r1, r2
 618:C:/StellarisWare/driverlib\usb.c ****             (ulFlags & USB_INT_STATUS) >> USB_INT_STATUS_SHIFT;
 699              		.loc 1 618 0
 700 007a 3A68     		ldr	r2, [r7, #0]
 701 007c 4FEA1262 		lsr	r2, r2, #24
 617:C:/StellarisWare/driverlib\usb.c ****         HWREGB(ulBase + USB_O_IE) |=
 702              		.loc 1 617 0
 703 0080 D2B2     		uxtb	r2, r2
 704 0082 0A43     		orrs	r2, r2, r1
 705 0084 D2B2     		uxtb	r2, r2
 706 0086 1A70     		strb	r2, [r3, #0]
 707              	.L30:
 619:C:/StellarisWare/driverlib\usb.c ****     }
 620:C:/StellarisWare/driverlib\usb.c **** 
 621:C:/StellarisWare/driverlib\usb.c ****     //
 622:C:/StellarisWare/driverlib\usb.c ****     // Enable the power fault interrupt.
 623:C:/StellarisWare/driverlib\usb.c ****     //
 624:C:/StellarisWare/driverlib\usb.c ****     if(ulFlags & USB_INT_POWER_FAULT)
 708              		.loc 1 624 0
 709 0088 3B68     		ldr	r3, [r7, #0]
 710 008a 03F48033 		and	r3, r3, #65536
 711 008e 002B     		cmp	r3, #0
 712 0090 05D0     		beq	.L31
 625:C:/StellarisWare/driverlib\usb.c ****     {
 626:C:/StellarisWare/driverlib\usb.c ****         HWREG(ulBase + USB_O_EPCIM) = USB_EPCIM_PF;
 713              		.loc 1 626 0
 714 0092 7B68     		ldr	r3, [r7, #4]
 715 0094 03F58163 		add	r3, r3, #1032
 716 0098 4FF00102 		mov	r2, #1
 717 009c 1A60     		str	r2, [r3, #0]
 718              	.L31:
 627:C:/StellarisWare/driverlib\usb.c ****     }
 628:C:/StellarisWare/driverlib\usb.c **** 
 629:C:/StellarisWare/driverlib\usb.c ****     //
 630:C:/StellarisWare/driverlib\usb.c ****     // Enable the ID pin detect interrupt.
 631:C:/StellarisWare/driverlib\usb.c ****     //
 632:C:/StellarisWare/driverlib\usb.c ****     if(ulFlags & USB_INT_MODE_DETECT)
 719              		.loc 1 632 0
 720 009e 3B68     		ldr	r3, [r7, #0]
 721 00a0 03F40033 		and	r3, r3, #131072
 722 00a4 002B     		cmp	r3, #0
 723 00a6 06D0     		beq	.L27
 633:C:/StellarisWare/driverlib\usb.c ****     {
 634:C:/StellarisWare/driverlib\usb.c ****         HWREG(USB0_BASE + USB_O_IDVIM) = USB_IDVIM_ID;
 724              		.loc 1 634 0
 725 00a8 4FF48963 		mov	r3, #1096
 726 00ac C4F20503 		movt	r3, 16389
 727 00b0 4FF00102 		mov	r2, #1
 728 00b4 1A60     		str	r2, [r3, #0]
 729              	.L27:
 635:C:/StellarisWare/driverlib\usb.c ****     }
 636:C:/StellarisWare/driverlib\usb.c **** }
 730              		.loc 1 636 0
 731 00b6 07F10C07 		add	r7, r7, #12
 732 00ba BD46     		mov	sp, r7
 733 00bc 80BC     		pop	{r7}
 734 00be 7047     		bx	lr
 735              		.cfi_endproc
 736              	.LFE8:
 738              		.section	.text.USBIntDisableControl,"ax",%progbits
 739              		.align	2
 740              		.global	USBIntDisableControl
 741              		.thumb
 742              		.thumb_func
 744              	USBIntDisableControl:
 745              	.LFB9:
 637:C:/StellarisWare/driverlib\usb.c **** #endif
 638:C:/StellarisWare/driverlib\usb.c **** 
 639:C:/StellarisWare/driverlib\usb.c **** //*****************************************************************************
 640:C:/StellarisWare/driverlib\usb.c **** //
 641:C:/StellarisWare/driverlib\usb.c **** //! Disables control interrupts on a given USB controller.
 642:C:/StellarisWare/driverlib\usb.c **** //!
 643:C:/StellarisWare/driverlib\usb.c **** //! \param ulBase specifies the USB module base address.
 644:C:/StellarisWare/driverlib\usb.c **** //! \param ulFlags specifies which control interrupts to disable.
 645:C:/StellarisWare/driverlib\usb.c **** //!
 646:C:/StellarisWare/driverlib\usb.c **** //! This function disables the control interrupts for the USB controller
 647:C:/StellarisWare/driverlib\usb.c **** //! specified by the \e ulBase parameter.  The \e ulFlags parameter specifies
 648:C:/StellarisWare/driverlib\usb.c **** //! which control interrupts to disable.  The flags passed in the \e ulFlags
 649:C:/StellarisWare/driverlib\usb.c **** //! parameters should be the definitions that start with \b USB_INTCTRL_* and
 650:C:/StellarisWare/driverlib\usb.c **** //! not any other \b USB_INT flags.
 651:C:/StellarisWare/driverlib\usb.c **** //!
 652:C:/StellarisWare/driverlib\usb.c **** //! \return None.
 653:C:/StellarisWare/driverlib\usb.c **** //
 654:C:/StellarisWare/driverlib\usb.c **** //*****************************************************************************
 655:C:/StellarisWare/driverlib\usb.c **** void
 656:C:/StellarisWare/driverlib\usb.c **** USBIntDisableControl(unsigned long ulBase, unsigned long ulFlags)
 657:C:/StellarisWare/driverlib\usb.c **** {
 746              		.loc 1 657 0
 747              		.cfi_startproc
 748              		@ args = 0, pretend = 0, frame = 8
 749              		@ frame_needed = 1, uses_anonymous_args = 0
 750              		@ link register save eliminated.
 751 0000 80B4     		push	{r7}
 752              	.LCFI27:
 753              		.cfi_def_cfa_offset 4
 754              		.cfi_offset 7, -4
 755 0002 83B0     		sub	sp, sp, #12
 756              	.LCFI28:
 757              		.cfi_def_cfa_offset 16
 758 0004 00AF     		add	r7, sp, #0
 759              	.LCFI29:
 760              		.cfi_def_cfa_register 7
 761 0006 7860     		str	r0, [r7, #4]
 762 0008 3960     		str	r1, [r7, #0]
 658:C:/StellarisWare/driverlib\usb.c ****     //
 659:C:/StellarisWare/driverlib\usb.c ****     // Check the arguments.
 660:C:/StellarisWare/driverlib\usb.c ****     //
 661:C:/StellarisWare/driverlib\usb.c ****     ASSERT(ulBase == USB0_BASE);
 662:C:/StellarisWare/driverlib\usb.c ****     ASSERT((ulFlags & ~(USB_INTCTRL_ALL)) == 0);
 663:C:/StellarisWare/driverlib\usb.c **** 
 664:C:/StellarisWare/driverlib\usb.c ****     //
 665:C:/StellarisWare/driverlib\usb.c ****     // If any general interrupts were disabled then write the general interrupt
 666:C:/StellarisWare/driverlib\usb.c ****     // settings out to the hardware.
 667:C:/StellarisWare/driverlib\usb.c ****     //
 668:C:/StellarisWare/driverlib\usb.c ****     if(ulFlags & USB_INTCTRL_STATUS)
 763              		.loc 1 668 0
 764 000a 3B68     		ldr	r3, [r7, #0]
 765 000c DBB2     		uxtb	r3, r3
 766 000e 002B     		cmp	r3, #0
 767 0010 0FD0     		beq	.L34
 669:C:/StellarisWare/driverlib\usb.c ****     {
 670:C:/StellarisWare/driverlib\usb.c ****         HWREGB(ulBase + USB_O_IE) &= ~(ulFlags & USB_INTCTRL_STATUS);
 768              		.loc 1 670 0
 769 0012 7B68     		ldr	r3, [r7, #4]
 770 0014 03F10B03 		add	r3, r3, #11
 771 0018 7A68     		ldr	r2, [r7, #4]
 772 001a 02F10B02 		add	r2, r2, #11
 773 001e 1278     		ldrb	r2, [r2, #0]
 774 0020 D1B2     		uxtb	r1, r2
 775 0022 3A68     		ldr	r2, [r7, #0]
 776 0024 D2B2     		uxtb	r2, r2
 777 0026 6FEA0202 		mvn	r2, r2
 778 002a D2B2     		uxtb	r2, r2
 779 002c 0A40     		ands	r2, r2, r1
 780 002e D2B2     		uxtb	r2, r2
 781 0030 1A70     		strb	r2, [r3, #0]
 782              	.L34:
 671:C:/StellarisWare/driverlib\usb.c ****     }
 672:C:/StellarisWare/driverlib\usb.c **** 
 673:C:/StellarisWare/driverlib\usb.c ****     //
 674:C:/StellarisWare/driverlib\usb.c ****     // Disable the power fault interrupt.
 675:C:/StellarisWare/driverlib\usb.c ****     //
 676:C:/StellarisWare/driverlib\usb.c ****     if(ulFlags & USB_INTCTRL_POWER_FAULT)
 783              		.loc 1 676 0
 784 0032 3B68     		ldr	r3, [r7, #0]
 785 0034 03F48073 		and	r3, r3, #256
 786 0038 002B     		cmp	r3, #0
 787 003a 05D0     		beq	.L35
 677:C:/StellarisWare/driverlib\usb.c ****     {
 678:C:/StellarisWare/driverlib\usb.c ****         HWREG(ulBase + USB_O_EPCIM) = 0;
 788              		.loc 1 678 0
 789 003c 7B68     		ldr	r3, [r7, #4]
 790 003e 03F58163 		add	r3, r3, #1032
 791 0042 4FF00002 		mov	r2, #0
 792 0046 1A60     		str	r2, [r3, #0]
 793              	.L35:
 679:C:/StellarisWare/driverlib\usb.c ****     }
 680:C:/StellarisWare/driverlib\usb.c **** 
 681:C:/StellarisWare/driverlib\usb.c ****     //
 682:C:/StellarisWare/driverlib\usb.c ****     // Disable the ID pin detect interrupt.
 683:C:/StellarisWare/driverlib\usb.c ****     //
 684:C:/StellarisWare/driverlib\usb.c ****     if(ulFlags & USB_INTCTRL_MODE_DETECT)
 794              		.loc 1 684 0
 795 0048 3B68     		ldr	r3, [r7, #0]
 796 004a 03F40073 		and	r3, r3, #512
 797 004e 002B     		cmp	r3, #0
 798 0050 06D0     		beq	.L33
 685:C:/StellarisWare/driverlib\usb.c ****     {
 686:C:/StellarisWare/driverlib\usb.c ****         HWREG(USB0_BASE + USB_O_IDVIM) = 0;
 799              		.loc 1 686 0
 800 0052 4FF48963 		mov	r3, #1096
 801 0056 C4F20503 		movt	r3, 16389
 802 005a 4FF00002 		mov	r2, #0
 803 005e 1A60     		str	r2, [r3, #0]
 804              	.L33:
 687:C:/StellarisWare/driverlib\usb.c ****     }
 688:C:/StellarisWare/driverlib\usb.c **** }
 805              		.loc 1 688 0
 806 0060 07F10C07 		add	r7, r7, #12
 807 0064 BD46     		mov	sp, r7
 808 0066 80BC     		pop	{r7}
 809 0068 7047     		bx	lr
 810              		.cfi_endproc
 811              	.LFE9:
 813 006a 00BF     		.section	.text.USBIntEnableControl,"ax",%progbits
 814              		.align	2
 815              		.global	USBIntEnableControl
 816              		.thumb
 817              		.thumb_func
 819              	USBIntEnableControl:
 820              	.LFB10:
 689:C:/StellarisWare/driverlib\usb.c **** 
 690:C:/StellarisWare/driverlib\usb.c **** //*****************************************************************************
 691:C:/StellarisWare/driverlib\usb.c **** //
 692:C:/StellarisWare/driverlib\usb.c **** //! Enables control interrupts on a given USB controller.
 693:C:/StellarisWare/driverlib\usb.c **** //!
 694:C:/StellarisWare/driverlib\usb.c **** //! \param ulBase specifies the USB module base address.
 695:C:/StellarisWare/driverlib\usb.c **** //! \param ulFlags specifies which control interrupts to enable.
 696:C:/StellarisWare/driverlib\usb.c **** //!
 697:C:/StellarisWare/driverlib\usb.c **** //! This function enables the control interrupts for the USB controller
 698:C:/StellarisWare/driverlib\usb.c **** //! specified by the \e ulBase parameter.  The \e ulFlags parameter specifies
 699:C:/StellarisWare/driverlib\usb.c **** //! which control interrupts to enable.  The flags passed in the \e ulFlags
 700:C:/StellarisWare/driverlib\usb.c **** //! parameters should be the definitions that start with \b USB_INTCTRL_* and
 701:C:/StellarisWare/driverlib\usb.c **** //! not any other \b USB_INT flags.
 702:C:/StellarisWare/driverlib\usb.c **** //!
 703:C:/StellarisWare/driverlib\usb.c **** //! \return None.
 704:C:/StellarisWare/driverlib\usb.c **** //
 705:C:/StellarisWare/driverlib\usb.c **** //*****************************************************************************
 706:C:/StellarisWare/driverlib\usb.c **** void
 707:C:/StellarisWare/driverlib\usb.c **** USBIntEnableControl(unsigned long ulBase, unsigned long ulFlags)
 708:C:/StellarisWare/driverlib\usb.c **** {
 821              		.loc 1 708 0
 822              		.cfi_startproc
 823              		@ args = 0, pretend = 0, frame = 8
 824              		@ frame_needed = 1, uses_anonymous_args = 0
 825              		@ link register save eliminated.
 826 0000 80B4     		push	{r7}
 827              	.LCFI30:
 828              		.cfi_def_cfa_offset 4
 829              		.cfi_offset 7, -4
 830 0002 83B0     		sub	sp, sp, #12
 831              	.LCFI31:
 832              		.cfi_def_cfa_offset 16
 833 0004 00AF     		add	r7, sp, #0
 834              	.LCFI32:
 835              		.cfi_def_cfa_register 7
 836 0006 7860     		str	r0, [r7, #4]
 837 0008 3960     		str	r1, [r7, #0]
 709:C:/StellarisWare/driverlib\usb.c ****     //
 710:C:/StellarisWare/driverlib\usb.c ****     // Check the arguments.
 711:C:/StellarisWare/driverlib\usb.c ****     //
 712:C:/StellarisWare/driverlib\usb.c ****     ASSERT(ulBase == USB0_BASE);
 713:C:/StellarisWare/driverlib\usb.c ****     ASSERT((ulFlags & (~USB_INTCTRL_ALL)) == 0);
 714:C:/StellarisWare/driverlib\usb.c **** 
 715:C:/StellarisWare/driverlib\usb.c ****     //
 716:C:/StellarisWare/driverlib\usb.c ****     // If any general interrupts were enabled, then write the general
 717:C:/StellarisWare/driverlib\usb.c ****     // interrupt settings out to the hardware.
 718:C:/StellarisWare/driverlib\usb.c ****     //
 719:C:/StellarisWare/driverlib\usb.c ****     if(ulFlags & USB_INTCTRL_STATUS)
 838              		.loc 1 719 0
 839 000a 3B68     		ldr	r3, [r7, #0]
 840 000c DBB2     		uxtb	r3, r3
 841 000e 002B     		cmp	r3, #0
 842 0010 0CD0     		beq	.L38
 720:C:/StellarisWare/driverlib\usb.c ****     {
 721:C:/StellarisWare/driverlib\usb.c ****         HWREGB(ulBase + USB_O_IE) |= ulFlags;
 843              		.loc 1 721 0
 844 0012 7B68     		ldr	r3, [r7, #4]
 845 0014 03F10B03 		add	r3, r3, #11
 846 0018 7A68     		ldr	r2, [r7, #4]
 847 001a 02F10B02 		add	r2, r2, #11
 848 001e 1278     		ldrb	r2, [r2, #0]
 849 0020 D1B2     		uxtb	r1, r2
 850 0022 3A68     		ldr	r2, [r7, #0]
 851 0024 D2B2     		uxtb	r2, r2
 852 0026 0A43     		orrs	r2, r2, r1
 853 0028 D2B2     		uxtb	r2, r2
 854 002a 1A70     		strb	r2, [r3, #0]
 855              	.L38:
 722:C:/StellarisWare/driverlib\usb.c ****     }
 723:C:/StellarisWare/driverlib\usb.c **** 
 724:C:/StellarisWare/driverlib\usb.c ****     //
 725:C:/StellarisWare/driverlib\usb.c ****     // Enable the power fault interrupt.
 726:C:/StellarisWare/driverlib\usb.c ****     //
 727:C:/StellarisWare/driverlib\usb.c ****     if(ulFlags & USB_INTCTRL_POWER_FAULT)
 856              		.loc 1 727 0
 857 002c 3B68     		ldr	r3, [r7, #0]
 858 002e 03F48073 		and	r3, r3, #256
 859 0032 002B     		cmp	r3, #0
 860 0034 05D0     		beq	.L39
 728:C:/StellarisWare/driverlib\usb.c ****     {
 729:C:/StellarisWare/driverlib\usb.c ****         HWREG(ulBase + USB_O_EPCIM) = USB_EPCIM_PF;
 861              		.loc 1 729 0
 862 0036 7B68     		ldr	r3, [r7, #4]
 863 0038 03F58163 		add	r3, r3, #1032
 864 003c 4FF00102 		mov	r2, #1
 865 0040 1A60     		str	r2, [r3, #0]
 866              	.L39:
 730:C:/StellarisWare/driverlib\usb.c ****     }
 731:C:/StellarisWare/driverlib\usb.c **** 
 732:C:/StellarisWare/driverlib\usb.c ****     //
 733:C:/StellarisWare/driverlib\usb.c ****     // Enable the ID pin detect interrupt.
 734:C:/StellarisWare/driverlib\usb.c ****     //
 735:C:/StellarisWare/driverlib\usb.c ****     if(ulFlags & USB_INTCTRL_MODE_DETECT)
 867              		.loc 1 735 0
 868 0042 3B68     		ldr	r3, [r7, #0]
 869 0044 03F40073 		and	r3, r3, #512
 870 0048 002B     		cmp	r3, #0
 871 004a 06D0     		beq	.L37
 736:C:/StellarisWare/driverlib\usb.c ****     {
 737:C:/StellarisWare/driverlib\usb.c ****         HWREG(USB0_BASE + USB_O_IDVIM) = USB_IDVIM_ID;
 872              		.loc 1 737 0
 873 004c 4FF48963 		mov	r3, #1096
 874 0050 C4F20503 		movt	r3, 16389
 875 0054 4FF00102 		mov	r2, #1
 876 0058 1A60     		str	r2, [r3, #0]
 877              	.L37:
 738:C:/StellarisWare/driverlib\usb.c ****     }
 739:C:/StellarisWare/driverlib\usb.c **** }
 878              		.loc 1 739 0
 879 005a 07F10C07 		add	r7, r7, #12
 880 005e BD46     		mov	sp, r7
 881 0060 80BC     		pop	{r7}
 882 0062 7047     		bx	lr
 883              		.cfi_endproc
 884              	.LFE10:
 886              		.section	.text.USBIntStatusControl,"ax",%progbits
 887              		.align	2
 888              		.global	USBIntStatusControl
 889              		.thumb
 890              		.thumb_func
 892              	USBIntStatusControl:
 893              	.LFB11:
 740:C:/StellarisWare/driverlib\usb.c **** 
 741:C:/StellarisWare/driverlib\usb.c **** //*****************************************************************************
 742:C:/StellarisWare/driverlib\usb.c **** //
 743:C:/StellarisWare/driverlib\usb.c **** //! Returns the control interrupt status on a given USB controller.
 744:C:/StellarisWare/driverlib\usb.c **** //!
 745:C:/StellarisWare/driverlib\usb.c **** //! \param ulBase specifies the USB module base address.
 746:C:/StellarisWare/driverlib\usb.c **** //!
 747:C:/StellarisWare/driverlib\usb.c **** //! This function reads control interrupt status for a USB controller. This
 748:C:/StellarisWare/driverlib\usb.c **** //! call returns the current status for control interrupts only, the endpoint
 749:C:/StellarisWare/driverlib\usb.c **** //! interrupt status is retrieved by calling USBIntStatusEndpoint(). The bit
 750:C:/StellarisWare/driverlib\usb.c **** //! values returned should be compared against the \b USB_INTCTRL_*
 751:C:/StellarisWare/driverlib\usb.c **** //! values.
 752:C:/StellarisWare/driverlib\usb.c **** //!
 753:C:/StellarisWare/driverlib\usb.c **** //! The following are the meanings of all \b USB_INCTRL_ flags and the modes
 754:C:/StellarisWare/driverlib\usb.c **** //! for which they are valid.  These values apply to any calls to
 755:C:/StellarisWare/driverlib\usb.c **** //! USBIntStatusControl(), USBIntEnableControl(), and USBIntDisableControl().
 756:C:/StellarisWare/driverlib\usb.c **** //! Some of these flags are only valid in the following modes as indicated in
 757:C:/StellarisWare/driverlib\usb.c **** //! the parentheses:  Host, Device, and OTG.
 758:C:/StellarisWare/driverlib\usb.c **** //!
 759:C:/StellarisWare/driverlib\usb.c **** //! - \b USB_INTCTRL_ALL - A full mask of all control interrupt sources.
 760:C:/StellarisWare/driverlib\usb.c **** //! - \b USB_INTCTRL_VBUS_ERR - A VBUS error has occurred (Host Only).
 761:C:/StellarisWare/driverlib\usb.c **** //! - \b USB_INTCTRL_SESSION - Session Start Detected on A-side of cable
 762:C:/StellarisWare/driverlib\usb.c **** //!                            (OTG Only).
 763:C:/StellarisWare/driverlib\usb.c **** //! - \b USB_INTCTRL_SESSION_END - Session End Detected (Device Only)
 764:C:/StellarisWare/driverlib\usb.c **** //! - \b USB_INTCTRL_DISCONNECT - Device Disconnect Detected (Host Only)
 765:C:/StellarisWare/driverlib\usb.c **** //! - \b USB_INTCTRL_CONNECT - Device Connect Detected (Host Only)
 766:C:/StellarisWare/driverlib\usb.c **** //! - \b USB_INTCTRL_SOF - Start of Frame Detected.
 767:C:/StellarisWare/driverlib\usb.c **** //! - \b USB_INTCTRL_BABBLE - USB controller detected a device signaling past
 768:C:/StellarisWare/driverlib\usb.c **** //!                           the end of a frame. (Host Only)
 769:C:/StellarisWare/driverlib\usb.c **** //! - \b USB_INTCTRL_RESET - Reset signaling detected by device. (Device Only)
 770:C:/StellarisWare/driverlib\usb.c **** //! - \b USB_INTCTRL_RESUME - Resume signaling detected.
 771:C:/StellarisWare/driverlib\usb.c **** //! - \b USB_INTCTRL_SUSPEND - Suspend signaling detected by device (Device
 772:C:/StellarisWare/driverlib\usb.c **** //!                            Only)
 773:C:/StellarisWare/driverlib\usb.c **** //! - \b USB_INTCTRL_MODE_DETECT - OTG cable mode detection has completed
 774:C:/StellarisWare/driverlib\usb.c **** //!                                (OTG Only)
 775:C:/StellarisWare/driverlib\usb.c **** //! - \b USB_INTCTRL_POWER_FAULT - Power Fault detected. (Host Only)
 776:C:/StellarisWare/driverlib\usb.c **** //!
 777:C:/StellarisWare/driverlib\usb.c **** //! \note This call clears the source of all of the control status interrupts.
 778:C:/StellarisWare/driverlib\usb.c **** //!
 779:C:/StellarisWare/driverlib\usb.c **** //! \return Returns the status of the control interrupts for a USB controller.
 780:C:/StellarisWare/driverlib\usb.c **** //
 781:C:/StellarisWare/driverlib\usb.c **** //*****************************************************************************
 782:C:/StellarisWare/driverlib\usb.c **** unsigned long
 783:C:/StellarisWare/driverlib\usb.c **** USBIntStatusControl(unsigned long ulBase)
 784:C:/StellarisWare/driverlib\usb.c **** {
 894              		.loc 1 784 0
 895              		.cfi_startproc
 896              		@ args = 0, pretend = 0, frame = 16
 897              		@ frame_needed = 1, uses_anonymous_args = 0
 898              		@ link register save eliminated.
 899 0000 80B4     		push	{r7}
 900              	.LCFI33:
 901              		.cfi_def_cfa_offset 4
 902              		.cfi_offset 7, -4
 903 0002 85B0     		sub	sp, sp, #20
 904              	.LCFI34:
 905              		.cfi_def_cfa_offset 24
 906 0004 00AF     		add	r7, sp, #0
 907              	.LCFI35:
 908              		.cfi_def_cfa_register 7
 909 0006 7860     		str	r0, [r7, #4]
 785:C:/StellarisWare/driverlib\usb.c ****     unsigned long ulStatus;
 786:C:/StellarisWare/driverlib\usb.c **** 
 787:C:/StellarisWare/driverlib\usb.c ****     //
 788:C:/StellarisWare/driverlib\usb.c ****     // Check the arguments.
 789:C:/StellarisWare/driverlib\usb.c ****     //
 790:C:/StellarisWare/driverlib\usb.c ****     ASSERT(ulBase == USB0_BASE);
 791:C:/StellarisWare/driverlib\usb.c **** 
 792:C:/StellarisWare/driverlib\usb.c ****     //
 793:C:/StellarisWare/driverlib\usb.c ****     // Get the general interrupt status, these bits go into the upper 8 bits
 794:C:/StellarisWare/driverlib\usb.c ****     // of the returned value.
 795:C:/StellarisWare/driverlib\usb.c ****     //
 796:C:/StellarisWare/driverlib\usb.c ****     ulStatus = HWREGB(ulBase + USB_O_IS);
 910              		.loc 1 796 0
 911 0008 7B68     		ldr	r3, [r7, #4]
 912 000a 03F10A03 		add	r3, r3, #10
 913 000e 1B78     		ldrb	r3, [r3, #0]
 914 0010 DBB2     		uxtb	r3, r3
 915 0012 FB60     		str	r3, [r7, #12]
 797:C:/StellarisWare/driverlib\usb.c **** 
 798:C:/StellarisWare/driverlib\usb.c ****     //
 799:C:/StellarisWare/driverlib\usb.c ****     // Add the power fault status.
 800:C:/StellarisWare/driverlib\usb.c ****     //
 801:C:/StellarisWare/driverlib\usb.c ****     if(HWREG(ulBase + USB_O_EPCISC) & USB_EPCISC_PF)
 916              		.loc 1 801 0
 917 0014 7B68     		ldr	r3, [r7, #4]
 918 0016 03F58063 		add	r3, r3, #1024
 919 001a 03F10C03 		add	r3, r3, #12
 920 001e 1B68     		ldr	r3, [r3, #0]
 921 0020 03F00103 		and	r3, r3, #1
 922 0024 DBB2     		uxtb	r3, r3
 923 0026 002B     		cmp	r3, #0
 924 0028 14D0     		beq	.L42
 802:C:/StellarisWare/driverlib\usb.c ****     {
 803:C:/StellarisWare/driverlib\usb.c ****         //
 804:C:/StellarisWare/driverlib\usb.c ****         // Indicate a power fault was detected.
 805:C:/StellarisWare/driverlib\usb.c ****         //
 806:C:/StellarisWare/driverlib\usb.c ****         ulStatus |= USB_INTCTRL_POWER_FAULT;
 925              		.loc 1 806 0
 926 002a FB68     		ldr	r3, [r7, #12]
 927 002c 43F48073 		orr	r3, r3, #256
 928 0030 FB60     		str	r3, [r7, #12]
 807:C:/StellarisWare/driverlib\usb.c **** 
 808:C:/StellarisWare/driverlib\usb.c ****         //
 809:C:/StellarisWare/driverlib\usb.c ****         // Clear the power fault interrupt.
 810:C:/StellarisWare/driverlib\usb.c ****         //
 811:C:/StellarisWare/driverlib\usb.c ****         HWREGB(ulBase + USB_O_EPCISC) |= USB_EPCISC_PF;
 929              		.loc 1 811 0
 930 0032 7B68     		ldr	r3, [r7, #4]
 931 0034 03F58063 		add	r3, r3, #1024
 932 0038 03F10C03 		add	r3, r3, #12
 933 003c 1A46     		mov	r2, r3
 934 003e 7B68     		ldr	r3, [r7, #4]
 935 0040 03F58063 		add	r3, r3, #1024
 936 0044 03F10C03 		add	r3, r3, #12
 937 0048 1B78     		ldrb	r3, [r3, #0]
 938 004a DBB2     		uxtb	r3, r3
 939 004c 43F00103 		orr	r3, r3, #1
 940 0050 DBB2     		uxtb	r3, r3
 941 0052 1370     		strb	r3, [r2, #0]
 942              	.L42:
 812:C:/StellarisWare/driverlib\usb.c ****     }
 813:C:/StellarisWare/driverlib\usb.c **** 
 814:C:/StellarisWare/driverlib\usb.c ****     if(HWREG(USB0_BASE + USB_O_IDVISC) & USB_IDVRIS_ID)
 943              		.loc 1 814 0
 944 0054 40F24C43 		movw	r3, #1100
 945 0058 C4F20503 		movt	r3, 16389
 946 005c 1B68     		ldr	r3, [r3, #0]
 947 005e 03F00103 		and	r3, r3, #1
 948 0062 DBB2     		uxtb	r3, r3
 949 0064 002B     		cmp	r3, #0
 950 0066 0FD0     		beq	.L43
 815:C:/StellarisWare/driverlib\usb.c ****     {
 816:C:/StellarisWare/driverlib\usb.c ****         //
 817:C:/StellarisWare/driverlib\usb.c ****         // Indicate an id detection.
 818:C:/StellarisWare/driverlib\usb.c ****         //
 819:C:/StellarisWare/driverlib\usb.c ****         ulStatus |= USB_INTCTRL_MODE_DETECT;
 951              		.loc 1 819 0
 952 0068 FB68     		ldr	r3, [r7, #12]
 953 006a 43F40073 		orr	r3, r3, #512
 954 006e FB60     		str	r3, [r7, #12]
 820:C:/StellarisWare/driverlib\usb.c **** 
 821:C:/StellarisWare/driverlib\usb.c ****         //
 822:C:/StellarisWare/driverlib\usb.c ****         // Clear the id detection interrupt.
 823:C:/StellarisWare/driverlib\usb.c ****         //
 824:C:/StellarisWare/driverlib\usb.c ****         HWREG(USB0_BASE + USB_O_IDVISC) |= USB_IDVRIS_ID;
 955              		.loc 1 824 0
 956 0070 40F24C43 		movw	r3, #1100
 957 0074 C4F20503 		movt	r3, 16389
 958 0078 40F24C42 		movw	r2, #1100
 959 007c C4F20502 		movt	r2, 16389
 960 0080 1268     		ldr	r2, [r2, #0]
 961 0082 42F00102 		orr	r2, r2, #1
 962 0086 1A60     		str	r2, [r3, #0]
 963              	.L43:
 825:C:/StellarisWare/driverlib\usb.c ****     }
 826:C:/StellarisWare/driverlib\usb.c **** 
 827:C:/StellarisWare/driverlib\usb.c ****     //
 828:C:/StellarisWare/driverlib\usb.c ****     // Return the combined interrupt status.
 829:C:/StellarisWare/driverlib\usb.c ****     //
 830:C:/StellarisWare/driverlib\usb.c ****     return(ulStatus);
 964              		.loc 1 830 0
 965 0088 FB68     		ldr	r3, [r7, #12]
 831:C:/StellarisWare/driverlib\usb.c **** }
 966              		.loc 1 831 0
 967 008a 1846     		mov	r0, r3
 968 008c 07F11407 		add	r7, r7, #20
 969 0090 BD46     		mov	sp, r7
 970 0092 80BC     		pop	{r7}
 971 0094 7047     		bx	lr
 972              		.cfi_endproc
 973              	.LFE11:
 975 0096 00BF     		.section	.text.USBIntDisableEndpoint,"ax",%progbits
 976              		.align	2
 977              		.global	USBIntDisableEndpoint
 978              		.thumb
 979              		.thumb_func
 981              	USBIntDisableEndpoint:
 982              	.LFB12:
 832:C:/StellarisWare/driverlib\usb.c **** 
 833:C:/StellarisWare/driverlib\usb.c **** //*****************************************************************************
 834:C:/StellarisWare/driverlib\usb.c **** //
 835:C:/StellarisWare/driverlib\usb.c **** //! Disables endpoint interrupts on a given USB controller.
 836:C:/StellarisWare/driverlib\usb.c **** //!
 837:C:/StellarisWare/driverlib\usb.c **** //! \param ulBase specifies the USB module base address.
 838:C:/StellarisWare/driverlib\usb.c **** //! \param ulFlags specifies which endpoint interrupts to disable.
 839:C:/StellarisWare/driverlib\usb.c **** //!
 840:C:/StellarisWare/driverlib\usb.c **** //! This function disables endpoint interrupts for the USB controller specified
 841:C:/StellarisWare/driverlib\usb.c **** //! by the \e ulBase parameter.  The \e ulFlags parameter specifies which
 842:C:/StellarisWare/driverlib\usb.c **** //! endpoint interrupts to disable.  The flags passed in the \e ulFlags
 843:C:/StellarisWare/driverlib\usb.c **** //! parameters should be the definitions that start with \b USB_INTEP_* and not
 844:C:/StellarisWare/driverlib\usb.c **** //! any other \b USB_INT flags.
 845:C:/StellarisWare/driverlib\usb.c **** //!
 846:C:/StellarisWare/driverlib\usb.c **** //! \return None.
 847:C:/StellarisWare/driverlib\usb.c **** //
 848:C:/StellarisWare/driverlib\usb.c **** //*****************************************************************************
 849:C:/StellarisWare/driverlib\usb.c **** void
 850:C:/StellarisWare/driverlib\usb.c **** USBIntDisableEndpoint(unsigned long ulBase, unsigned long ulFlags)
 851:C:/StellarisWare/driverlib\usb.c **** {
 983              		.loc 1 851 0
 984              		.cfi_startproc
 985              		@ args = 0, pretend = 0, frame = 8
 986              		@ frame_needed = 1, uses_anonymous_args = 0
 987              		@ link register save eliminated.
 988 0000 80B4     		push	{r7}
 989              	.LCFI36:
 990              		.cfi_def_cfa_offset 4
 991              		.cfi_offset 7, -4
 992 0002 83B0     		sub	sp, sp, #12
 993              	.LCFI37:
 994              		.cfi_def_cfa_offset 16
 995 0004 00AF     		add	r7, sp, #0
 996              	.LCFI38:
 997              		.cfi_def_cfa_register 7
 998 0006 7860     		str	r0, [r7, #4]
 999 0008 3960     		str	r1, [r7, #0]
 852:C:/StellarisWare/driverlib\usb.c ****     //
 853:C:/StellarisWare/driverlib\usb.c ****     // Check the arguments.
 854:C:/StellarisWare/driverlib\usb.c ****     //
 855:C:/StellarisWare/driverlib\usb.c ****     ASSERT(ulBase == USB0_BASE);
 856:C:/StellarisWare/driverlib\usb.c **** 
 857:C:/StellarisWare/driverlib\usb.c ****     //
 858:C:/StellarisWare/driverlib\usb.c ****     // If any transmit interrupts were disabled, then write the transmit
 859:C:/StellarisWare/driverlib\usb.c ****     // interrupt settings out to the hardware.
 860:C:/StellarisWare/driverlib\usb.c ****     //
 861:C:/StellarisWare/driverlib\usb.c ****     HWREGH(ulBase + USB_O_TXIE) &=
 1000              		.loc 1 861 0
 1001 000a 7B68     		ldr	r3, [r7, #4]
 1002 000c 03F10603 		add	r3, r3, #6
 1003 0010 7A68     		ldr	r2, [r7, #4]
 1004 0012 02F10602 		add	r2, r2, #6
 1005 0016 1288     		ldrh	r2, [r2, #0]	@ movhi
 1006 0018 91B2     		uxth	r1, r2
 1007 001a 3A68     		ldr	r2, [r7, #0]
 1008 001c 92B2     		uxth	r2, r2
 1009 001e 6FEA0202 		mvn	r2, r2
 1010 0022 92B2     		uxth	r2, r2
 1011 0024 0A40     		ands	r2, r2, r1
 1012 0026 92B2     		uxth	r2, r2
 1013 0028 1A80     		strh	r2, [r3, #0]	@ movhi
 862:C:/StellarisWare/driverlib\usb.c ****         ~(ulFlags & (USB_INTEP_HOST_OUT | USB_INTEP_DEV_IN | USB_INTEP_0));
 863:C:/StellarisWare/driverlib\usb.c **** 
 864:C:/StellarisWare/driverlib\usb.c ****     //
 865:C:/StellarisWare/driverlib\usb.c ****     // If any receive interrupts were disabled, then write the receive interrupt
 866:C:/StellarisWare/driverlib\usb.c ****     // settings out to the hardware.
 867:C:/StellarisWare/driverlib\usb.c ****     //
 868:C:/StellarisWare/driverlib\usb.c ****     HWREGH(ulBase + USB_O_RXIE) &=
 1014              		.loc 1 868 0
 1015 002a 7B68     		ldr	r3, [r7, #4]
 1016 002c 03F10803 		add	r3, r3, #8
 1017 0030 1A46     		mov	r2, r3
 1018 0032 7B68     		ldr	r3, [r7, #4]
 1019 0034 03F10803 		add	r3, r3, #8
 1020 0038 1B88     		ldrh	r3, [r3, #0]	@ movhi
 1021 003a 99B2     		uxth	r1, r3
 869:C:/StellarisWare/driverlib\usb.c ****         ~((ulFlags & (USB_INTEP_HOST_IN | USB_INTEP_DEV_OUT)) >>
 1022              		.loc 1 869 0
 1023 003c 3B68     		ldr	r3, [r7, #0]
 1024 003e 4FEA5343 		lsr	r3, r3, #17
 1025 0042 4FEA4343 		lsl	r3, r3, #17
 1026 0046 4FEA1343 		lsr	r3, r3, #16
 868:C:/StellarisWare/driverlib\usb.c ****     HWREGH(ulBase + USB_O_RXIE) &=
 1027              		.loc 1 868 0
 1028 004a 9BB2     		uxth	r3, r3
 1029 004c 6FEA0303 		mvn	r3, r3
 1030 0050 9BB2     		uxth	r3, r3
 1031 0052 0B40     		ands	r3, r3, r1
 1032 0054 9BB2     		uxth	r3, r3
 1033 0056 1380     		strh	r3, [r2, #0]	@ movhi
 870:C:/StellarisWare/driverlib\usb.c ****           USB_INTEP_RX_SHIFT);
 871:C:/StellarisWare/driverlib\usb.c **** }
 1034              		.loc 1 871 0
 1035 0058 07F10C07 		add	r7, r7, #12
 1036 005c BD46     		mov	sp, r7
 1037 005e 80BC     		pop	{r7}
 1038 0060 7047     		bx	lr
 1039              		.cfi_endproc
 1040              	.LFE12:
 1042 0062 00BF     		.section	.text.USBIntEnableEndpoint,"ax",%progbits
 1043              		.align	2
 1044              		.global	USBIntEnableEndpoint
 1045              		.thumb
 1046              		.thumb_func
 1048              	USBIntEnableEndpoint:
 1049              	.LFB13:
 872:C:/StellarisWare/driverlib\usb.c **** 
 873:C:/StellarisWare/driverlib\usb.c **** //*****************************************************************************
 874:C:/StellarisWare/driverlib\usb.c **** //
 875:C:/StellarisWare/driverlib\usb.c **** //! Enables endpoint interrupts on a given USB controller.
 876:C:/StellarisWare/driverlib\usb.c **** //!
 877:C:/StellarisWare/driverlib\usb.c **** //! \param ulBase specifies the USB module base address.
 878:C:/StellarisWare/driverlib\usb.c **** //! \param ulFlags specifies which endpoint interrupts to enable.
 879:C:/StellarisWare/driverlib\usb.c **** //!
 880:C:/StellarisWare/driverlib\usb.c **** //! This function enables endpoint interrupts for the USB controller specified
 881:C:/StellarisWare/driverlib\usb.c **** //! by the \e ulBase parameter.  The \e ulFlags parameter specifies which
 882:C:/StellarisWare/driverlib\usb.c **** //! endpoint interrupts to enable.  The flags passed in the \e ulFlags
 883:C:/StellarisWare/driverlib\usb.c **** //! parameters should be the definitions that start with \b USB_INTEP_* and not
 884:C:/StellarisWare/driverlib\usb.c **** //! any other \b USB_INT flags.
 885:C:/StellarisWare/driverlib\usb.c **** //!
 886:C:/StellarisWare/driverlib\usb.c **** //! \return None.
 887:C:/StellarisWare/driverlib\usb.c **** //
 888:C:/StellarisWare/driverlib\usb.c **** //*****************************************************************************
 889:C:/StellarisWare/driverlib\usb.c **** void
 890:C:/StellarisWare/driverlib\usb.c **** USBIntEnableEndpoint(unsigned long ulBase, unsigned long ulFlags)
 891:C:/StellarisWare/driverlib\usb.c **** {
 1050              		.loc 1 891 0
 1051              		.cfi_startproc
 1052              		@ args = 0, pretend = 0, frame = 8
 1053              		@ frame_needed = 1, uses_anonymous_args = 0
 1054              		@ link register save eliminated.
 1055 0000 80B4     		push	{r7}
 1056              	.LCFI39:
 1057              		.cfi_def_cfa_offset 4
 1058              		.cfi_offset 7, -4
 1059 0002 83B0     		sub	sp, sp, #12
 1060              	.LCFI40:
 1061              		.cfi_def_cfa_offset 16
 1062 0004 00AF     		add	r7, sp, #0
 1063              	.LCFI41:
 1064              		.cfi_def_cfa_register 7
 1065 0006 7860     		str	r0, [r7, #4]
 1066 0008 3960     		str	r1, [r7, #0]
 892:C:/StellarisWare/driverlib\usb.c ****     //
 893:C:/StellarisWare/driverlib\usb.c ****     // Check the arguments.
 894:C:/StellarisWare/driverlib\usb.c ****     //
 895:C:/StellarisWare/driverlib\usb.c ****     ASSERT(ulBase == USB0_BASE);
 896:C:/StellarisWare/driverlib\usb.c **** 
 897:C:/StellarisWare/driverlib\usb.c ****     //
 898:C:/StellarisWare/driverlib\usb.c ****     // Enable any transmit endpoint interrupts.
 899:C:/StellarisWare/driverlib\usb.c ****     //
 900:C:/StellarisWare/driverlib\usb.c ****     HWREGH(ulBase + USB_O_TXIE) |=
 1067              		.loc 1 900 0
 1068 000a 7B68     		ldr	r3, [r7, #4]
 1069 000c 03F10603 		add	r3, r3, #6
 1070 0010 7A68     		ldr	r2, [r7, #4]
 1071 0012 02F10602 		add	r2, r2, #6
 1072 0016 1288     		ldrh	r2, [r2, #0]	@ movhi
 1073 0018 91B2     		uxth	r1, r2
 1074 001a 3A68     		ldr	r2, [r7, #0]
 1075 001c 92B2     		uxth	r2, r2
 1076 001e 0A43     		orrs	r2, r2, r1
 1077 0020 92B2     		uxth	r2, r2
 1078 0022 1A80     		strh	r2, [r3, #0]	@ movhi
 901:C:/StellarisWare/driverlib\usb.c ****            ulFlags & (USB_INTEP_HOST_OUT | USB_INTEP_DEV_IN | USB_INTEP_0);
 902:C:/StellarisWare/driverlib\usb.c **** 
 903:C:/StellarisWare/driverlib\usb.c ****     //
 904:C:/StellarisWare/driverlib\usb.c ****     // Enable any receive endpoint interrupts.
 905:C:/StellarisWare/driverlib\usb.c ****     //
 906:C:/StellarisWare/driverlib\usb.c ****     HWREGH(ulBase + USB_O_RXIE) |=
 1079              		.loc 1 906 0
 1080 0024 7B68     		ldr	r3, [r7, #4]
 1081 0026 03F10803 		add	r3, r3, #8
 1082 002a 1A46     		mov	r2, r3
 1083 002c 7B68     		ldr	r3, [r7, #4]
 1084 002e 03F10803 		add	r3, r3, #8
 1085 0032 1B88     		ldrh	r3, [r3, #0]	@ movhi
 1086 0034 99B2     		uxth	r1, r3
 907:C:/StellarisWare/driverlib\usb.c ****         ((ulFlags & (USB_INTEP_HOST_IN | USB_INTEP_DEV_OUT)) >>
 1087              		.loc 1 907 0
 1088 0036 3B68     		ldr	r3, [r7, #0]
 1089 0038 4FEA5343 		lsr	r3, r3, #17
 1090 003c 4FEA4343 		lsl	r3, r3, #17
 1091 0040 4FEA1343 		lsr	r3, r3, #16
 906:C:/StellarisWare/driverlib\usb.c ****     HWREGH(ulBase + USB_O_RXIE) |=
 1092              		.loc 1 906 0
 1093 0044 9BB2     		uxth	r3, r3
 1094 0046 0B43     		orrs	r3, r3, r1
 1095 0048 9BB2     		uxth	r3, r3
 1096 004a 1380     		strh	r3, [r2, #0]	@ movhi
 908:C:/StellarisWare/driverlib\usb.c ****          USB_INTEP_RX_SHIFT);
 909:C:/StellarisWare/driverlib\usb.c **** }
 1097              		.loc 1 909 0
 1098 004c 07F10C07 		add	r7, r7, #12
 1099 0050 BD46     		mov	sp, r7
 1100 0052 80BC     		pop	{r7}
 1101 0054 7047     		bx	lr
 1102              		.cfi_endproc
 1103              	.LFE13:
 1105 0056 00BF     		.section	.text.USBIntStatusEndpoint,"ax",%progbits
 1106              		.align	2
 1107              		.global	USBIntStatusEndpoint
 1108              		.thumb
 1109              		.thumb_func
 1111              	USBIntStatusEndpoint:
 1112              	.LFB14:
 910:C:/StellarisWare/driverlib\usb.c **** 
 911:C:/StellarisWare/driverlib\usb.c **** //*****************************************************************************
 912:C:/StellarisWare/driverlib\usb.c **** //
 913:C:/StellarisWare/driverlib\usb.c **** //! Returns the endpoint interrupt status on a given USB controller.
 914:C:/StellarisWare/driverlib\usb.c **** //!
 915:C:/StellarisWare/driverlib\usb.c **** //! \param ulBase specifies the USB module base address.
 916:C:/StellarisWare/driverlib\usb.c **** //!
 917:C:/StellarisWare/driverlib\usb.c **** //! This function reads endpoint interrupt status for a USB controller. This
 918:C:/StellarisWare/driverlib\usb.c **** //! call returns the current status for endpoint interrupts only, the control
 919:C:/StellarisWare/driverlib\usb.c **** //! interrupt status is retrieved by calling USBIntStatusControl(). The bit
 920:C:/StellarisWare/driverlib\usb.c **** //! values returned should be compared against the \b USB_INTEP_* values.
 921:C:/StellarisWare/driverlib\usb.c **** //! These values are grouped into classes for \b USB_INTEP_HOST_* and
 922:C:/StellarisWare/driverlib\usb.c **** //! \b USB_INTEP_DEV_* values to handle both host and device modes with all
 923:C:/StellarisWare/driverlib\usb.c **** //! endpoints.
 924:C:/StellarisWare/driverlib\usb.c **** //!
 925:C:/StellarisWare/driverlib\usb.c **** //! \note This call clears the source of all of the endpoint interrupts.
 926:C:/StellarisWare/driverlib\usb.c **** //!
 927:C:/StellarisWare/driverlib\usb.c **** //! \return Returns the status of the endpoint interrupts for a USB controller.
 928:C:/StellarisWare/driverlib\usb.c **** //
 929:C:/StellarisWare/driverlib\usb.c **** //*****************************************************************************
 930:C:/StellarisWare/driverlib\usb.c **** unsigned long
 931:C:/StellarisWare/driverlib\usb.c **** USBIntStatusEndpoint(unsigned long ulBase)
 932:C:/StellarisWare/driverlib\usb.c **** {
 1113              		.loc 1 932 0
 1114              		.cfi_startproc
 1115              		@ args = 0, pretend = 0, frame = 16
 1116              		@ frame_needed = 1, uses_anonymous_args = 0
 1117              		@ link register save eliminated.
 1118 0000 80B4     		push	{r7}
 1119              	.LCFI42:
 1120              		.cfi_def_cfa_offset 4
 1121              		.cfi_offset 7, -4
 1122 0002 85B0     		sub	sp, sp, #20
 1123              	.LCFI43:
 1124              		.cfi_def_cfa_offset 24
 1125 0004 00AF     		add	r7, sp, #0
 1126              	.LCFI44:
 1127              		.cfi_def_cfa_register 7
 1128 0006 7860     		str	r0, [r7, #4]
 933:C:/StellarisWare/driverlib\usb.c ****     unsigned long ulStatus;
 934:C:/StellarisWare/driverlib\usb.c **** 
 935:C:/StellarisWare/driverlib\usb.c ****     //
 936:C:/StellarisWare/driverlib\usb.c ****     // Check the arguments.
 937:C:/StellarisWare/driverlib\usb.c ****     //
 938:C:/StellarisWare/driverlib\usb.c ****     ASSERT(ulBase == USB0_BASE);
 939:C:/StellarisWare/driverlib\usb.c **** 
 940:C:/StellarisWare/driverlib\usb.c ****     //
 941:C:/StellarisWare/driverlib\usb.c ****     // Get the transmit interrupt status.
 942:C:/StellarisWare/driverlib\usb.c ****     //
 943:C:/StellarisWare/driverlib\usb.c ****     ulStatus = HWREGH(ulBase + USB_O_TXIS);
 1129              		.loc 1 943 0
 1130 0008 7B68     		ldr	r3, [r7, #4]
 1131 000a 03F10203 		add	r3, r3, #2
 1132 000e 1B88     		ldrh	r3, [r3, #0]	@ movhi
 1133 0010 9BB2     		uxth	r3, r3
 1134 0012 FB60     		str	r3, [r7, #12]
 944:C:/StellarisWare/driverlib\usb.c **** 
 945:C:/StellarisWare/driverlib\usb.c ****     ulStatus |= (HWREGH(ulBase + USB_O_RXIS) << USB_INTEP_RX_SHIFT);
 1135              		.loc 1 945 0
 1136 0014 7B68     		ldr	r3, [r7, #4]
 1137 0016 03F10403 		add	r3, r3, #4
 1138 001a 1B88     		ldrh	r3, [r3, #0]	@ movhi
 1139 001c 9BB2     		uxth	r3, r3
 1140 001e 4FEA0343 		lsl	r3, r3, #16
 1141 0022 FA68     		ldr	r2, [r7, #12]
 1142 0024 1343     		orrs	r3, r3, r2
 1143 0026 FB60     		str	r3, [r7, #12]
 946:C:/StellarisWare/driverlib\usb.c **** 
 947:C:/StellarisWare/driverlib\usb.c ****     //
 948:C:/StellarisWare/driverlib\usb.c ****     // Return the combined interrupt status.
 949:C:/StellarisWare/driverlib\usb.c ****     //
 950:C:/StellarisWare/driverlib\usb.c ****     return(ulStatus);
 1144              		.loc 1 950 0
 1145 0028 FB68     		ldr	r3, [r7, #12]
 951:C:/StellarisWare/driverlib\usb.c **** }
 1146              		.loc 1 951 0
 1147 002a 1846     		mov	r0, r3
 1148 002c 07F11407 		add	r7, r7, #20
 1149 0030 BD46     		mov	sp, r7
 1150 0032 80BC     		pop	{r7}
 1151 0034 7047     		bx	lr
 1152              		.cfi_endproc
 1153              	.LFE14:
 1155 0036 00BF     		.section	.text.USBIntRegister,"ax",%progbits
 1156              		.align	2
 1157              		.global	USBIntRegister
 1158              		.thumb
 1159              		.thumb_func
 1161              	USBIntRegister:
 1162              	.LFB15:
 952:C:/StellarisWare/driverlib\usb.c **** 
 953:C:/StellarisWare/driverlib\usb.c **** //*****************************************************************************
 954:C:/StellarisWare/driverlib\usb.c **** //
 955:C:/StellarisWare/driverlib\usb.c **** //! Registers an interrupt handler for the USB controller.
 956:C:/StellarisWare/driverlib\usb.c **** //!
 957:C:/StellarisWare/driverlib\usb.c **** //! \param ulBase specifies the USB module base address.
 958:C:/StellarisWare/driverlib\usb.c **** //! \param pfnHandler is a pointer to the function to be called when a USB
 959:C:/StellarisWare/driverlib\usb.c **** //! interrupt occurs.
 960:C:/StellarisWare/driverlib\usb.c **** //!
 961:C:/StellarisWare/driverlib\usb.c **** //! This function registers the handler to be called when a USB interrupt
 962:C:/StellarisWare/driverlib\usb.c **** //! occurs and enables the global USB interrupt in the interrupt controller.
 963:C:/StellarisWare/driverlib\usb.c **** //! The specific desired USB interrupts must be enabled via a separate call to
 964:C:/StellarisWare/driverlib\usb.c **** //! USBIntEnable().  It is the interrupt handler's responsibility to clear the
 965:C:/StellarisWare/driverlib\usb.c **** //! interrupt sources via calls to USBIntStatusControl() and
 966:C:/StellarisWare/driverlib\usb.c **** //! USBIntStatusEndpoint().
 967:C:/StellarisWare/driverlib\usb.c **** //!
 968:C:/StellarisWare/driverlib\usb.c **** //! \sa IntRegister() for important information about registering interrupt
 969:C:/StellarisWare/driverlib\usb.c **** //! handlers.
 970:C:/StellarisWare/driverlib\usb.c **** //!
 971:C:/StellarisWare/driverlib\usb.c **** //! \return None.
 972:C:/StellarisWare/driverlib\usb.c **** //
 973:C:/StellarisWare/driverlib\usb.c **** //*****************************************************************************
 974:C:/StellarisWare/driverlib\usb.c **** void
 975:C:/StellarisWare/driverlib\usb.c **** USBIntRegister(unsigned long ulBase, void(*pfnHandler)(void))
 976:C:/StellarisWare/driverlib\usb.c **** {
 1163              		.loc 1 976 0
 1164              		.cfi_startproc
 1165              		@ args = 0, pretend = 0, frame = 8
 1166              		@ frame_needed = 1, uses_anonymous_args = 0
 1167 0000 80B5     		push	{r7, lr}
 1168              	.LCFI45:
 1169              		.cfi_def_cfa_offset 8
 1170              		.cfi_offset 14, -4
 1171              		.cfi_offset 7, -8
 1172 0002 82B0     		sub	sp, sp, #8
 1173              	.LCFI46:
 1174              		.cfi_def_cfa_offset 16
 1175 0004 00AF     		add	r7, sp, #0
 1176              	.LCFI47:
 1177              		.cfi_def_cfa_register 7
 1178 0006 7860     		str	r0, [r7, #4]
 1179 0008 3960     		str	r1, [r7, #0]
 977:C:/StellarisWare/driverlib\usb.c ****     //
 978:C:/StellarisWare/driverlib\usb.c ****     // Check the arguments.
 979:C:/StellarisWare/driverlib\usb.c ****     //
 980:C:/StellarisWare/driverlib\usb.c ****     ASSERT(ulBase == USB0_BASE);
 981:C:/StellarisWare/driverlib\usb.c **** 
 982:C:/StellarisWare/driverlib\usb.c ****     //
 983:C:/StellarisWare/driverlib\usb.c ****     // Register the interrupt handler.
 984:C:/StellarisWare/driverlib\usb.c ****     //
 985:C:/StellarisWare/driverlib\usb.c ****     IntRegister(INT_USB0, pfnHandler);
 1180              		.loc 1 985 0
 1181 000a 4FF03C00 		mov	r0, #60
 1182 000e 3968     		ldr	r1, [r7, #0]
 1183 0010 FFF7FEFF 		bl	IntRegister
 986:C:/StellarisWare/driverlib\usb.c **** 
 987:C:/StellarisWare/driverlib\usb.c ****     //
 988:C:/StellarisWare/driverlib\usb.c ****     // Enable the USB interrupt.
 989:C:/StellarisWare/driverlib\usb.c ****     //
 990:C:/StellarisWare/driverlib\usb.c ****     IntEnable(INT_USB0);
 1184              		.loc 1 990 0
 1185 0014 4FF03C00 		mov	r0, #60
 1186 0018 FFF7FEFF 		bl	IntEnable
 991:C:/StellarisWare/driverlib\usb.c **** }
 1187              		.loc 1 991 0
 1188 001c 07F10807 		add	r7, r7, #8
 1189 0020 BD46     		mov	sp, r7
 1190 0022 80BD     		pop	{r7, pc}
 1191              		.cfi_endproc
 1192              	.LFE15:
 1194              		.section	.text.USBIntUnregister,"ax",%progbits
 1195              		.align	2
 1196              		.global	USBIntUnregister
 1197              		.thumb
 1198              		.thumb_func
 1200              	USBIntUnregister:
 1201              	.LFB16:
 992:C:/StellarisWare/driverlib\usb.c **** 
 993:C:/StellarisWare/driverlib\usb.c **** //*****************************************************************************
 994:C:/StellarisWare/driverlib\usb.c **** //
 995:C:/StellarisWare/driverlib\usb.c **** //! Unregisters an interrupt handler for the USB controller.
 996:C:/StellarisWare/driverlib\usb.c **** //!
 997:C:/StellarisWare/driverlib\usb.c **** //! \param ulBase specifies the USB module base address.
 998:C:/StellarisWare/driverlib\usb.c **** //!
 999:C:/StellarisWare/driverlib\usb.c **** //! This function unregisters the interrupt handler.  This function also
1000:C:/StellarisWare/driverlib\usb.c **** //! disables the USB interrupt in the interrupt controller.
1001:C:/StellarisWare/driverlib\usb.c **** //!
1002:C:/StellarisWare/driverlib\usb.c **** //! \sa IntRegister() for important information about registering or
1003:C:/StellarisWare/driverlib\usb.c **** //! unregistering interrupt handlers.
1004:C:/StellarisWare/driverlib\usb.c **** //!
1005:C:/StellarisWare/driverlib\usb.c **** //! \return None.
1006:C:/StellarisWare/driverlib\usb.c **** //
1007:C:/StellarisWare/driverlib\usb.c **** //*****************************************************************************
1008:C:/StellarisWare/driverlib\usb.c **** void
1009:C:/StellarisWare/driverlib\usb.c **** USBIntUnregister(unsigned long ulBase)
1010:C:/StellarisWare/driverlib\usb.c **** {
 1202              		.loc 1 1010 0
 1203              		.cfi_startproc
 1204              		@ args = 0, pretend = 0, frame = 8
 1205              		@ frame_needed = 1, uses_anonymous_args = 0
 1206 0000 80B5     		push	{r7, lr}
 1207              	.LCFI48:
 1208              		.cfi_def_cfa_offset 8
 1209              		.cfi_offset 14, -4
 1210              		.cfi_offset 7, -8
 1211 0002 82B0     		sub	sp, sp, #8
 1212              	.LCFI49:
 1213              		.cfi_def_cfa_offset 16
 1214 0004 00AF     		add	r7, sp, #0
 1215              	.LCFI50:
 1216              		.cfi_def_cfa_register 7
 1217 0006 7860     		str	r0, [r7, #4]
1011:C:/StellarisWare/driverlib\usb.c ****     //
1012:C:/StellarisWare/driverlib\usb.c ****     // Check the arguments.
1013:C:/StellarisWare/driverlib\usb.c ****     //
1014:C:/StellarisWare/driverlib\usb.c ****     ASSERT(ulBase == USB0_BASE);
1015:C:/StellarisWare/driverlib\usb.c **** 
1016:C:/StellarisWare/driverlib\usb.c ****     //
1017:C:/StellarisWare/driverlib\usb.c ****     // Disable the USB interrupt.
1018:C:/StellarisWare/driverlib\usb.c ****     //
1019:C:/StellarisWare/driverlib\usb.c ****     IntDisable(INT_USB0);
 1218              		.loc 1 1019 0
 1219 0008 4FF03C00 		mov	r0, #60
 1220 000c FFF7FEFF 		bl	IntDisable
1020:C:/StellarisWare/driverlib\usb.c **** 
1021:C:/StellarisWare/driverlib\usb.c ****     //
1022:C:/StellarisWare/driverlib\usb.c ****     // Unregister the interrupt handler.
1023:C:/StellarisWare/driverlib\usb.c ****     //
1024:C:/StellarisWare/driverlib\usb.c ****     IntUnregister(INT_USB0);
 1221              		.loc 1 1024 0
 1222 0010 4FF03C00 		mov	r0, #60
 1223 0014 FFF7FEFF 		bl	IntUnregister
1025:C:/StellarisWare/driverlib\usb.c **** }
 1224              		.loc 1 1025 0
 1225 0018 07F10807 		add	r7, r7, #8
 1226 001c BD46     		mov	sp, r7
 1227 001e 80BD     		pop	{r7, pc}
 1228              		.cfi_endproc
 1229              	.LFE16:
 1231              		.section	.text.USBEndpointStatus,"ax",%progbits
 1232              		.align	2
 1233              		.global	USBEndpointStatus
 1234              		.thumb
 1235              		.thumb_func
 1237              	USBEndpointStatus:
 1238              	.LFB17:
1026:C:/StellarisWare/driverlib\usb.c **** 
1027:C:/StellarisWare/driverlib\usb.c **** //*****************************************************************************
1028:C:/StellarisWare/driverlib\usb.c **** //
1029:C:/StellarisWare/driverlib\usb.c **** //! Returns the current status of an endpoint.
1030:C:/StellarisWare/driverlib\usb.c **** //!
1031:C:/StellarisWare/driverlib\usb.c **** //! \param ulBase specifies the USB module base address.
1032:C:/StellarisWare/driverlib\usb.c **** //! \param ulEndpoint is the endpoint to access.
1033:C:/StellarisWare/driverlib\usb.c **** //!
1034:C:/StellarisWare/driverlib\usb.c **** //! This function returns the status of a given endpoint.  If any of these
1035:C:/StellarisWare/driverlib\usb.c **** //! status bits must be cleared, then the USBDevEndpointStatusClear() or the
1036:C:/StellarisWare/driverlib\usb.c **** //! USBHostEndpointStatusClear() functions should be called.
1037:C:/StellarisWare/driverlib\usb.c **** //!
1038:C:/StellarisWare/driverlib\usb.c **** //! The following are the status flags for host mode:
1039:C:/StellarisWare/driverlib\usb.c **** //!
1040:C:/StellarisWare/driverlib\usb.c **** //! - \b USB_HOST_IN_PID_ERROR - PID error on the given endpoint.
1041:C:/StellarisWare/driverlib\usb.c **** //! - \b USB_HOST_IN_NOT_COMP - The device failed to respond to an IN request.
1042:C:/StellarisWare/driverlib\usb.c **** //! - \b USB_HOST_IN_STALL - A stall was received on an IN endpoint.
1043:C:/StellarisWare/driverlib\usb.c **** //! - \b USB_HOST_IN_DATA_ERROR - There was a CRC or bit-stuff error on an IN
1044:C:/StellarisWare/driverlib\usb.c **** //!   endpoint in Isochronous mode.
1045:C:/StellarisWare/driverlib\usb.c **** //! - \b USB_HOST_IN_NAK_TO - NAKs received on this IN endpoint for more than
1046:C:/StellarisWare/driverlib\usb.c **** //!   the specified timeout period.
1047:C:/StellarisWare/driverlib\usb.c **** //! - \b USB_HOST_IN_ERROR - Failed to communicate with a device using this IN
1048:C:/StellarisWare/driverlib\usb.c **** //!   endpoint.
1049:C:/StellarisWare/driverlib\usb.c **** //! - \b USB_HOST_IN_FIFO_FULL - This IN endpoint's FIFO is full.
1050:C:/StellarisWare/driverlib\usb.c **** //! - \b USB_HOST_IN_PKTRDY - Data packet ready on this IN endpoint.
1051:C:/StellarisWare/driverlib\usb.c **** //! - \b USB_HOST_OUT_NAK_TO - NAKs received on this OUT endpoint for more than
1052:C:/StellarisWare/driverlib\usb.c **** //!   the specified timeout period.
1053:C:/StellarisWare/driverlib\usb.c **** //! - \b USB_HOST_OUT_NOT_COMP - The device failed to respond to an OUT
1054:C:/StellarisWare/driverlib\usb.c **** //!   request.
1055:C:/StellarisWare/driverlib\usb.c **** //! - \b USB_HOST_OUT_STALL - A stall was received on this OUT endpoint.
1056:C:/StellarisWare/driverlib\usb.c **** //! - \b USB_HOST_OUT_ERROR - Failed to communicate with a device using this
1057:C:/StellarisWare/driverlib\usb.c **** //!   OUT endpoint.
1058:C:/StellarisWare/driverlib\usb.c **** //! - \b USB_HOST_OUT_FIFO_NE - This endpoint's OUT FIFO is not empty.
1059:C:/StellarisWare/driverlib\usb.c **** //! - \b USB_HOST_OUT_PKTPEND - The data transfer on this OUT endpoint has not
1060:C:/StellarisWare/driverlib\usb.c **** //!   completed.
1061:C:/StellarisWare/driverlib\usb.c **** //! - \b USB_HOST_EP0_NAK_TO - NAKs received on endpoint zero for more than the
1062:C:/StellarisWare/driverlib\usb.c **** //!   specified timeout period.
1063:C:/StellarisWare/driverlib\usb.c **** //! - \b USB_HOST_EP0_ERROR - The device failed to respond to a request on
1064:C:/StellarisWare/driverlib\usb.c **** //!   endpoint zero.
1065:C:/StellarisWare/driverlib\usb.c **** //! - \b USB_HOST_EP0_IN_STALL - A stall was received on endpoint zero for an
1066:C:/StellarisWare/driverlib\usb.c **** //!   IN transaction.
1067:C:/StellarisWare/driverlib\usb.c **** //! - \b USB_HOST_EP0_IN_PKTRDY - Data packet ready on endpoint zero for an IN
1068:C:/StellarisWare/driverlib\usb.c **** //!   transaction.
1069:C:/StellarisWare/driverlib\usb.c **** //!
1070:C:/StellarisWare/driverlib\usb.c **** //! The following are the status flags for device mode:
1071:C:/StellarisWare/driverlib\usb.c **** //!
1072:C:/StellarisWare/driverlib\usb.c **** //! - \b USB_DEV_OUT_SENT_STALL - A stall was sent on this OUT endpoint.
1073:C:/StellarisWare/driverlib\usb.c **** //! - \b USB_DEV_OUT_DATA_ERROR - There was a CRC or bit-stuff error on an OUT
1074:C:/StellarisWare/driverlib\usb.c **** //!   endpoint.
1075:C:/StellarisWare/driverlib\usb.c **** //! - \b USB_DEV_OUT_OVERRUN - An OUT packet was not loaded due to a full FIFO.
1076:C:/StellarisWare/driverlib\usb.c **** //! - \b USB_DEV_OUT_FIFO_FULL - The OUT endpoint's FIFO is full.
1077:C:/StellarisWare/driverlib\usb.c **** //! - \b USB_DEV_OUT_PKTRDY - There is a data packet ready in the OUT
1078:C:/StellarisWare/driverlib\usb.c **** //!   endpoint's FIFO.
1079:C:/StellarisWare/driverlib\usb.c **** //! - \b USB_DEV_IN_NOT_COMP - A larger packet was split up, more data to come.
1080:C:/StellarisWare/driverlib\usb.c **** //! - \b USB_DEV_IN_SENT_STALL - A stall was sent on this IN endpoint.
1081:C:/StellarisWare/driverlib\usb.c **** //! - \b USB_DEV_IN_UNDERRUN - Data was requested on the IN endpoint and no
1082:C:/StellarisWare/driverlib\usb.c **** //!   data was ready.
1083:C:/StellarisWare/driverlib\usb.c **** //! - \b USB_DEV_IN_FIFO_NE - The IN endpoint's FIFO is not empty.
1084:C:/StellarisWare/driverlib\usb.c **** //! - \b USB_DEV_IN_PKTPEND - The data transfer on this IN endpoint has not
1085:C:/StellarisWare/driverlib\usb.c **** //!   completed.
1086:C:/StellarisWare/driverlib\usb.c **** //! - \b USB_DEV_EP0_SETUP_END - A control transaction ended before Data End
1087:C:/StellarisWare/driverlib\usb.c **** //!   condition was sent.
1088:C:/StellarisWare/driverlib\usb.c **** //! - \b USB_DEV_EP0_SENT_STALL - A stall was sent on endpoint zero.
1089:C:/StellarisWare/driverlib\usb.c **** //! - \b USB_DEV_EP0_IN_PKTPEND - The data transfer on endpoint zero has not
1090:C:/StellarisWare/driverlib\usb.c **** //!   completed.
1091:C:/StellarisWare/driverlib\usb.c **** //! - \b USB_DEV_EP0_OUT_PKTRDY - There is a data packet ready in endpoint
1092:C:/StellarisWare/driverlib\usb.c **** //!   zero's OUT FIFO.
1093:C:/StellarisWare/driverlib\usb.c **** //!
1094:C:/StellarisWare/driverlib\usb.c **** //! \return The current status flags for the endpoint depending on mode.
1095:C:/StellarisWare/driverlib\usb.c **** //
1096:C:/StellarisWare/driverlib\usb.c **** //*****************************************************************************
1097:C:/StellarisWare/driverlib\usb.c **** unsigned long
1098:C:/StellarisWare/driverlib\usb.c **** USBEndpointStatus(unsigned long ulBase, unsigned long ulEndpoint)
1099:C:/StellarisWare/driverlib\usb.c **** {
 1239              		.loc 1 1099 0
 1240              		.cfi_startproc
 1241              		@ args = 0, pretend = 0, frame = 16
 1242              		@ frame_needed = 1, uses_anonymous_args = 0
 1243              		@ link register save eliminated.
 1244 0000 80B4     		push	{r7}
 1245              	.LCFI51:
 1246              		.cfi_def_cfa_offset 4
 1247              		.cfi_offset 7, -4
 1248 0002 85B0     		sub	sp, sp, #20
 1249              	.LCFI52:
 1250              		.cfi_def_cfa_offset 24
 1251 0004 00AF     		add	r7, sp, #0
 1252              	.LCFI53:
 1253              		.cfi_def_cfa_register 7
 1254 0006 7860     		str	r0, [r7, #4]
 1255 0008 3960     		str	r1, [r7, #0]
1100:C:/StellarisWare/driverlib\usb.c ****     unsigned long ulStatus;
1101:C:/StellarisWare/driverlib\usb.c **** 
1102:C:/StellarisWare/driverlib\usb.c ****     //
1103:C:/StellarisWare/driverlib\usb.c ****     // Check the arguments.
1104:C:/StellarisWare/driverlib\usb.c ****     //
1105:C:/StellarisWare/driverlib\usb.c ****     ASSERT(ulBase == USB0_BASE);
1106:C:/StellarisWare/driverlib\usb.c ****     ASSERT((ulEndpoint == USB_EP_0) || (ulEndpoint == USB_EP_1) ||
1107:C:/StellarisWare/driverlib\usb.c ****            (ulEndpoint == USB_EP_2) || (ulEndpoint == USB_EP_3) ||
1108:C:/StellarisWare/driverlib\usb.c ****            (ulEndpoint == USB_EP_4) || (ulEndpoint == USB_EP_5) ||
1109:C:/StellarisWare/driverlib\usb.c ****            (ulEndpoint == USB_EP_6) || (ulEndpoint == USB_EP_7) ||
1110:C:/StellarisWare/driverlib\usb.c ****            (ulEndpoint == USB_EP_8) || (ulEndpoint == USB_EP_9) ||
1111:C:/StellarisWare/driverlib\usb.c ****            (ulEndpoint == USB_EP_10) || (ulEndpoint == USB_EP_11) ||
1112:C:/StellarisWare/driverlib\usb.c ****            (ulEndpoint == USB_EP_12) || (ulEndpoint == USB_EP_13) ||
1113:C:/StellarisWare/driverlib\usb.c ****            (ulEndpoint == USB_EP_14) || (ulEndpoint == USB_EP_15));
1114:C:/StellarisWare/driverlib\usb.c **** 
1115:C:/StellarisWare/driverlib\usb.c ****     //
1116:C:/StellarisWare/driverlib\usb.c ****     // Get the TX portion of the endpoint status.
1117:C:/StellarisWare/driverlib\usb.c ****     //
1118:C:/StellarisWare/driverlib\usb.c ****     ulStatus = HWREGH(ulBase + EP_OFFSET(ulEndpoint) + USB_O_TXCSRL1);
 1256              		.loc 1 1118 0
 1257 000a 3A68     		ldr	r2, [r7, #0]
 1258 000c 7B68     		ldr	r3, [r7, #4]
 1259 000e D318     		adds	r3, r2, r3
 1260 0010 03F58173 		add	r3, r3, #258
 1261 0014 1B88     		ldrh	r3, [r3, #0]	@ movhi
 1262 0016 9BB2     		uxth	r3, r3
 1263 0018 FB60     		str	r3, [r7, #12]
1119:C:/StellarisWare/driverlib\usb.c **** 
1120:C:/StellarisWare/driverlib\usb.c ****     //
1121:C:/StellarisWare/driverlib\usb.c ****     // Get the RX portion of the endpoint status.
1122:C:/StellarisWare/driverlib\usb.c ****     //
1123:C:/StellarisWare/driverlib\usb.c ****     ulStatus |= ((HWREGH(ulBase + EP_OFFSET(ulEndpoint) + USB_O_RXCSRL1)) <<
 1264              		.loc 1 1123 0
 1265 001a 3A68     		ldr	r2, [r7, #0]
 1266 001c 7B68     		ldr	r3, [r7, #4]
 1267 001e D318     		adds	r3, r2, r3
 1268 0020 03F58373 		add	r3, r3, #262
 1269 0024 1B88     		ldrh	r3, [r3, #0]	@ movhi
 1270 0026 9BB2     		uxth	r3, r3
 1271 0028 4FEA0343 		lsl	r3, r3, #16
 1272 002c FA68     		ldr	r2, [r7, #12]
 1273 002e 1343     		orrs	r3, r3, r2
 1274 0030 FB60     		str	r3, [r7, #12]
1124:C:/StellarisWare/driverlib\usb.c ****                  USB_RX_EPSTATUS_SHIFT);
1125:C:/StellarisWare/driverlib\usb.c **** 
1126:C:/StellarisWare/driverlib\usb.c ****     //
1127:C:/StellarisWare/driverlib\usb.c ****     // Return the endpoint status.
1128:C:/StellarisWare/driverlib\usb.c ****     //
1129:C:/StellarisWare/driverlib\usb.c ****     return(ulStatus);
 1275              		.loc 1 1129 0
 1276 0032 FB68     		ldr	r3, [r7, #12]
1130:C:/StellarisWare/driverlib\usb.c **** }
 1277              		.loc 1 1130 0
 1278 0034 1846     		mov	r0, r3
 1279 0036 07F11407 		add	r7, r7, #20
 1280 003a BD46     		mov	sp, r7
 1281 003c 80BC     		pop	{r7}
 1282 003e 7047     		bx	lr
 1283              		.cfi_endproc
 1284              	.LFE17:
 1286              		.section	.text.USBHostEndpointStatusClear,"ax",%progbits
 1287              		.align	2
 1288              		.global	USBHostEndpointStatusClear
 1289              		.thumb
 1290              		.thumb_func
 1292              	USBHostEndpointStatusClear:
 1293              	.LFB18:
1131:C:/StellarisWare/driverlib\usb.c **** 
1132:C:/StellarisWare/driverlib\usb.c **** //*****************************************************************************
1133:C:/StellarisWare/driverlib\usb.c **** //
1134:C:/StellarisWare/driverlib\usb.c **** //! Clears the status bits in this endpoint in host mode.
1135:C:/StellarisWare/driverlib\usb.c **** //!
1136:C:/StellarisWare/driverlib\usb.c **** //! \param ulBase specifies the USB module base address.
1137:C:/StellarisWare/driverlib\usb.c **** //! \param ulEndpoint is the endpoint to access.
1138:C:/StellarisWare/driverlib\usb.c **** //! \param ulFlags are the status bits that should be cleared.
1139:C:/StellarisWare/driverlib\usb.c **** //!
1140:C:/StellarisWare/driverlib\usb.c **** //! This function clears the status of any bits that are passed in the
1141:C:/StellarisWare/driverlib\usb.c **** //! \e ulFlags parameter.  The \e ulFlags parameter can take the value returned
1142:C:/StellarisWare/driverlib\usb.c **** //! from the USBEndpointStatus() call.
1143:C:/StellarisWare/driverlib\usb.c **** //!
1144:C:/StellarisWare/driverlib\usb.c **** //! \note This function should only be called in host mode.
1145:C:/StellarisWare/driverlib\usb.c **** //!
1146:C:/StellarisWare/driverlib\usb.c **** //! \return None.
1147:C:/StellarisWare/driverlib\usb.c **** //
1148:C:/StellarisWare/driverlib\usb.c **** //*****************************************************************************
1149:C:/StellarisWare/driverlib\usb.c **** void
1150:C:/StellarisWare/driverlib\usb.c **** USBHostEndpointStatusClear(unsigned long ulBase, unsigned long ulEndpoint,
1151:C:/StellarisWare/driverlib\usb.c ****                            unsigned long ulFlags)
1152:C:/StellarisWare/driverlib\usb.c **** {
 1294              		.loc 1 1152 0
 1295              		.cfi_startproc
 1296              		@ args = 0, pretend = 0, frame = 16
 1297              		@ frame_needed = 1, uses_anonymous_args = 0
 1298              		@ link register save eliminated.
 1299 0000 80B4     		push	{r7}
 1300              	.LCFI54:
 1301              		.cfi_def_cfa_offset 4
 1302              		.cfi_offset 7, -4
 1303 0002 85B0     		sub	sp, sp, #20
 1304              	.LCFI55:
 1305              		.cfi_def_cfa_offset 24
 1306 0004 00AF     		add	r7, sp, #0
 1307              	.LCFI56:
 1308              		.cfi_def_cfa_register 7
 1309 0006 F860     		str	r0, [r7, #12]
 1310 0008 B960     		str	r1, [r7, #8]
 1311 000a 7A60     		str	r2, [r7, #4]
1153:C:/StellarisWare/driverlib\usb.c ****     //
1154:C:/StellarisWare/driverlib\usb.c ****     // Check the arguments.
1155:C:/StellarisWare/driverlib\usb.c ****     //
1156:C:/StellarisWare/driverlib\usb.c ****     ASSERT(ulBase == USB0_BASE);
1157:C:/StellarisWare/driverlib\usb.c ****     ASSERT((ulEndpoint == USB_EP_0) || (ulEndpoint == USB_EP_1) ||
1158:C:/StellarisWare/driverlib\usb.c ****            (ulEndpoint == USB_EP_2) || (ulEndpoint == USB_EP_3) ||
1159:C:/StellarisWare/driverlib\usb.c ****            (ulEndpoint == USB_EP_4) || (ulEndpoint == USB_EP_5) ||
1160:C:/StellarisWare/driverlib\usb.c ****            (ulEndpoint == USB_EP_6) || (ulEndpoint == USB_EP_7) ||
1161:C:/StellarisWare/driverlib\usb.c ****            (ulEndpoint == USB_EP_8) || (ulEndpoint == USB_EP_9) ||
1162:C:/StellarisWare/driverlib\usb.c ****            (ulEndpoint == USB_EP_10) || (ulEndpoint == USB_EP_11) ||
1163:C:/StellarisWare/driverlib\usb.c ****            (ulEndpoint == USB_EP_12) || (ulEndpoint == USB_EP_13) ||
1164:C:/StellarisWare/driverlib\usb.c ****            (ulEndpoint == USB_EP_14) || (ulEndpoint == USB_EP_15));
1165:C:/StellarisWare/driverlib\usb.c **** 
1166:C:/StellarisWare/driverlib\usb.c ****     //
1167:C:/StellarisWare/driverlib\usb.c ****     // Clear the specified flags for the endpoint.
1168:C:/StellarisWare/driverlib\usb.c ****     //
1169:C:/StellarisWare/driverlib\usb.c ****     if(ulEndpoint == USB_EP_0)
 1312              		.loc 1 1169 0
 1313 000c BB68     		ldr	r3, [r7, #8]
 1314 000e 002B     		cmp	r3, #0
 1315 0010 10D1     		bne	.L51
1170:C:/StellarisWare/driverlib\usb.c ****     {
1171:C:/StellarisWare/driverlib\usb.c ****         HWREGB(ulBase + USB_O_CSRL0) &= ~ulFlags;
 1316              		.loc 1 1171 0
 1317 0012 FB68     		ldr	r3, [r7, #12]
 1318 0014 03F58173 		add	r3, r3, #258
 1319 0018 FA68     		ldr	r2, [r7, #12]
 1320 001a 02F58172 		add	r2, r2, #258
 1321 001e 1278     		ldrb	r2, [r2, #0]
 1322 0020 D1B2     		uxtb	r1, r2
 1323 0022 7A68     		ldr	r2, [r7, #4]
 1324 0024 D2B2     		uxtb	r2, r2
 1325 0026 6FEA0202 		mvn	r2, r2
 1326 002a D2B2     		uxtb	r2, r2
 1327 002c 0A40     		ands	r2, r2, r1
 1328 002e D2B2     		uxtb	r2, r2
 1329 0030 1A70     		strb	r2, [r3, #0]
 1330 0032 29E0     		b	.L50
 1331              	.L51:
1172:C:/StellarisWare/driverlib\usb.c ****     }
1173:C:/StellarisWare/driverlib\usb.c ****     else
1174:C:/StellarisWare/driverlib\usb.c ****     {
1175:C:/StellarisWare/driverlib\usb.c ****         HWREGB(ulBase + USB_O_TXCSRL1 + EP_OFFSET(ulEndpoint)) &= ~ulFlags;
 1332              		.loc 1 1175 0
 1333 0034 FA68     		ldr	r2, [r7, #12]
 1334 0036 BB68     		ldr	r3, [r7, #8]
 1335 0038 D318     		adds	r3, r2, r3
 1336 003a 03F58173 		add	r3, r3, #258
 1337 003e F968     		ldr	r1, [r7, #12]
 1338 0040 BA68     		ldr	r2, [r7, #8]
 1339 0042 8A18     		adds	r2, r1, r2
 1340 0044 02F58172 		add	r2, r2, #258
 1341 0048 1278     		ldrb	r2, [r2, #0]
 1342 004a D1B2     		uxtb	r1, r2
 1343 004c 7A68     		ldr	r2, [r7, #4]
 1344 004e D2B2     		uxtb	r2, r2
 1345 0050 6FEA0202 		mvn	r2, r2
 1346 0054 D2B2     		uxtb	r2, r2
 1347 0056 0A40     		ands	r2, r2, r1
 1348 0058 D2B2     		uxtb	r2, r2
 1349 005a 1A70     		strb	r2, [r3, #0]
1176:C:/StellarisWare/driverlib\usb.c ****         HWREGB(ulBase + USB_O_RXCSRL1 + EP_OFFSET(ulEndpoint)) &=
 1350              		.loc 1 1176 0
 1351 005c FA68     		ldr	r2, [r7, #12]
 1352 005e BB68     		ldr	r3, [r7, #8]
 1353 0060 D318     		adds	r3, r2, r3
 1354 0062 03F58373 		add	r3, r3, #262
 1355 0066 F968     		ldr	r1, [r7, #12]
 1356 0068 BA68     		ldr	r2, [r7, #8]
 1357 006a 8A18     		adds	r2, r1, r2
 1358 006c 02F58372 		add	r2, r2, #262
 1359 0070 1278     		ldrb	r2, [r2, #0]
 1360 0072 D1B2     		uxtb	r1, r2
1177:C:/StellarisWare/driverlib\usb.c ****             ~(ulFlags >> USB_RX_EPSTATUS_SHIFT);
 1361              		.loc 1 1177 0
 1362 0074 7A68     		ldr	r2, [r7, #4]
 1363 0076 4FEA1242 		lsr	r2, r2, #16
1176:C:/StellarisWare/driverlib\usb.c ****         HWREGB(ulBase + USB_O_RXCSRL1 + EP_OFFSET(ulEndpoint)) &=
 1364              		.loc 1 1176 0
 1365 007a D2B2     		uxtb	r2, r2
 1366 007c 6FEA0202 		mvn	r2, r2
 1367 0080 D2B2     		uxtb	r2, r2
 1368 0082 0A40     		ands	r2, r2, r1
 1369 0084 D2B2     		uxtb	r2, r2
 1370 0086 1A70     		strb	r2, [r3, #0]
 1371              	.L50:
1178:C:/StellarisWare/driverlib\usb.c ****     }
1179:C:/StellarisWare/driverlib\usb.c **** }
 1372              		.loc 1 1179 0
 1373 0088 07F11407 		add	r7, r7, #20
 1374 008c BD46     		mov	sp, r7
 1375 008e 80BC     		pop	{r7}
 1376 0090 7047     		bx	lr
 1377              		.cfi_endproc
 1378              	.LFE18:
 1380 0092 00BF     		.section	.text.USBDevEndpointStatusClear,"ax",%progbits
 1381              		.align	2
 1382              		.global	USBDevEndpointStatusClear
 1383              		.thumb
 1384              		.thumb_func
 1386              	USBDevEndpointStatusClear:
 1387              	.LFB19:
1180:C:/StellarisWare/driverlib\usb.c **** 
1181:C:/StellarisWare/driverlib\usb.c **** //*****************************************************************************
1182:C:/StellarisWare/driverlib\usb.c **** //
1183:C:/StellarisWare/driverlib\usb.c **** //! Clears the status bits in this endpoint in device mode.
1184:C:/StellarisWare/driverlib\usb.c **** //!
1185:C:/StellarisWare/driverlib\usb.c **** //! \param ulBase specifies the USB module base address.
1186:C:/StellarisWare/driverlib\usb.c **** //! \param ulEndpoint is the endpoint to access.
1187:C:/StellarisWare/driverlib\usb.c **** //! \param ulFlags are the status bits that should be cleared.
1188:C:/StellarisWare/driverlib\usb.c **** //!
1189:C:/StellarisWare/driverlib\usb.c **** //! This function clears the status of any bits that are passed in the
1190:C:/StellarisWare/driverlib\usb.c **** //! \e ulFlags parameter.  The \e ulFlags parameter can take the value returned
1191:C:/StellarisWare/driverlib\usb.c **** //! from the USBEndpointStatus() call.
1192:C:/StellarisWare/driverlib\usb.c **** //!
1193:C:/StellarisWare/driverlib\usb.c **** //! \note This function should only be called in device mode.
1194:C:/StellarisWare/driverlib\usb.c **** //!
1195:C:/StellarisWare/driverlib\usb.c **** //! \return None.
1196:C:/StellarisWare/driverlib\usb.c **** //
1197:C:/StellarisWare/driverlib\usb.c **** //*****************************************************************************
1198:C:/StellarisWare/driverlib\usb.c **** void
1199:C:/StellarisWare/driverlib\usb.c **** USBDevEndpointStatusClear(unsigned long ulBase, unsigned long ulEndpoint,
1200:C:/StellarisWare/driverlib\usb.c ****                           unsigned long ulFlags)
1201:C:/StellarisWare/driverlib\usb.c **** {
 1388              		.loc 1 1201 0
 1389              		.cfi_startproc
 1390              		@ args = 0, pretend = 0, frame = 16
 1391              		@ frame_needed = 1, uses_anonymous_args = 0
 1392              		@ link register save eliminated.
 1393 0000 80B4     		push	{r7}
 1394              	.LCFI57:
 1395              		.cfi_def_cfa_offset 4
 1396              		.cfi_offset 7, -4
 1397 0002 85B0     		sub	sp, sp, #20
 1398              	.LCFI58:
 1399              		.cfi_def_cfa_offset 24
 1400 0004 00AF     		add	r7, sp, #0
 1401              	.LCFI59:
 1402              		.cfi_def_cfa_register 7
 1403 0006 F860     		str	r0, [r7, #12]
 1404 0008 B960     		str	r1, [r7, #8]
 1405 000a 7A60     		str	r2, [r7, #4]
1202:C:/StellarisWare/driverlib\usb.c ****     //
1203:C:/StellarisWare/driverlib\usb.c ****     // Check the arguments.
1204:C:/StellarisWare/driverlib\usb.c ****     //
1205:C:/StellarisWare/driverlib\usb.c ****     ASSERT(ulBase == USB0_BASE);
1206:C:/StellarisWare/driverlib\usb.c ****     ASSERT((ulEndpoint == USB_EP_0) || (ulEndpoint == USB_EP_1) ||
1207:C:/StellarisWare/driverlib\usb.c ****            (ulEndpoint == USB_EP_2) || (ulEndpoint == USB_EP_3) ||
1208:C:/StellarisWare/driverlib\usb.c ****            (ulEndpoint == USB_EP_4) || (ulEndpoint == USB_EP_5) ||
1209:C:/StellarisWare/driverlib\usb.c ****            (ulEndpoint == USB_EP_6) || (ulEndpoint == USB_EP_7) ||
1210:C:/StellarisWare/driverlib\usb.c ****            (ulEndpoint == USB_EP_8) || (ulEndpoint == USB_EP_9) ||
1211:C:/StellarisWare/driverlib\usb.c ****            (ulEndpoint == USB_EP_10) || (ulEndpoint == USB_EP_11) ||
1212:C:/StellarisWare/driverlib\usb.c ****            (ulEndpoint == USB_EP_12) || (ulEndpoint == USB_EP_13) ||
1213:C:/StellarisWare/driverlib\usb.c ****            (ulEndpoint == USB_EP_14) || (ulEndpoint == USB_EP_15));
1214:C:/StellarisWare/driverlib\usb.c **** 
1215:C:/StellarisWare/driverlib\usb.c ****     //
1216:C:/StellarisWare/driverlib\usb.c ****     // If this is endpoint 0, then the bits have different meaning and map
1217:C:/StellarisWare/driverlib\usb.c ****     // into the TX memory location.
1218:C:/StellarisWare/driverlib\usb.c ****     //
1219:C:/StellarisWare/driverlib\usb.c ****     if(ulEndpoint == USB_EP_0)
 1406              		.loc 1 1219 0
 1407 000c BB68     		ldr	r3, [r7, #8]
 1408 000e 002B     		cmp	r3, #0
 1409 0010 34D1     		bne	.L54
1220:C:/StellarisWare/driverlib\usb.c ****     {
1221:C:/StellarisWare/driverlib\usb.c ****         //
1222:C:/StellarisWare/driverlib\usb.c ****         // Set the Serviced RxPktRdy bit to clear the RxPktRdy.
1223:C:/StellarisWare/driverlib\usb.c ****         //
1224:C:/StellarisWare/driverlib\usb.c ****         if(ulFlags & USB_DEV_EP0_OUT_PKTRDY)
 1410              		.loc 1 1224 0
 1411 0012 7B68     		ldr	r3, [r7, #4]
 1412 0014 03F00103 		and	r3, r3, #1
 1413 0018 DBB2     		uxtb	r3, r3
 1414 001a 002B     		cmp	r3, #0
 1415 001c 0BD0     		beq	.L55
1225:C:/StellarisWare/driverlib\usb.c ****         {
1226:C:/StellarisWare/driverlib\usb.c ****             HWREGB(ulBase + USB_O_CSRL0) |= USB_CSRL0_RXRDYC;
 1416              		.loc 1 1226 0
 1417 001e FB68     		ldr	r3, [r7, #12]
 1418 0020 03F58173 		add	r3, r3, #258
 1419 0024 FA68     		ldr	r2, [r7, #12]
 1420 0026 02F58172 		add	r2, r2, #258
 1421 002a 1278     		ldrb	r2, [r2, #0]
 1422 002c D2B2     		uxtb	r2, r2
 1423 002e 42F04002 		orr	r2, r2, #64
 1424 0032 D2B2     		uxtb	r2, r2
 1425 0034 1A70     		strb	r2, [r3, #0]
 1426              	.L55:
1227:C:/StellarisWare/driverlib\usb.c ****         }
1228:C:/StellarisWare/driverlib\usb.c **** 
1229:C:/StellarisWare/driverlib\usb.c ****         //
1230:C:/StellarisWare/driverlib\usb.c ****         // Set the serviced Setup End bit to clear the SetupEnd status.
1231:C:/StellarisWare/driverlib\usb.c ****         //
1232:C:/StellarisWare/driverlib\usb.c ****         if(ulFlags & USB_DEV_EP0_SETUP_END)
 1427              		.loc 1 1232 0
 1428 0036 7B68     		ldr	r3, [r7, #4]
 1429 0038 03F01003 		and	r3, r3, #16
 1430 003c 002B     		cmp	r3, #0
 1431 003e 0BD0     		beq	.L56
1233:C:/StellarisWare/driverlib\usb.c ****         {
1234:C:/StellarisWare/driverlib\usb.c ****             HWREGB(ulBase + USB_O_CSRL0) |= USB_CSRL0_SETENDC;
 1432              		.loc 1 1234 0
 1433 0040 FB68     		ldr	r3, [r7, #12]
 1434 0042 03F58173 		add	r3, r3, #258
 1435 0046 FA68     		ldr	r2, [r7, #12]
 1436 0048 02F58172 		add	r2, r2, #258
 1437 004c 1278     		ldrb	r2, [r2, #0]
 1438 004e D2B2     		uxtb	r2, r2
 1439 0050 62F07F02 		orn	r2, r2, #127
 1440 0054 D2B2     		uxtb	r2, r2
 1441 0056 1A70     		strb	r2, [r3, #0]
 1442              	.L56:
1235:C:/StellarisWare/driverlib\usb.c ****         }
1236:C:/StellarisWare/driverlib\usb.c **** 
1237:C:/StellarisWare/driverlib\usb.c ****         //
1238:C:/StellarisWare/driverlib\usb.c ****         // Clear the Sent Stall status flag.
1239:C:/StellarisWare/driverlib\usb.c ****         //
1240:C:/StellarisWare/driverlib\usb.c ****         if(ulFlags & USB_DEV_EP0_SENT_STALL)
 1443              		.loc 1 1240 0
 1444 0058 7B68     		ldr	r3, [r7, #4]
 1445 005a 03F00403 		and	r3, r3, #4
 1446 005e 002B     		cmp	r3, #0
 1447 0060 3BD0     		beq	.L53
1241:C:/StellarisWare/driverlib\usb.c ****         {
1242:C:/StellarisWare/driverlib\usb.c ****             HWREGB(ulBase + USB_O_CSRL0) &= ~(USB_DEV_EP0_SENT_STALL);
 1448              		.loc 1 1242 0
 1449 0062 FB68     		ldr	r3, [r7, #12]
 1450 0064 03F58173 		add	r3, r3, #258
 1451 0068 FA68     		ldr	r2, [r7, #12]
 1452 006a 02F58172 		add	r2, r2, #258
 1453 006e 1278     		ldrb	r2, [r2, #0]
 1454 0070 D2B2     		uxtb	r2, r2
 1455 0072 22F00402 		bic	r2, r2, #4
 1456 0076 D2B2     		uxtb	r2, r2
 1457 0078 1A70     		strb	r2, [r3, #0]
 1458 007a 2EE0     		b	.L53
 1459              	.L54:
1243:C:/StellarisWare/driverlib\usb.c ****         }
1244:C:/StellarisWare/driverlib\usb.c ****     }
1245:C:/StellarisWare/driverlib\usb.c ****     else
1246:C:/StellarisWare/driverlib\usb.c ****     {
1247:C:/StellarisWare/driverlib\usb.c ****         //
1248:C:/StellarisWare/driverlib\usb.c ****         // Clear out any TX flags that were passed in.  Only
1249:C:/StellarisWare/driverlib\usb.c ****         // USB_DEV_TX_SENT_STALL and USB_DEV_TX_UNDERRUN should be cleared.
1250:C:/StellarisWare/driverlib\usb.c ****         //
1251:C:/StellarisWare/driverlib\usb.c ****         HWREGB(ulBase + USB_O_TXCSRL1 + EP_OFFSET(ulEndpoint)) &=
 1460              		.loc 1 1251 0
 1461 007c FA68     		ldr	r2, [r7, #12]
 1462 007e BB68     		ldr	r3, [r7, #8]
 1463 0080 D318     		adds	r3, r2, r3
 1464 0082 03F58173 		add	r3, r3, #258
 1465 0086 F968     		ldr	r1, [r7, #12]
 1466 0088 BA68     		ldr	r2, [r7, #8]
 1467 008a 8A18     		adds	r2, r1, r2
 1468 008c 02F58172 		add	r2, r2, #258
 1469 0090 1278     		ldrb	r2, [r2, #0]
 1470 0092 D1B2     		uxtb	r1, r2
 1471 0094 7A68     		ldr	r2, [r7, #4]
 1472 0096 D2B2     		uxtb	r2, r2
 1473 0098 02F02402 		and	r2, r2, #36
 1474 009c D2B2     		uxtb	r2, r2
 1475 009e 6FEA0202 		mvn	r2, r2
 1476 00a2 D2B2     		uxtb	r2, r2
 1477 00a4 0A40     		ands	r2, r2, r1
 1478 00a6 D2B2     		uxtb	r2, r2
 1479 00a8 1A70     		strb	r2, [r3, #0]
1252:C:/StellarisWare/driverlib\usb.c ****             ~(ulFlags & (USB_DEV_TX_SENT_STALL | USB_DEV_TX_UNDERRUN));
1253:C:/StellarisWare/driverlib\usb.c **** 
1254:C:/StellarisWare/driverlib\usb.c ****         //
1255:C:/StellarisWare/driverlib\usb.c ****         // Clear out valid RX flags that were passed in.  Only
1256:C:/StellarisWare/driverlib\usb.c ****         // USB_DEV_RX_SENT_STALL, USB_DEV_RX_DATA_ERROR, and USB_DEV_RX_OVERRUN
1257:C:/StellarisWare/driverlib\usb.c ****         // should be cleared.
1258:C:/StellarisWare/driverlib\usb.c ****         //
1259:C:/StellarisWare/driverlib\usb.c ****         HWREGB(ulBase + USB_O_RXCSRL1 + EP_OFFSET(ulEndpoint)) &=
 1480              		.loc 1 1259 0
 1481 00aa FA68     		ldr	r2, [r7, #12]
 1482 00ac BB68     		ldr	r3, [r7, #8]
 1483 00ae D318     		adds	r3, r2, r3
 1484 00b0 03F58373 		add	r3, r3, #262
 1485 00b4 F968     		ldr	r1, [r7, #12]
 1486 00b6 BA68     		ldr	r2, [r7, #8]
 1487 00b8 8A18     		adds	r2, r1, r2
 1488 00ba 02F58372 		add	r2, r2, #262
 1489 00be 1278     		ldrb	r2, [r2, #0]
 1490 00c0 D1B2     		uxtb	r1, r2
1260:C:/StellarisWare/driverlib\usb.c ****             ~((ulFlags & (USB_DEV_RX_SENT_STALL | USB_DEV_RX_DATA_ERROR |
 1491              		.loc 1 1260 0
 1492 00c2 7A68     		ldr	r2, [r7, #4]
 1493 00c4 02F49802 		and	r2, r2, #4980736
1261:C:/StellarisWare/driverlib\usb.c ****                           USB_DEV_RX_OVERRUN)) >> USB_RX_EPSTATUS_SHIFT);
 1494              		.loc 1 1261 0
 1495 00c8 4FEA1242 		lsr	r2, r2, #16
1259:C:/StellarisWare/driverlib\usb.c ****         HWREGB(ulBase + USB_O_RXCSRL1 + EP_OFFSET(ulEndpoint)) &=
 1496              		.loc 1 1259 0
 1497 00cc D2B2     		uxtb	r2, r2
 1498 00ce 6FEA0202 		mvn	r2, r2
 1499 00d2 D2B2     		uxtb	r2, r2
 1500 00d4 0A40     		ands	r2, r2, r1
 1501 00d6 D2B2     		uxtb	r2, r2
 1502 00d8 1A70     		strb	r2, [r3, #0]
 1503              	.L53:
1262:C:/StellarisWare/driverlib\usb.c ****     }
1263:C:/StellarisWare/driverlib\usb.c **** }
 1504              		.loc 1 1263 0
 1505 00da 07F11407 		add	r7, r7, #20
 1506 00de BD46     		mov	sp, r7
 1507 00e0 80BC     		pop	{r7}
 1508 00e2 7047     		bx	lr
 1509              		.cfi_endproc
 1510              	.LFE19:
 1512              		.section	.text.USBHostEndpointDataToggle,"ax",%progbits
 1513              		.align	2
 1514              		.global	USBHostEndpointDataToggle
 1515              		.thumb
 1516              		.thumb_func
 1518              	USBHostEndpointDataToggle:
 1519              	.LFB20:
1264:C:/StellarisWare/driverlib\usb.c **** 
1265:C:/StellarisWare/driverlib\usb.c **** //*****************************************************************************
1266:C:/StellarisWare/driverlib\usb.c **** //
1267:C:/StellarisWare/driverlib\usb.c **** //! Sets the value data toggle on an endpoint in host mode.
1268:C:/StellarisWare/driverlib\usb.c **** //!
1269:C:/StellarisWare/driverlib\usb.c **** //! \param ulBase specifies the USB module base address.
1270:C:/StellarisWare/driverlib\usb.c **** //! \param ulEndpoint specifies the endpoint to reset the data toggle.
1271:C:/StellarisWare/driverlib\usb.c **** //! \param bDataToggle specifies whether to set the state to DATA0 or DATA1.
1272:C:/StellarisWare/driverlib\usb.c **** //! \param ulFlags specifies whether to set the IN or OUT endpoint.
1273:C:/StellarisWare/driverlib\usb.c **** //!
1274:C:/StellarisWare/driverlib\usb.c **** //! This function is used to force the state of the data toggle in host mode.
1275:C:/StellarisWare/driverlib\usb.c **** //! If the value passed in the \e bDataToggle parameter is \b false, then the
1276:C:/StellarisWare/driverlib\usb.c **** //! data toggle is set to the DATA0 state, and if it is \b true it is set to
1277:C:/StellarisWare/driverlib\usb.c **** //! the DATA1 state.  The \e ulFlags parameter can be \b USB_EP_HOST_IN or
1278:C:/StellarisWare/driverlib\usb.c **** //! \b USB_EP_HOST_OUT to access the desired portion of this endpoint.  The
1279:C:/StellarisWare/driverlib\usb.c **** //! \e ulFlags parameter is ignored for endpoint zero.
1280:C:/StellarisWare/driverlib\usb.c **** //!
1281:C:/StellarisWare/driverlib\usb.c **** //! \note This function should only be called in host mode.
1282:C:/StellarisWare/driverlib\usb.c **** //!
1283:C:/StellarisWare/driverlib\usb.c **** //! \return None.
1284:C:/StellarisWare/driverlib\usb.c **** //
1285:C:/StellarisWare/driverlib\usb.c **** //*****************************************************************************
1286:C:/StellarisWare/driverlib\usb.c **** void
1287:C:/StellarisWare/driverlib\usb.c **** USBHostEndpointDataToggle(unsigned long ulBase, unsigned long ulEndpoint,
1288:C:/StellarisWare/driverlib\usb.c ****                           tBoolean bDataToggle, unsigned long ulFlags)
1289:C:/StellarisWare/driverlib\usb.c **** {
 1520              		.loc 1 1289 0
 1521              		.cfi_startproc
 1522              		@ args = 0, pretend = 0, frame = 24
 1523              		@ frame_needed = 1, uses_anonymous_args = 0
 1524              		@ link register save eliminated.
 1525 0000 80B4     		push	{r7}
 1526              	.LCFI60:
 1527              		.cfi_def_cfa_offset 4
 1528              		.cfi_offset 7, -4
 1529 0002 87B0     		sub	sp, sp, #28
 1530              	.LCFI61:
 1531              		.cfi_def_cfa_offset 32
 1532 0004 00AF     		add	r7, sp, #0
 1533              	.LCFI62:
 1534              		.cfi_def_cfa_register 7
 1535 0006 F860     		str	r0, [r7, #12]
 1536 0008 B960     		str	r1, [r7, #8]
 1537 000a 3B60     		str	r3, [r7, #0]
 1538 000c 1346     		mov	r3, r2
 1539 000e FB71     		strb	r3, [r7, #7]
1290:C:/StellarisWare/driverlib\usb.c ****     unsigned long ulDataToggle;
1291:C:/StellarisWare/driverlib\usb.c **** 
1292:C:/StellarisWare/driverlib\usb.c ****     //
1293:C:/StellarisWare/driverlib\usb.c ****     // Check the arguments.
1294:C:/StellarisWare/driverlib\usb.c ****     //
1295:C:/StellarisWare/driverlib\usb.c ****     ASSERT(ulBase == USB0_BASE);
1296:C:/StellarisWare/driverlib\usb.c ****     ASSERT((ulEndpoint == USB_EP_0) || (ulEndpoint == USB_EP_1) ||
1297:C:/StellarisWare/driverlib\usb.c ****            (ulEndpoint == USB_EP_2) || (ulEndpoint == USB_EP_3) ||
1298:C:/StellarisWare/driverlib\usb.c ****            (ulEndpoint == USB_EP_4) || (ulEndpoint == USB_EP_5) ||
1299:C:/StellarisWare/driverlib\usb.c ****            (ulEndpoint == USB_EP_6) || (ulEndpoint == USB_EP_7) ||
1300:C:/StellarisWare/driverlib\usb.c ****            (ulEndpoint == USB_EP_8) || (ulEndpoint == USB_EP_9) ||
1301:C:/StellarisWare/driverlib\usb.c ****            (ulEndpoint == USB_EP_10) || (ulEndpoint == USB_EP_11) ||
1302:C:/StellarisWare/driverlib\usb.c ****            (ulEndpoint == USB_EP_12) || (ulEndpoint == USB_EP_13) ||
1303:C:/StellarisWare/driverlib\usb.c ****            (ulEndpoint == USB_EP_14) || (ulEndpoint == USB_EP_15));
1304:C:/StellarisWare/driverlib\usb.c **** 
1305:C:/StellarisWare/driverlib\usb.c ****     //
1306:C:/StellarisWare/driverlib\usb.c ****     // The data toggle defaults to DATA0.
1307:C:/StellarisWare/driverlib\usb.c ****     //
1308:C:/StellarisWare/driverlib\usb.c ****     ulDataToggle = 0;
 1540              		.loc 1 1308 0
 1541 0010 4FF00003 		mov	r3, #0
 1542 0014 7B61     		str	r3, [r7, #20]
1309:C:/StellarisWare/driverlib\usb.c **** 
1310:C:/StellarisWare/driverlib\usb.c ****     //
1311:C:/StellarisWare/driverlib\usb.c ****     // See if the data toggle should be set to DATA1.
1312:C:/StellarisWare/driverlib\usb.c ****     //
1313:C:/StellarisWare/driverlib\usb.c ****     if(bDataToggle)
 1543              		.loc 1 1313 0
 1544 0016 FB79     		ldrb	r3, [r7, #7]	@ zero_extendqisi2
 1545 0018 002B     		cmp	r3, #0
 1546 001a 10D0     		beq	.L59
1314:C:/StellarisWare/driverlib\usb.c ****     {
1315:C:/StellarisWare/driverlib\usb.c ****         //
1316:C:/StellarisWare/driverlib\usb.c ****         // Select the data toggle bit based on the endpoint.
1317:C:/StellarisWare/driverlib\usb.c ****         //
1318:C:/StellarisWare/driverlib\usb.c ****         if(ulEndpoint == USB_EP_0)
 1547              		.loc 1 1318 0
 1548 001c BB68     		ldr	r3, [r7, #8]
 1549 001e 002B     		cmp	r3, #0
 1550 0020 03D1     		bne	.L60
1319:C:/StellarisWare/driverlib\usb.c ****         {
1320:C:/StellarisWare/driverlib\usb.c ****             ulDataToggle = USB_CSRH0_DT;
 1551              		.loc 1 1320 0
 1552 0022 4FF00203 		mov	r3, #2
 1553 0026 7B61     		str	r3, [r7, #20]
 1554 0028 09E0     		b	.L59
 1555              	.L60:
1321:C:/StellarisWare/driverlib\usb.c ****         }
1322:C:/StellarisWare/driverlib\usb.c ****         else if(ulFlags == USB_EP_HOST_IN)
 1556              		.loc 1 1322 0
 1557 002a 3B68     		ldr	r3, [r7, #0]
 1558 002c 002B     		cmp	r3, #0
 1559 002e 03D1     		bne	.L61
1323:C:/StellarisWare/driverlib\usb.c ****         {
1324:C:/StellarisWare/driverlib\usb.c ****             ulDataToggle = USB_RXCSRH1_DT;
 1560              		.loc 1 1324 0
 1561 0030 4FF00203 		mov	r3, #2
 1562 0034 7B61     		str	r3, [r7, #20]
 1563 0036 02E0     		b	.L59
 1564              	.L61:
1325:C:/StellarisWare/driverlib\usb.c ****         }
1326:C:/StellarisWare/driverlib\usb.c ****         else
1327:C:/StellarisWare/driverlib\usb.c ****         {
1328:C:/StellarisWare/driverlib\usb.c ****             ulDataToggle = USB_TXCSRH1_DT;
 1565              		.loc 1 1328 0
 1566 0038 4FF00103 		mov	r3, #1
 1567 003c 7B61     		str	r3, [r7, #20]
 1568              	.L59:
1329:C:/StellarisWare/driverlib\usb.c ****         }
1330:C:/StellarisWare/driverlib\usb.c ****     }
1331:C:/StellarisWare/driverlib\usb.c **** 
1332:C:/StellarisWare/driverlib\usb.c ****     //
1333:C:/StellarisWare/driverlib\usb.c ****     // Set the data toggle based on the endpoint.
1334:C:/StellarisWare/driverlib\usb.c ****     //
1335:C:/StellarisWare/driverlib\usb.c ****     if(ulEndpoint == USB_EP_0)
 1569              		.loc 1 1335 0
 1570 003e BB68     		ldr	r3, [r7, #8]
 1571 0040 002B     		cmp	r3, #0
 1572 0042 18D1     		bne	.L62
1336:C:/StellarisWare/driverlib\usb.c ****     {
1337:C:/StellarisWare/driverlib\usb.c ****         //
1338:C:/StellarisWare/driverlib\usb.c ****         // Set the write enable and the bit value for endpoint zero.
1339:C:/StellarisWare/driverlib\usb.c ****         //
1340:C:/StellarisWare/driverlib\usb.c ****         HWREGB(ulBase + USB_O_CSRH0) =
 1573              		.loc 1 1340 0
 1574 0044 FB68     		ldr	r3, [r7, #12]
 1575 0046 03F58073 		add	r3, r3, #256
 1576 004a 03F10303 		add	r3, r3, #3
 1577 004e 1A46     		mov	r2, r3
1341:C:/StellarisWare/driverlib\usb.c ****             ((HWREGB(ulBase + USB_O_CSRH0) &
 1578              		.loc 1 1341 0
 1579 0050 FB68     		ldr	r3, [r7, #12]
 1580 0052 03F58073 		add	r3, r3, #256
 1581 0056 03F10303 		add	r3, r3, #3
 1582 005a 1B78     		ldrb	r3, [r3, #0]
 1583 005c DBB2     		uxtb	r3, r3
1340:C:/StellarisWare/driverlib\usb.c ****         HWREGB(ulBase + USB_O_CSRH0) =
 1584              		.loc 1 1340 0
 1585 005e 23F00603 		bic	r3, r3, #6
 1586 0062 D9B2     		uxtb	r1, r3
 1587 0064 7B69     		ldr	r3, [r7, #20]
 1588 0066 DBB2     		uxtb	r3, r3
 1589 0068 0B43     		orrs	r3, r3, r1
 1590 006a DBB2     		uxtb	r3, r3
 1591 006c 43F00403 		orr	r3, r3, #4
 1592 0070 DBB2     		uxtb	r3, r3
 1593 0072 1370     		strb	r3, [r2, #0]
 1594 0074 3BE0     		b	.L58
 1595              	.L62:
1342:C:/StellarisWare/driverlib\usb.c ****               ~(USB_CSRH0_DTWE | USB_CSRH0_DT)) |
1343:C:/StellarisWare/driverlib\usb.c ****              (ulDataToggle | USB_CSRH0_DTWE));
1344:C:/StellarisWare/driverlib\usb.c ****     }
1345:C:/StellarisWare/driverlib\usb.c ****     else if(ulFlags == USB_EP_HOST_IN)
 1596              		.loc 1 1345 0
 1597 0076 3B68     		ldr	r3, [r7, #0]
 1598 0078 002B     		cmp	r3, #0
 1599 007a 1CD1     		bne	.L64
1346:C:/StellarisWare/driverlib\usb.c ****     {
1347:C:/StellarisWare/driverlib\usb.c ****         //
1348:C:/StellarisWare/driverlib\usb.c ****         // Set the Write enable and the bit value for an IN endpoint.
1349:C:/StellarisWare/driverlib\usb.c ****         //
1350:C:/StellarisWare/driverlib\usb.c ****         HWREGB(ulBase + USB_O_RXCSRH1 + EP_OFFSET(ulEndpoint)) =
 1600              		.loc 1 1350 0
 1601 007c FA68     		ldr	r2, [r7, #12]
 1602 007e BB68     		ldr	r3, [r7, #8]
 1603 0080 D318     		adds	r3, r2, r3
 1604 0082 03F58273 		add	r3, r3, #260
 1605 0086 03F10303 		add	r3, r3, #3
 1606 008a 1A46     		mov	r2, r3
1351:C:/StellarisWare/driverlib\usb.c ****             ((HWREGB(ulBase + USB_O_RXCSRH1 + EP_OFFSET(ulEndpoint)) &
 1607              		.loc 1 1351 0
 1608 008c F968     		ldr	r1, [r7, #12]
 1609 008e BB68     		ldr	r3, [r7, #8]
 1610 0090 CB18     		adds	r3, r1, r3
 1611 0092 03F58273 		add	r3, r3, #260
 1612 0096 03F10303 		add	r3, r3, #3
 1613 009a 1B78     		ldrb	r3, [r3, #0]
 1614 009c DBB2     		uxtb	r3, r3
1350:C:/StellarisWare/driverlib\usb.c ****         HWREGB(ulBase + USB_O_RXCSRH1 + EP_OFFSET(ulEndpoint)) =
 1615              		.loc 1 1350 0
 1616 009e 23F00603 		bic	r3, r3, #6
 1617 00a2 D9B2     		uxtb	r1, r3
 1618 00a4 7B69     		ldr	r3, [r7, #20]
 1619 00a6 DBB2     		uxtb	r3, r3
 1620 00a8 0B43     		orrs	r3, r3, r1
 1621 00aa DBB2     		uxtb	r3, r3
 1622 00ac 43F00403 		orr	r3, r3, #4
 1623 00b0 DBB2     		uxtb	r3, r3
 1624 00b2 1370     		strb	r3, [r2, #0]
 1625 00b4 1BE0     		b	.L58
 1626              	.L64:
1352:C:/StellarisWare/driverlib\usb.c ****               ~(USB_RXCSRH1_DTWE | USB_RXCSRH1_DT)) |
1353:C:/StellarisWare/driverlib\usb.c ****              (ulDataToggle | USB_RXCSRH1_DTWE));
1354:C:/StellarisWare/driverlib\usb.c ****     }
1355:C:/StellarisWare/driverlib\usb.c ****     else
1356:C:/StellarisWare/driverlib\usb.c ****     {
1357:C:/StellarisWare/driverlib\usb.c ****         //
1358:C:/StellarisWare/driverlib\usb.c ****         // Set the Write enable and the bit value for an OUT endpoint.
1359:C:/StellarisWare/driverlib\usb.c ****         //
1360:C:/StellarisWare/driverlib\usb.c ****         HWREGB(ulBase + USB_O_TXCSRH1 + EP_OFFSET(ulEndpoint)) =
 1627              		.loc 1 1360 0
 1628 00b6 FA68     		ldr	r2, [r7, #12]
 1629 00b8 BB68     		ldr	r3, [r7, #8]
 1630 00ba D318     		adds	r3, r2, r3
 1631 00bc 03F58073 		add	r3, r3, #256
 1632 00c0 03F10303 		add	r3, r3, #3
 1633 00c4 1A46     		mov	r2, r3
1361:C:/StellarisWare/driverlib\usb.c ****             ((HWREGB(ulBase + USB_O_TXCSRH1 + EP_OFFSET(ulEndpoint)) &
 1634              		.loc 1 1361 0
 1635 00c6 F968     		ldr	r1, [r7, #12]
 1636 00c8 BB68     		ldr	r3, [r7, #8]
 1637 00ca CB18     		adds	r3, r1, r3
 1638 00cc 03F58073 		add	r3, r3, #256
 1639 00d0 03F10303 		add	r3, r3, #3
 1640 00d4 1B78     		ldrb	r3, [r3, #0]
 1641 00d6 DBB2     		uxtb	r3, r3
1360:C:/StellarisWare/driverlib\usb.c ****         HWREGB(ulBase + USB_O_TXCSRH1 + EP_OFFSET(ulEndpoint)) =
 1642              		.loc 1 1360 0
 1643 00d8 23F00303 		bic	r3, r3, #3
 1644 00dc D9B2     		uxtb	r1, r3
 1645 00de 7B69     		ldr	r3, [r7, #20]
 1646 00e0 DBB2     		uxtb	r3, r3
 1647 00e2 0B43     		orrs	r3, r3, r1
 1648 00e4 DBB2     		uxtb	r3, r3
 1649 00e6 43F00203 		orr	r3, r3, #2
 1650 00ea DBB2     		uxtb	r3, r3
 1651 00ec 1370     		strb	r3, [r2, #0]
 1652              	.L58:
1362:C:/StellarisWare/driverlib\usb.c ****               ~(USB_TXCSRH1_DTWE | USB_TXCSRH1_DT)) |
1363:C:/StellarisWare/driverlib\usb.c ****              (ulDataToggle | USB_TXCSRH1_DTWE));
1364:C:/StellarisWare/driverlib\usb.c ****     }
1365:C:/StellarisWare/driverlib\usb.c **** }
 1653              		.loc 1 1365 0
 1654 00ee 07F11C07 		add	r7, r7, #28
 1655 00f2 BD46     		mov	sp, r7
 1656 00f4 80BC     		pop	{r7}
 1657 00f6 7047     		bx	lr
 1658              		.cfi_endproc
 1659              	.LFE20:
 1661              		.section	.text.USBEndpointDataToggleClear,"ax",%progbits
 1662              		.align	2
 1663              		.global	USBEndpointDataToggleClear
 1664              		.thumb
 1665              		.thumb_func
 1667              	USBEndpointDataToggleClear:
 1668              	.LFB21:
1366:C:/StellarisWare/driverlib\usb.c **** 
1367:C:/StellarisWare/driverlib\usb.c **** //*****************************************************************************
1368:C:/StellarisWare/driverlib\usb.c **** //
1369:C:/StellarisWare/driverlib\usb.c **** //! Sets the data toggle on an endpoint to zero.
1370:C:/StellarisWare/driverlib\usb.c **** //!
1371:C:/StellarisWare/driverlib\usb.c **** //! \param ulBase specifies the USB module base address.
1372:C:/StellarisWare/driverlib\usb.c **** //! \param ulEndpoint specifies the endpoint to reset the data toggle.
1373:C:/StellarisWare/driverlib\usb.c **** //! \param ulFlags specifies whether to access the IN or OUT endpoint.
1374:C:/StellarisWare/driverlib\usb.c **** //!
1375:C:/StellarisWare/driverlib\usb.c **** //! This function causes the USB controller to clear the data toggle for an
1376:C:/StellarisWare/driverlib\usb.c **** //! endpoint.  This call is not valid for endpoint zero and can be made with
1377:C:/StellarisWare/driverlib\usb.c **** //! host or device controllers.
1378:C:/StellarisWare/driverlib\usb.c **** //!
1379:C:/StellarisWare/driverlib\usb.c **** //! The \e ulFlags parameter should be one of \b USB_EP_HOST_OUT,
1380:C:/StellarisWare/driverlib\usb.c **** //! \b USB_EP_HOST_IN, \b USB_EP_DEV_OUT, or \b USB_EP_DEV_IN.
1381:C:/StellarisWare/driverlib\usb.c **** //!
1382:C:/StellarisWare/driverlib\usb.c **** //! \return None.
1383:C:/StellarisWare/driverlib\usb.c **** //
1384:C:/StellarisWare/driverlib\usb.c **** //*****************************************************************************
1385:C:/StellarisWare/driverlib\usb.c **** void
1386:C:/StellarisWare/driverlib\usb.c **** USBEndpointDataToggleClear(unsigned long ulBase, unsigned long ulEndpoint,
1387:C:/StellarisWare/driverlib\usb.c ****                            unsigned long ulFlags)
1388:C:/StellarisWare/driverlib\usb.c **** {
 1669              		.loc 1 1388 0
 1670              		.cfi_startproc
 1671              		@ args = 0, pretend = 0, frame = 16
 1672              		@ frame_needed = 1, uses_anonymous_args = 0
 1673              		@ link register save eliminated.
 1674 0000 80B4     		push	{r7}
 1675              	.LCFI63:
 1676              		.cfi_def_cfa_offset 4
 1677              		.cfi_offset 7, -4
 1678 0002 85B0     		sub	sp, sp, #20
 1679              	.LCFI64:
 1680              		.cfi_def_cfa_offset 24
 1681 0004 00AF     		add	r7, sp, #0
 1682              	.LCFI65:
 1683              		.cfi_def_cfa_register 7
 1684 0006 F860     		str	r0, [r7, #12]
 1685 0008 B960     		str	r1, [r7, #8]
 1686 000a 7A60     		str	r2, [r7, #4]
1389:C:/StellarisWare/driverlib\usb.c ****     //
1390:C:/StellarisWare/driverlib\usb.c ****     // Check the arguments.
1391:C:/StellarisWare/driverlib\usb.c ****     //
1392:C:/StellarisWare/driverlib\usb.c ****     ASSERT(ulBase == USB0_BASE);
1393:C:/StellarisWare/driverlib\usb.c ****     ASSERT((ulEndpoint == USB_EP_1) || (ulEndpoint == USB_EP_2) ||
1394:C:/StellarisWare/driverlib\usb.c ****            (ulEndpoint == USB_EP_3) || (ulEndpoint == USB_EP_4) ||
1395:C:/StellarisWare/driverlib\usb.c ****            (ulEndpoint == USB_EP_5) || (ulEndpoint == USB_EP_6) ||
1396:C:/StellarisWare/driverlib\usb.c ****            (ulEndpoint == USB_EP_7) || (ulEndpoint == USB_EP_8) ||
1397:C:/StellarisWare/driverlib\usb.c ****            (ulEndpoint == USB_EP_9) || (ulEndpoint == USB_EP_10) ||
1398:C:/StellarisWare/driverlib\usb.c ****            (ulEndpoint == USB_EP_11) || (ulEndpoint == USB_EP_12) ||
1399:C:/StellarisWare/driverlib\usb.c ****            (ulEndpoint == USB_EP_13) || (ulEndpoint == USB_EP_14) ||
1400:C:/StellarisWare/driverlib\usb.c ****            (ulEndpoint == USB_EP_15));
1401:C:/StellarisWare/driverlib\usb.c **** 
1402:C:/StellarisWare/driverlib\usb.c ****     //
1403:C:/StellarisWare/driverlib\usb.c ****     // See if the transmit or receive data toggle should be cleared.
1404:C:/StellarisWare/driverlib\usb.c ****     //
1405:C:/StellarisWare/driverlib\usb.c ****     if(ulFlags & (USB_EP_HOST_OUT | USB_EP_DEV_IN))
 1687              		.loc 1 1405 0
 1688 000c 7B68     		ldr	r3, [r7, #4]
 1689 000e 03F40053 		and	r3, r3, #8192
 1690 0012 002B     		cmp	r3, #0
 1691 0014 10D0     		beq	.L66
1406:C:/StellarisWare/driverlib\usb.c ****     {
1407:C:/StellarisWare/driverlib\usb.c ****         HWREGB(ulBase + USB_O_TXCSRL1 + EP_OFFSET(ulEndpoint)) |=
 1692              		.loc 1 1407 0
 1693 0016 FA68     		ldr	r2, [r7, #12]
 1694 0018 BB68     		ldr	r3, [r7, #8]
 1695 001a D318     		adds	r3, r2, r3
 1696 001c 03F58173 		add	r3, r3, #258
 1697 0020 F968     		ldr	r1, [r7, #12]
 1698 0022 BA68     		ldr	r2, [r7, #8]
 1699 0024 8A18     		adds	r2, r1, r2
 1700 0026 02F58172 		add	r2, r2, #258
 1701 002a 1278     		ldrb	r2, [r2, #0]
 1702 002c D2B2     		uxtb	r2, r2
 1703 002e 42F04002 		orr	r2, r2, #64
 1704 0032 D2B2     		uxtb	r2, r2
 1705 0034 1A70     		strb	r2, [r3, #0]
 1706 0036 0FE0     		b	.L65
 1707              	.L66:
1408:C:/StellarisWare/driverlib\usb.c ****             USB_TXCSRL1_CLRDT;
1409:C:/StellarisWare/driverlib\usb.c ****     }
1410:C:/StellarisWare/driverlib\usb.c ****     else
1411:C:/StellarisWare/driverlib\usb.c ****     {
1412:C:/StellarisWare/driverlib\usb.c ****         HWREGB(ulBase + USB_O_RXCSRL1 + EP_OFFSET(ulEndpoint)) |=
 1708              		.loc 1 1412 0
 1709 0038 FA68     		ldr	r2, [r7, #12]
 1710 003a BB68     		ldr	r3, [r7, #8]
 1711 003c D318     		adds	r3, r2, r3
 1712 003e 03F58373 		add	r3, r3, #262
 1713 0042 F968     		ldr	r1, [r7, #12]
 1714 0044 BA68     		ldr	r2, [r7, #8]
 1715 0046 8A18     		adds	r2, r1, r2
 1716 0048 02F58372 		add	r2, r2, #262
 1717 004c 1278     		ldrb	r2, [r2, #0]
 1718 004e D2B2     		uxtb	r2, r2
 1719 0050 62F07F02 		orn	r2, r2, #127
 1720 0054 D2B2     		uxtb	r2, r2
 1721 0056 1A70     		strb	r2, [r3, #0]
 1722              	.L65:
1413:C:/StellarisWare/driverlib\usb.c ****             USB_RXCSRL1_CLRDT;
1414:C:/StellarisWare/driverlib\usb.c ****     }
1415:C:/StellarisWare/driverlib\usb.c **** }
 1723              		.loc 1 1415 0
 1724 0058 07F11407 		add	r7, r7, #20
 1725 005c BD46     		mov	sp, r7
 1726 005e 80BC     		pop	{r7}
 1727 0060 7047     		bx	lr
 1728              		.cfi_endproc
 1729              	.LFE21:
 1731 0062 00BF     		.section	.text.USBDevEndpointStall,"ax",%progbits
 1732              		.align	2
 1733              		.global	USBDevEndpointStall
 1734              		.thumb
 1735              		.thumb_func
 1737              	USBDevEndpointStall:
 1738              	.LFB22:
1416:C:/StellarisWare/driverlib\usb.c **** 
1417:C:/StellarisWare/driverlib\usb.c **** //*****************************************************************************
1418:C:/StellarisWare/driverlib\usb.c **** //
1419:C:/StellarisWare/driverlib\usb.c **** //! Stalls the specified endpoint in device mode.
1420:C:/StellarisWare/driverlib\usb.c **** //!
1421:C:/StellarisWare/driverlib\usb.c **** //! \param ulBase specifies the USB module base address.
1422:C:/StellarisWare/driverlib\usb.c **** //! \param ulEndpoint specifies the endpoint to stall.
1423:C:/StellarisWare/driverlib\usb.c **** //! \param ulFlags specifies whether to stall the IN or OUT endpoint.
1424:C:/StellarisWare/driverlib\usb.c **** //!
1425:C:/StellarisWare/driverlib\usb.c **** //! This function causes the endpoint number passed in to go into a stall
1426:C:/StellarisWare/driverlib\usb.c **** //! condition.  If the \e ulFlags parameter is \b USB_EP_DEV_IN, then the stall
1427:C:/StellarisWare/driverlib\usb.c **** //! is issued on the IN portion of this endpoint.  If the \e ulFlags parameter
1428:C:/StellarisWare/driverlib\usb.c **** //! is \b USB_EP_DEV_OUT, then the stall is issued on the OUT portion of this
1429:C:/StellarisWare/driverlib\usb.c **** //! endpoint.
1430:C:/StellarisWare/driverlib\usb.c **** //!
1431:C:/StellarisWare/driverlib\usb.c **** //! \note This function should only be called in device mode.
1432:C:/StellarisWare/driverlib\usb.c **** //!
1433:C:/StellarisWare/driverlib\usb.c **** //! \return None.
1434:C:/StellarisWare/driverlib\usb.c **** //
1435:C:/StellarisWare/driverlib\usb.c **** //*****************************************************************************
1436:C:/StellarisWare/driverlib\usb.c **** void
1437:C:/StellarisWare/driverlib\usb.c **** USBDevEndpointStall(unsigned long ulBase, unsigned long ulEndpoint,
1438:C:/StellarisWare/driverlib\usb.c ****                     unsigned long ulFlags)
1439:C:/StellarisWare/driverlib\usb.c **** {
 1739              		.loc 1 1439 0
 1740              		.cfi_startproc
 1741              		@ args = 0, pretend = 0, frame = 16
 1742              		@ frame_needed = 1, uses_anonymous_args = 0
 1743              		@ link register save eliminated.
 1744 0000 80B4     		push	{r7}
 1745              	.LCFI66:
 1746              		.cfi_def_cfa_offset 4
 1747              		.cfi_offset 7, -4
 1748 0002 85B0     		sub	sp, sp, #20
 1749              	.LCFI67:
 1750              		.cfi_def_cfa_offset 24
 1751 0004 00AF     		add	r7, sp, #0
 1752              	.LCFI68:
 1753              		.cfi_def_cfa_register 7
 1754 0006 F860     		str	r0, [r7, #12]
 1755 0008 B960     		str	r1, [r7, #8]
 1756 000a 7A60     		str	r2, [r7, #4]
1440:C:/StellarisWare/driverlib\usb.c ****     //
1441:C:/StellarisWare/driverlib\usb.c ****     // Check the arguments.
1442:C:/StellarisWare/driverlib\usb.c ****     //
1443:C:/StellarisWare/driverlib\usb.c ****     ASSERT(ulBase == USB0_BASE);
1444:C:/StellarisWare/driverlib\usb.c ****     ASSERT((ulFlags & ~(USB_EP_DEV_IN | USB_EP_DEV_OUT)) == 0)
1445:C:/StellarisWare/driverlib\usb.c ****     ASSERT((ulEndpoint == USB_EP_0) || (ulEndpoint == USB_EP_1) ||
1446:C:/StellarisWare/driverlib\usb.c ****            (ulEndpoint == USB_EP_2) || (ulEndpoint == USB_EP_3) ||
1447:C:/StellarisWare/driverlib\usb.c ****            (ulEndpoint == USB_EP_4) || (ulEndpoint == USB_EP_5) ||
1448:C:/StellarisWare/driverlib\usb.c ****            (ulEndpoint == USB_EP_6) || (ulEndpoint == USB_EP_7) ||
1449:C:/StellarisWare/driverlib\usb.c ****            (ulEndpoint == USB_EP_8) || (ulEndpoint == USB_EP_9) ||
1450:C:/StellarisWare/driverlib\usb.c ****            (ulEndpoint == USB_EP_10) || (ulEndpoint == USB_EP_11) ||
1451:C:/StellarisWare/driverlib\usb.c ****            (ulEndpoint == USB_EP_12) || (ulEndpoint == USB_EP_13) ||
1452:C:/StellarisWare/driverlib\usb.c ****            (ulEndpoint == USB_EP_14) || (ulEndpoint == USB_EP_15));
1453:C:/StellarisWare/driverlib\usb.c **** 
1454:C:/StellarisWare/driverlib\usb.c ****     //
1455:C:/StellarisWare/driverlib\usb.c ****     // Determine how to stall this endpoint.
1456:C:/StellarisWare/driverlib\usb.c ****     //
1457:C:/StellarisWare/driverlib\usb.c ****     if(ulEndpoint == USB_EP_0)
 1757              		.loc 1 1457 0
 1758 000c BB68     		ldr	r3, [r7, #8]
 1759 000e 002B     		cmp	r3, #0
 1760 0010 0CD1     		bne	.L69
1458:C:/StellarisWare/driverlib\usb.c ****     {
1459:C:/StellarisWare/driverlib\usb.c ****         //
1460:C:/StellarisWare/driverlib\usb.c ****         // Perform a stall on endpoint zero.
1461:C:/StellarisWare/driverlib\usb.c ****         //
1462:C:/StellarisWare/driverlib\usb.c ****         HWREGB(ulBase + USB_O_CSRL0) |=
 1761              		.loc 1 1462 0
 1762 0012 FB68     		ldr	r3, [r7, #12]
 1763 0014 03F58173 		add	r3, r3, #258
 1764 0018 FA68     		ldr	r2, [r7, #12]
 1765 001a 02F58172 		add	r2, r2, #258
 1766 001e 1278     		ldrb	r2, [r2, #0]
 1767 0020 D2B2     		uxtb	r2, r2
 1768 0022 42F06002 		orr	r2, r2, #96
 1769 0026 D2B2     		uxtb	r2, r2
 1770 0028 1A70     		strb	r2, [r3, #0]
 1771 002a 24E0     		b	.L68
 1772              	.L69:
1463:C:/StellarisWare/driverlib\usb.c ****             (USB_CSRL0_STALL | USB_CSRL0_RXRDYC);
1464:C:/StellarisWare/driverlib\usb.c ****     }
1465:C:/StellarisWare/driverlib\usb.c ****     else if(ulFlags == USB_EP_DEV_IN)
 1773              		.loc 1 1465 0
 1774 002c 7B68     		ldr	r3, [r7, #4]
 1775 002e B3F5005F 		cmp	r3, #8192
 1776 0032 10D1     		bne	.L71
1466:C:/StellarisWare/driverlib\usb.c ****     {
1467:C:/StellarisWare/driverlib\usb.c ****         //
1468:C:/StellarisWare/driverlib\usb.c ****         // Perform a stall on an IN endpoint.
1469:C:/StellarisWare/driverlib\usb.c ****         //
1470:C:/StellarisWare/driverlib\usb.c ****         HWREGB(ulBase + USB_O_TXCSRL1 + EP_OFFSET(ulEndpoint)) |=
 1777              		.loc 1 1470 0
 1778 0034 FA68     		ldr	r2, [r7, #12]
 1779 0036 BB68     		ldr	r3, [r7, #8]
 1780 0038 D318     		adds	r3, r2, r3
 1781 003a 03F58173 		add	r3, r3, #258
 1782 003e F968     		ldr	r1, [r7, #12]
 1783 0040 BA68     		ldr	r2, [r7, #8]
 1784 0042 8A18     		adds	r2, r1, r2
 1785 0044 02F58172 		add	r2, r2, #258
 1786 0048 1278     		ldrb	r2, [r2, #0]
 1787 004a D2B2     		uxtb	r2, r2
 1788 004c 42F01002 		orr	r2, r2, #16
 1789 0050 D2B2     		uxtb	r2, r2
 1790 0052 1A70     		strb	r2, [r3, #0]
 1791 0054 0FE0     		b	.L68
 1792              	.L71:
1471:C:/StellarisWare/driverlib\usb.c ****             USB_TXCSRL1_STALL;
1472:C:/StellarisWare/driverlib\usb.c ****     }
1473:C:/StellarisWare/driverlib\usb.c ****     else
1474:C:/StellarisWare/driverlib\usb.c ****     {
1475:C:/StellarisWare/driverlib\usb.c ****         //
1476:C:/StellarisWare/driverlib\usb.c ****         // Perform a stall on an OUT endpoint.
1477:C:/StellarisWare/driverlib\usb.c ****         //
1478:C:/StellarisWare/driverlib\usb.c ****         HWREGB(ulBase + USB_O_RXCSRL1 + EP_OFFSET(ulEndpoint)) |=
 1793              		.loc 1 1478 0
 1794 0056 FA68     		ldr	r2, [r7, #12]
 1795 0058 BB68     		ldr	r3, [r7, #8]
 1796 005a D318     		adds	r3, r2, r3
 1797 005c 03F58373 		add	r3, r3, #262
 1798 0060 F968     		ldr	r1, [r7, #12]
 1799 0062 BA68     		ldr	r2, [r7, #8]
 1800 0064 8A18     		adds	r2, r1, r2
 1801 0066 02F58372 		add	r2, r2, #262
 1802 006a 1278     		ldrb	r2, [r2, #0]
 1803 006c D2B2     		uxtb	r2, r2
 1804 006e 42F02002 		orr	r2, r2, #32
 1805 0072 D2B2     		uxtb	r2, r2
 1806 0074 1A70     		strb	r2, [r3, #0]
 1807              	.L68:
1479:C:/StellarisWare/driverlib\usb.c ****             USB_RXCSRL1_STALL;
1480:C:/StellarisWare/driverlib\usb.c ****     }
1481:C:/StellarisWare/driverlib\usb.c **** }
 1808              		.loc 1 1481 0
 1809 0076 07F11407 		add	r7, r7, #20
 1810 007a BD46     		mov	sp, r7
 1811 007c 80BC     		pop	{r7}
 1812 007e 7047     		bx	lr
 1813              		.cfi_endproc
 1814              	.LFE22:
 1816              		.section	.text.USBDevEndpointStallClear,"ax",%progbits
 1817              		.align	2
 1818              		.global	USBDevEndpointStallClear
 1819              		.thumb
 1820              		.thumb_func
 1822              	USBDevEndpointStallClear:
 1823              	.LFB23:
1482:C:/StellarisWare/driverlib\usb.c **** 
1483:C:/StellarisWare/driverlib\usb.c **** //*****************************************************************************
1484:C:/StellarisWare/driverlib\usb.c **** //
1485:C:/StellarisWare/driverlib\usb.c **** //! Clears the stall condition on the specified endpoint in device mode.
1486:C:/StellarisWare/driverlib\usb.c **** //!
1487:C:/StellarisWare/driverlib\usb.c **** //! \param ulBase specifies the USB module base address.
1488:C:/StellarisWare/driverlib\usb.c **** //! \param ulEndpoint specifies which endpoint to remove the stall condition.
1489:C:/StellarisWare/driverlib\usb.c **** //! \param ulFlags specifies whether to remove the stall condition from the IN
1490:C:/StellarisWare/driverlib\usb.c **** //! or the OUT portion of this endpoint.
1491:C:/StellarisWare/driverlib\usb.c **** //!
1492:C:/StellarisWare/driverlib\usb.c **** //! This function causes the endpoint number passed in to exit the stall
1493:C:/StellarisWare/driverlib\usb.c **** //! condition.  If the \e ulFlags parameter is \b USB_EP_DEV_IN, then the stall
1494:C:/StellarisWare/driverlib\usb.c **** //! is cleared on the IN portion of this endpoint.  If the \e ulFlags parameter
1495:C:/StellarisWare/driverlib\usb.c **** //! is \b USB_EP_DEV_OUT, then the stall is cleared on the OUT portion of this
1496:C:/StellarisWare/driverlib\usb.c **** //! endpoint.
1497:C:/StellarisWare/driverlib\usb.c **** //!
1498:C:/StellarisWare/driverlib\usb.c **** //! \note This function should only be called in device mode.
1499:C:/StellarisWare/driverlib\usb.c **** //!
1500:C:/StellarisWare/driverlib\usb.c **** //! \return None.
1501:C:/StellarisWare/driverlib\usb.c **** //
1502:C:/StellarisWare/driverlib\usb.c **** //*****************************************************************************
1503:C:/StellarisWare/driverlib\usb.c **** void
1504:C:/StellarisWare/driverlib\usb.c **** USBDevEndpointStallClear(unsigned long ulBase, unsigned long ulEndpoint,
1505:C:/StellarisWare/driverlib\usb.c ****                          unsigned long ulFlags)
1506:C:/StellarisWare/driverlib\usb.c **** {
 1824              		.loc 1 1506 0
 1825              		.cfi_startproc
 1826              		@ args = 0, pretend = 0, frame = 16
 1827              		@ frame_needed = 1, uses_anonymous_args = 0
 1828              		@ link register save eliminated.
 1829 0000 80B4     		push	{r7}
 1830              	.LCFI69:
 1831              		.cfi_def_cfa_offset 4
 1832              		.cfi_offset 7, -4
 1833 0002 85B0     		sub	sp, sp, #20
 1834              	.LCFI70:
 1835              		.cfi_def_cfa_offset 24
 1836 0004 00AF     		add	r7, sp, #0
 1837              	.LCFI71:
 1838              		.cfi_def_cfa_register 7
 1839 0006 F860     		str	r0, [r7, #12]
 1840 0008 B960     		str	r1, [r7, #8]
 1841 000a 7A60     		str	r2, [r7, #4]
1507:C:/StellarisWare/driverlib\usb.c ****     //
1508:C:/StellarisWare/driverlib\usb.c ****     // Check the arguments.
1509:C:/StellarisWare/driverlib\usb.c ****     //
1510:C:/StellarisWare/driverlib\usb.c ****     ASSERT(ulBase == USB0_BASE);
1511:C:/StellarisWare/driverlib\usb.c ****     ASSERT((ulEndpoint == USB_EP_0) || (ulEndpoint == USB_EP_1) ||
1512:C:/StellarisWare/driverlib\usb.c ****            (ulEndpoint == USB_EP_2) || (ulEndpoint == USB_EP_3) ||
1513:C:/StellarisWare/driverlib\usb.c ****            (ulEndpoint == USB_EP_4) || (ulEndpoint == USB_EP_5) ||
1514:C:/StellarisWare/driverlib\usb.c ****            (ulEndpoint == USB_EP_6) || (ulEndpoint == USB_EP_7) ||
1515:C:/StellarisWare/driverlib\usb.c ****            (ulEndpoint == USB_EP_8) || (ulEndpoint == USB_EP_9) ||
1516:C:/StellarisWare/driverlib\usb.c ****            (ulEndpoint == USB_EP_10) || (ulEndpoint == USB_EP_11) ||
1517:C:/StellarisWare/driverlib\usb.c ****            (ulEndpoint == USB_EP_12) || (ulEndpoint == USB_EP_13) ||
1518:C:/StellarisWare/driverlib\usb.c ****            (ulEndpoint == USB_EP_14) || (ulEndpoint == USB_EP_15));
1519:C:/StellarisWare/driverlib\usb.c ****     ASSERT((ulFlags & ~(USB_EP_DEV_IN | USB_EP_DEV_OUT)) == 0)
1520:C:/StellarisWare/driverlib\usb.c **** 
1521:C:/StellarisWare/driverlib\usb.c ****     //
1522:C:/StellarisWare/driverlib\usb.c ****     // Determine how to clear the stall on this endpoint.
1523:C:/StellarisWare/driverlib\usb.c ****     //
1524:C:/StellarisWare/driverlib\usb.c ****     if(ulEndpoint == USB_EP_0)
 1842              		.loc 1 1524 0
 1843 000c BB68     		ldr	r3, [r7, #8]
 1844 000e 002B     		cmp	r3, #0
 1845 0010 0CD1     		bne	.L73
1525:C:/StellarisWare/driverlib\usb.c ****     {
1526:C:/StellarisWare/driverlib\usb.c ****         //
1527:C:/StellarisWare/driverlib\usb.c ****         // Clear the stall on endpoint zero.
1528:C:/StellarisWare/driverlib\usb.c ****         //
1529:C:/StellarisWare/driverlib\usb.c ****         HWREGB(ulBase + USB_O_CSRL0) &= ~USB_CSRL0_STALLED;
 1846              		.loc 1 1529 0
 1847 0012 FB68     		ldr	r3, [r7, #12]
 1848 0014 03F58173 		add	r3, r3, #258
 1849 0018 FA68     		ldr	r2, [r7, #12]
 1850 001a 02F58172 		add	r2, r2, #258
 1851 001e 1278     		ldrb	r2, [r2, #0]
 1852 0020 D2B2     		uxtb	r2, r2
 1853 0022 22F00402 		bic	r2, r2, #4
 1854 0026 D2B2     		uxtb	r2, r2
 1855 0028 1A70     		strb	r2, [r3, #0]
 1856 002a 44E0     		b	.L72
 1857              	.L73:
1530:C:/StellarisWare/driverlib\usb.c ****     }
1531:C:/StellarisWare/driverlib\usb.c ****     else if(ulFlags == USB_EP_DEV_IN)
 1858              		.loc 1 1531 0
 1859 002c 7B68     		ldr	r3, [r7, #4]
 1860 002e B3F5005F 		cmp	r3, #8192
 1861 0032 20D1     		bne	.L75
1532:C:/StellarisWare/driverlib\usb.c ****     {
1533:C:/StellarisWare/driverlib\usb.c ****         //
1534:C:/StellarisWare/driverlib\usb.c ****         // Clear the stall on an IN endpoint.
1535:C:/StellarisWare/driverlib\usb.c ****         //
1536:C:/StellarisWare/driverlib\usb.c ****         HWREGB(ulBase + USB_O_TXCSRL1 + EP_OFFSET(ulEndpoint)) &=
 1862              		.loc 1 1536 0
 1863 0034 FA68     		ldr	r2, [r7, #12]
 1864 0036 BB68     		ldr	r3, [r7, #8]
 1865 0038 D318     		adds	r3, r2, r3
 1866 003a 03F58173 		add	r3, r3, #258
 1867 003e F968     		ldr	r1, [r7, #12]
 1868 0040 BA68     		ldr	r2, [r7, #8]
 1869 0042 8A18     		adds	r2, r1, r2
 1870 0044 02F58172 		add	r2, r2, #258
 1871 0048 1278     		ldrb	r2, [r2, #0]
 1872 004a D2B2     		uxtb	r2, r2
 1873 004c 22F03002 		bic	r2, r2, #48
 1874 0050 D2B2     		uxtb	r2, r2
 1875 0052 1A70     		strb	r2, [r3, #0]
1537:C:/StellarisWare/driverlib\usb.c ****             ~(USB_TXCSRL1_STALL | USB_TXCSRL1_STALLED);
1538:C:/StellarisWare/driverlib\usb.c **** 
1539:C:/StellarisWare/driverlib\usb.c ****         //
1540:C:/StellarisWare/driverlib\usb.c ****         // Reset the data toggle.
1541:C:/StellarisWare/driverlib\usb.c ****         //
1542:C:/StellarisWare/driverlib\usb.c ****         HWREGB(ulBase + USB_O_TXCSRL1 + EP_OFFSET(ulEndpoint)) |=
 1876              		.loc 1 1542 0
 1877 0054 FA68     		ldr	r2, [r7, #12]
 1878 0056 BB68     		ldr	r3, [r7, #8]
 1879 0058 D318     		adds	r3, r2, r3
 1880 005a 03F58173 		add	r3, r3, #258
 1881 005e F968     		ldr	r1, [r7, #12]
 1882 0060 BA68     		ldr	r2, [r7, #8]
 1883 0062 8A18     		adds	r2, r1, r2
 1884 0064 02F58172 		add	r2, r2, #258
 1885 0068 1278     		ldrb	r2, [r2, #0]
 1886 006a D2B2     		uxtb	r2, r2
 1887 006c 42F04002 		orr	r2, r2, #64
 1888 0070 D2B2     		uxtb	r2, r2
 1889 0072 1A70     		strb	r2, [r3, #0]
 1890 0074 1FE0     		b	.L72
 1891              	.L75:
1543:C:/StellarisWare/driverlib\usb.c ****             USB_TXCSRL1_CLRDT;
1544:C:/StellarisWare/driverlib\usb.c ****     }
1545:C:/StellarisWare/driverlib\usb.c ****     else
1546:C:/StellarisWare/driverlib\usb.c ****     {
1547:C:/StellarisWare/driverlib\usb.c ****         //
1548:C:/StellarisWare/driverlib\usb.c ****         // Clear the stall on an OUT endpoint.
1549:C:/StellarisWare/driverlib\usb.c ****         //
1550:C:/StellarisWare/driverlib\usb.c ****         HWREGB(ulBase + USB_O_RXCSRL1 + EP_OFFSET(ulEndpoint)) &=
 1892              		.loc 1 1550 0
 1893 0076 FA68     		ldr	r2, [r7, #12]
 1894 0078 BB68     		ldr	r3, [r7, #8]
 1895 007a D318     		adds	r3, r2, r3
 1896 007c 03F58373 		add	r3, r3, #262
 1897 0080 F968     		ldr	r1, [r7, #12]
 1898 0082 BA68     		ldr	r2, [r7, #8]
 1899 0084 8A18     		adds	r2, r1, r2
 1900 0086 02F58372 		add	r2, r2, #262
 1901 008a 1278     		ldrb	r2, [r2, #0]
 1902 008c D2B2     		uxtb	r2, r2
 1903 008e 22F06002 		bic	r2, r2, #96
 1904 0092 D2B2     		uxtb	r2, r2
 1905 0094 1A70     		strb	r2, [r3, #0]
1551:C:/StellarisWare/driverlib\usb.c ****             ~(USB_RXCSRL1_STALL | USB_RXCSRL1_STALLED);
1552:C:/StellarisWare/driverlib\usb.c **** 
1553:C:/StellarisWare/driverlib\usb.c ****         //
1554:C:/StellarisWare/driverlib\usb.c ****         // Reset the data toggle.
1555:C:/StellarisWare/driverlib\usb.c ****         //
1556:C:/StellarisWare/driverlib\usb.c ****         HWREGB(ulBase + USB_O_RXCSRL1 + EP_OFFSET(ulEndpoint)) |=
 1906              		.loc 1 1556 0
 1907 0096 FA68     		ldr	r2, [r7, #12]
 1908 0098 BB68     		ldr	r3, [r7, #8]
 1909 009a D318     		adds	r3, r2, r3
 1910 009c 03F58373 		add	r3, r3, #262
 1911 00a0 F968     		ldr	r1, [r7, #12]
 1912 00a2 BA68     		ldr	r2, [r7, #8]
 1913 00a4 8A18     		adds	r2, r1, r2
 1914 00a6 02F58372 		add	r2, r2, #262
 1915 00aa 1278     		ldrb	r2, [r2, #0]
 1916 00ac D2B2     		uxtb	r2, r2
 1917 00ae 62F07F02 		orn	r2, r2, #127
 1918 00b2 D2B2     		uxtb	r2, r2
 1919 00b4 1A70     		strb	r2, [r3, #0]
 1920              	.L72:
1557:C:/StellarisWare/driverlib\usb.c ****             USB_RXCSRL1_CLRDT;
1558:C:/StellarisWare/driverlib\usb.c ****     }
1559:C:/StellarisWare/driverlib\usb.c **** }
 1921              		.loc 1 1559 0
 1922 00b6 07F11407 		add	r7, r7, #20
 1923 00ba BD46     		mov	sp, r7
 1924 00bc 80BC     		pop	{r7}
 1925 00be 7047     		bx	lr
 1926              		.cfi_endproc
 1927              	.LFE23:
 1929              		.section	.text.USBDevConnect,"ax",%progbits
 1930              		.align	2
 1931              		.global	USBDevConnect
 1932              		.thumb
 1933              		.thumb_func
 1935              	USBDevConnect:
 1936              	.LFB24:
1560:C:/StellarisWare/driverlib\usb.c **** 
1561:C:/StellarisWare/driverlib\usb.c **** //*****************************************************************************
1562:C:/StellarisWare/driverlib\usb.c **** //
1563:C:/StellarisWare/driverlib\usb.c **** //! Connects the USB controller to the bus in device mode.
1564:C:/StellarisWare/driverlib\usb.c **** //!
1565:C:/StellarisWare/driverlib\usb.c **** //! \param ulBase specifies the USB module base address.
1566:C:/StellarisWare/driverlib\usb.c **** //!
1567:C:/StellarisWare/driverlib\usb.c **** //! This function causes the soft connect feature of the USB controller to
1568:C:/StellarisWare/driverlib\usb.c **** //! be enabled.  Call USBDevDisconnect() to remove the USB device from the bus.
1569:C:/StellarisWare/driverlib\usb.c **** //!
1570:C:/StellarisWare/driverlib\usb.c **** //! \note This function should only be called in device mode.
1571:C:/StellarisWare/driverlib\usb.c **** //!
1572:C:/StellarisWare/driverlib\usb.c **** //! \return None.
1573:C:/StellarisWare/driverlib\usb.c **** //
1574:C:/StellarisWare/driverlib\usb.c **** //*****************************************************************************
1575:C:/StellarisWare/driverlib\usb.c **** void
1576:C:/StellarisWare/driverlib\usb.c **** USBDevConnect(unsigned long ulBase)
1577:C:/StellarisWare/driverlib\usb.c **** {
 1937              		.loc 1 1577 0
 1938              		.cfi_startproc
 1939              		@ args = 0, pretend = 0, frame = 8
 1940              		@ frame_needed = 1, uses_anonymous_args = 0
 1941              		@ link register save eliminated.
 1942 0000 80B4     		push	{r7}
 1943              	.LCFI72:
 1944              		.cfi_def_cfa_offset 4
 1945              		.cfi_offset 7, -4
 1946 0002 83B0     		sub	sp, sp, #12
 1947              	.LCFI73:
 1948              		.cfi_def_cfa_offset 16
 1949 0004 00AF     		add	r7, sp, #0
 1950              	.LCFI74:
 1951              		.cfi_def_cfa_register 7
 1952 0006 7860     		str	r0, [r7, #4]
1578:C:/StellarisWare/driverlib\usb.c ****     //
1579:C:/StellarisWare/driverlib\usb.c ****     // Check the arguments.
1580:C:/StellarisWare/driverlib\usb.c ****     //
1581:C:/StellarisWare/driverlib\usb.c ****     ASSERT(ulBase == USB0_BASE);
1582:C:/StellarisWare/driverlib\usb.c **** 
1583:C:/StellarisWare/driverlib\usb.c ****     //
1584:C:/StellarisWare/driverlib\usb.c ****     // Enable connection to the USB bus.
1585:C:/StellarisWare/driverlib\usb.c ****     //
1586:C:/StellarisWare/driverlib\usb.c ****     HWREGB(ulBase + USB_O_POWER) |= USB_POWER_SOFTCONN;
 1953              		.loc 1 1586 0
 1954 0008 7B68     		ldr	r3, [r7, #4]
 1955 000a 03F10103 		add	r3, r3, #1
 1956 000e 7A68     		ldr	r2, [r7, #4]
 1957 0010 02F10102 		add	r2, r2, #1
 1958 0014 1278     		ldrb	r2, [r2, #0]
 1959 0016 D2B2     		uxtb	r2, r2
 1960 0018 42F04002 		orr	r2, r2, #64
 1961 001c D2B2     		uxtb	r2, r2
 1962 001e 1A70     		strb	r2, [r3, #0]
1587:C:/StellarisWare/driverlib\usb.c **** }
 1963              		.loc 1 1587 0
 1964 0020 07F10C07 		add	r7, r7, #12
 1965 0024 BD46     		mov	sp, r7
 1966 0026 80BC     		pop	{r7}
 1967 0028 7047     		bx	lr
 1968              		.cfi_endproc
 1969              	.LFE24:
 1971 002a 00BF     		.section	.text.USBDevDisconnect,"ax",%progbits
 1972              		.align	2
 1973              		.global	USBDevDisconnect
 1974              		.thumb
 1975              		.thumb_func
 1977              	USBDevDisconnect:
 1978              	.LFB25:
1588:C:/StellarisWare/driverlib\usb.c **** 
1589:C:/StellarisWare/driverlib\usb.c **** //*****************************************************************************
1590:C:/StellarisWare/driverlib\usb.c **** //
1591:C:/StellarisWare/driverlib\usb.c **** //! Removes the USB controller from the bus in device mode.
1592:C:/StellarisWare/driverlib\usb.c **** //!
1593:C:/StellarisWare/driverlib\usb.c **** //! \param ulBase specifies the USB module base address.
1594:C:/StellarisWare/driverlib\usb.c **** //!
1595:C:/StellarisWare/driverlib\usb.c **** //! This function causes the soft connect feature of the USB controller to
1596:C:/StellarisWare/driverlib\usb.c **** //! remove the device from the USB bus.  A call to USBDevConnect() is needed to
1597:C:/StellarisWare/driverlib\usb.c **** //! reconnect to the bus.
1598:C:/StellarisWare/driverlib\usb.c **** //!
1599:C:/StellarisWare/driverlib\usb.c **** //! \note This function should only be called in device mode.
1600:C:/StellarisWare/driverlib\usb.c **** //!
1601:C:/StellarisWare/driverlib\usb.c **** //! \return None.
1602:C:/StellarisWare/driverlib\usb.c **** //
1603:C:/StellarisWare/driverlib\usb.c **** //*****************************************************************************
1604:C:/StellarisWare/driverlib\usb.c **** void
1605:C:/StellarisWare/driverlib\usb.c **** USBDevDisconnect(unsigned long ulBase)
1606:C:/StellarisWare/driverlib\usb.c **** {
 1979              		.loc 1 1606 0
 1980              		.cfi_startproc
 1981              		@ args = 0, pretend = 0, frame = 8
 1982              		@ frame_needed = 1, uses_anonymous_args = 0
 1983              		@ link register save eliminated.
 1984 0000 80B4     		push	{r7}
 1985              	.LCFI75:
 1986              		.cfi_def_cfa_offset 4
 1987              		.cfi_offset 7, -4
 1988 0002 83B0     		sub	sp, sp, #12
 1989              	.LCFI76:
 1990              		.cfi_def_cfa_offset 16
 1991 0004 00AF     		add	r7, sp, #0
 1992              	.LCFI77:
 1993              		.cfi_def_cfa_register 7
 1994 0006 7860     		str	r0, [r7, #4]
1607:C:/StellarisWare/driverlib\usb.c ****     //
1608:C:/StellarisWare/driverlib\usb.c ****     // Check the arguments.
1609:C:/StellarisWare/driverlib\usb.c ****     //
1610:C:/StellarisWare/driverlib\usb.c ****     ASSERT(ulBase == USB0_BASE);
1611:C:/StellarisWare/driverlib\usb.c **** 
1612:C:/StellarisWare/driverlib\usb.c ****     //
1613:C:/StellarisWare/driverlib\usb.c ****     // Disable connection to the USB bus.
1614:C:/StellarisWare/driverlib\usb.c ****     //
1615:C:/StellarisWare/driverlib\usb.c ****     HWREGB(ulBase + USB_O_POWER) &= (~USB_POWER_SOFTCONN);
 1995              		.loc 1 1615 0
 1996 0008 7B68     		ldr	r3, [r7, #4]
 1997 000a 03F10103 		add	r3, r3, #1
 1998 000e 7A68     		ldr	r2, [r7, #4]
 1999 0010 02F10102 		add	r2, r2, #1
 2000 0014 1278     		ldrb	r2, [r2, #0]
 2001 0016 D2B2     		uxtb	r2, r2
 2002 0018 22F04002 		bic	r2, r2, #64
 2003 001c D2B2     		uxtb	r2, r2
 2004 001e 1A70     		strb	r2, [r3, #0]
1616:C:/StellarisWare/driverlib\usb.c **** }
 2005              		.loc 1 1616 0
 2006 0020 07F10C07 		add	r7, r7, #12
 2007 0024 BD46     		mov	sp, r7
 2008 0026 80BC     		pop	{r7}
 2009 0028 7047     		bx	lr
 2010              		.cfi_endproc
 2011              	.LFE25:
 2013 002a 00BF     		.section	.text.USBDevAddrSet,"ax",%progbits
 2014              		.align	2
 2015              		.global	USBDevAddrSet
 2016              		.thumb
 2017              		.thumb_func
 2019              	USBDevAddrSet:
 2020              	.LFB26:
1617:C:/StellarisWare/driverlib\usb.c **** 
1618:C:/StellarisWare/driverlib\usb.c **** //*****************************************************************************
1619:C:/StellarisWare/driverlib\usb.c **** //
1620:C:/StellarisWare/driverlib\usb.c **** //! Sets the address in device mode.
1621:C:/StellarisWare/driverlib\usb.c **** //!
1622:C:/StellarisWare/driverlib\usb.c **** //! \param ulBase specifies the USB module base address.
1623:C:/StellarisWare/driverlib\usb.c **** //! \param ulAddress is the address to use for a device.
1624:C:/StellarisWare/driverlib\usb.c **** //!
1625:C:/StellarisWare/driverlib\usb.c **** //! This function configures the device address on the USB bus.  This address
1626:C:/StellarisWare/driverlib\usb.c **** //! was likely received via a SET ADDRESS command from the host controller.
1627:C:/StellarisWare/driverlib\usb.c **** //!
1628:C:/StellarisWare/driverlib\usb.c **** //! \note This function should only be called in device mode.
1629:C:/StellarisWare/driverlib\usb.c **** //!
1630:C:/StellarisWare/driverlib\usb.c **** //! \return None.
1631:C:/StellarisWare/driverlib\usb.c **** //
1632:C:/StellarisWare/driverlib\usb.c **** //*****************************************************************************
1633:C:/StellarisWare/driverlib\usb.c **** void
1634:C:/StellarisWare/driverlib\usb.c **** USBDevAddrSet(unsigned long ulBase, unsigned long ulAddress)
1635:C:/StellarisWare/driverlib\usb.c **** {
 2021              		.loc 1 1635 0
 2022              		.cfi_startproc
 2023              		@ args = 0, pretend = 0, frame = 8
 2024              		@ frame_needed = 1, uses_anonymous_args = 0
 2025              		@ link register save eliminated.
 2026 0000 80B4     		push	{r7}
 2027              	.LCFI78:
 2028              		.cfi_def_cfa_offset 4
 2029              		.cfi_offset 7, -4
 2030 0002 83B0     		sub	sp, sp, #12
 2031              	.LCFI79:
 2032              		.cfi_def_cfa_offset 16
 2033 0004 00AF     		add	r7, sp, #0
 2034              	.LCFI80:
 2035              		.cfi_def_cfa_register 7
 2036 0006 7860     		str	r0, [r7, #4]
 2037 0008 3960     		str	r1, [r7, #0]
1636:C:/StellarisWare/driverlib\usb.c ****     //
1637:C:/StellarisWare/driverlib\usb.c ****     // Check the arguments.
1638:C:/StellarisWare/driverlib\usb.c ****     //
1639:C:/StellarisWare/driverlib\usb.c ****     ASSERT(ulBase == USB0_BASE);
1640:C:/StellarisWare/driverlib\usb.c **** 
1641:C:/StellarisWare/driverlib\usb.c ****     //
1642:C:/StellarisWare/driverlib\usb.c ****     // Set the function address in the correct location.
1643:C:/StellarisWare/driverlib\usb.c ****     //
1644:C:/StellarisWare/driverlib\usb.c ****     HWREGB(ulBase + USB_O_FADDR) = (unsigned char)ulAddress;
 2038              		.loc 1 1644 0
 2039 000a 7B68     		ldr	r3, [r7, #4]
 2040 000c 3A68     		ldr	r2, [r7, #0]
 2041 000e D2B2     		uxtb	r2, r2
 2042 0010 1A70     		strb	r2, [r3, #0]
1645:C:/StellarisWare/driverlib\usb.c **** }
 2043              		.loc 1 1645 0
 2044 0012 07F10C07 		add	r7, r7, #12
 2045 0016 BD46     		mov	sp, r7
 2046 0018 80BC     		pop	{r7}
 2047 001a 7047     		bx	lr
 2048              		.cfi_endproc
 2049              	.LFE26:
 2051              		.section	.text.USBDevAddrGet,"ax",%progbits
 2052              		.align	2
 2053              		.global	USBDevAddrGet
 2054              		.thumb
 2055              		.thumb_func
 2057              	USBDevAddrGet:
 2058              	.LFB27:
1646:C:/StellarisWare/driverlib\usb.c **** 
1647:C:/StellarisWare/driverlib\usb.c **** //*****************************************************************************
1648:C:/StellarisWare/driverlib\usb.c **** //
1649:C:/StellarisWare/driverlib\usb.c **** //! Returns the current device address in device mode.
1650:C:/StellarisWare/driverlib\usb.c **** //!
1651:C:/StellarisWare/driverlib\usb.c **** //! \param ulBase specifies the USB module base address.
1652:C:/StellarisWare/driverlib\usb.c **** //!
1653:C:/StellarisWare/driverlib\usb.c **** //! This function returns the current device address.  This address was set
1654:C:/StellarisWare/driverlib\usb.c **** //! by a call to USBDevAddrSet().
1655:C:/StellarisWare/driverlib\usb.c **** //!
1656:C:/StellarisWare/driverlib\usb.c **** //! \note This function should only be called in device mode.
1657:C:/StellarisWare/driverlib\usb.c **** //!
1658:C:/StellarisWare/driverlib\usb.c **** //! \return The current device address.
1659:C:/StellarisWare/driverlib\usb.c **** //
1660:C:/StellarisWare/driverlib\usb.c **** //*****************************************************************************
1661:C:/StellarisWare/driverlib\usb.c **** unsigned long
1662:C:/StellarisWare/driverlib\usb.c **** USBDevAddrGet(unsigned long ulBase)
1663:C:/StellarisWare/driverlib\usb.c **** {
 2059              		.loc 1 1663 0
 2060              		.cfi_startproc
 2061              		@ args = 0, pretend = 0, frame = 8
 2062              		@ frame_needed = 1, uses_anonymous_args = 0
 2063              		@ link register save eliminated.
 2064 0000 80B4     		push	{r7}
 2065              	.LCFI81:
 2066              		.cfi_def_cfa_offset 4
 2067              		.cfi_offset 7, -4
 2068 0002 83B0     		sub	sp, sp, #12
 2069              	.LCFI82:
 2070              		.cfi_def_cfa_offset 16
 2071 0004 00AF     		add	r7, sp, #0
 2072              	.LCFI83:
 2073              		.cfi_def_cfa_register 7
 2074 0006 7860     		str	r0, [r7, #4]
1664:C:/StellarisWare/driverlib\usb.c ****     //
1665:C:/StellarisWare/driverlib\usb.c ****     // Check the arguments.
1666:C:/StellarisWare/driverlib\usb.c ****     //
1667:C:/StellarisWare/driverlib\usb.c ****     ASSERT(ulBase == USB0_BASE);
1668:C:/StellarisWare/driverlib\usb.c **** 
1669:C:/StellarisWare/driverlib\usb.c ****     //
1670:C:/StellarisWare/driverlib\usb.c ****     // Return the function address.
1671:C:/StellarisWare/driverlib\usb.c ****     //
1672:C:/StellarisWare/driverlib\usb.c ****     return(HWREGB(ulBase + USB_O_FADDR));
 2075              		.loc 1 1672 0
 2076 0008 7B68     		ldr	r3, [r7, #4]
 2077 000a 1B78     		ldrb	r3, [r3, #0]
 2078 000c DBB2     		uxtb	r3, r3
1673:C:/StellarisWare/driverlib\usb.c **** }
 2079              		.loc 1 1673 0
 2080 000e 1846     		mov	r0, r3
 2081 0010 07F10C07 		add	r7, r7, #12
 2082 0014 BD46     		mov	sp, r7
 2083 0016 80BC     		pop	{r7}
 2084 0018 7047     		bx	lr
 2085              		.cfi_endproc
 2086              	.LFE27:
 2088 001a 00BF     		.section	.text.USBHostEndpointConfig,"ax",%progbits
 2089              		.align	2
 2090              		.global	USBHostEndpointConfig
 2091              		.thumb
 2092              		.thumb_func
 2094              	USBHostEndpointConfig:
 2095              	.LFB28:
1674:C:/StellarisWare/driverlib\usb.c **** 
1675:C:/StellarisWare/driverlib\usb.c **** //*****************************************************************************
1676:C:/StellarisWare/driverlib\usb.c **** //
1677:C:/StellarisWare/driverlib\usb.c **** //! Sets the base configuration for a host endpoint.
1678:C:/StellarisWare/driverlib\usb.c **** //!
1679:C:/StellarisWare/driverlib\usb.c **** //! \param ulBase specifies the USB module base address.
1680:C:/StellarisWare/driverlib\usb.c **** //! \param ulEndpoint is the endpoint to access.
1681:C:/StellarisWare/driverlib\usb.c **** //! \param ulMaxPayload is the maximum payload for this endpoint.
1682:C:/StellarisWare/driverlib\usb.c **** //! \param ulNAKPollInterval is the either the NAK timeout limit or the polling
1683:C:/StellarisWare/driverlib\usb.c **** //! interval, depending on the type of endpoint.
1684:C:/StellarisWare/driverlib\usb.c **** //! \param ulTargetEndpoint is the endpoint that the host endpoint is
1685:C:/StellarisWare/driverlib\usb.c **** //! targeting.
1686:C:/StellarisWare/driverlib\usb.c **** //! \param ulFlags are used to configure other endpoint settings.
1687:C:/StellarisWare/driverlib\usb.c **** //!
1688:C:/StellarisWare/driverlib\usb.c **** //! This function sets the basic configuration for the transmit or receive
1689:C:/StellarisWare/driverlib\usb.c **** //! portion of an endpoint in host mode.  The \e ulFlags parameter determines
1690:C:/StellarisWare/driverlib\usb.c **** //! some of the configuration while the other parameters provide the rest.  The
1691:C:/StellarisWare/driverlib\usb.c **** //! \e ulFlags parameter determines whether this is an IN endpoint
1692:C:/StellarisWare/driverlib\usb.c **** //! (\b USB_EP_HOST_IN or \b USB_EP_DEV_IN) or an OUT endpoint
1693:C:/StellarisWare/driverlib\usb.c **** //! (\b USB_EP_HOST_OUT or \b USB_EP_DEV_OUT), whether this is a Full speed
1694:C:/StellarisWare/driverlib\usb.c **** //! endpoint (\b USB_EP_SPEED_FULL) or a Low speed endpoint
1695:C:/StellarisWare/driverlib\usb.c **** //! (\b USB_EP_SPEED_LOW).
1696:C:/StellarisWare/driverlib\usb.c **** //!
1697:C:/StellarisWare/driverlib\usb.c **** //! The \b USB_EP_MODE_ flags control the type of the endpoint.
1698:C:/StellarisWare/driverlib\usb.c **** //! - \b USB_EP_MODE_CTRL is a control endpoint.
1699:C:/StellarisWare/driverlib\usb.c **** //! - \b USB_EP_MODE_ISOC is an isochronous endpoint.
1700:C:/StellarisWare/driverlib\usb.c **** //! - \b USB_EP_MODE_BULK is a bulk endpoint.
1701:C:/StellarisWare/driverlib\usb.c **** //! - \b USB_EP_MODE_INT is an interrupt endpoint.
1702:C:/StellarisWare/driverlib\usb.c **** //!
1703:C:/StellarisWare/driverlib\usb.c **** //! The \e ulNAKPollInterval parameter has different meanings based on the
1704:C:/StellarisWare/driverlib\usb.c **** //! \b USB_EP_MODE value and whether or not this call is being made for
1705:C:/StellarisWare/driverlib\usb.c **** //! endpoint zero or another endpoint.  For endpoint zero or any Bulk
1706:C:/StellarisWare/driverlib\usb.c **** //! endpoints, this value always indicates the number of frames to allow a
1707:C:/StellarisWare/driverlib\usb.c **** //! device to NAK before considering it a timeout.  If this endpoint is an
1708:C:/StellarisWare/driverlib\usb.c **** //! isochronous or interrupt endpoint, this value is the polling interval for
1709:C:/StellarisWare/driverlib\usb.c **** //! this endpoint.
1710:C:/StellarisWare/driverlib\usb.c **** //!
1711:C:/StellarisWare/driverlib\usb.c **** //! For interrupt endpoints, the polling interval is simply the number of
1712:C:/StellarisWare/driverlib\usb.c **** //! frames between polling an interrupt endpoint.  For isochronous endpoints
1713:C:/StellarisWare/driverlib\usb.c **** //! this value represents a polling interval of 2 ^ (\e ulNAKPollInterval - 1)
1714:C:/StellarisWare/driverlib\usb.c **** //! frames.  When used as a NAK timeout, the \e ulNAKPollInterval value
1715:C:/StellarisWare/driverlib\usb.c **** //! specifies 2 ^ (\e ulNAKPollInterval - 1) frames before issuing a time out.
1716:C:/StellarisWare/driverlib\usb.c **** //! There are two special time out values that can be specified when setting
1717:C:/StellarisWare/driverlib\usb.c **** //! the \e ulNAKPollInterval value.  The first is \b MAX_NAK_LIMIT, which is
1718:C:/StellarisWare/driverlib\usb.c **** //! the maximum value that can be passed in this variable.  The other is
1719:C:/StellarisWare/driverlib\usb.c **** //! \b DISABLE_NAK_LIMIT, which indicates that there should be no limit on the
1720:C:/StellarisWare/driverlib\usb.c **** //! number of NAKs.
1721:C:/StellarisWare/driverlib\usb.c **** //!
1722:C:/StellarisWare/driverlib\usb.c **** //! The \b USB_EP_DMA_MODE_ flags enable the type of DMA used to access the
1723:C:/StellarisWare/driverlib\usb.c **** //! endpoint's data FIFOs.  The choice of the DMA mode depends on how the DMA
1724:C:/StellarisWare/driverlib\usb.c **** //! controller is configured and how it is being used.  See the ``Using USB
1725:C:/StellarisWare/driverlib\usb.c **** //! with the uDMA Controller'' section for more information on DMA
1726:C:/StellarisWare/driverlib\usb.c **** //! configuration.
1727:C:/StellarisWare/driverlib\usb.c **** //!
1728:C:/StellarisWare/driverlib\usb.c **** //! When configuring the OUT portion of an endpoint, the \b USB_EP_AUTO_SET bit
1729:C:/StellarisWare/driverlib\usb.c **** //! is specified to cause the transmission of data on the USB bus to start
1730:C:/StellarisWare/driverlib\usb.c **** //! as soon as the number of bytes specified by \e ulMaxPayload has been
1731:C:/StellarisWare/driverlib\usb.c **** //! written into the OUT FIFO for this endpoint.
1732:C:/StellarisWare/driverlib\usb.c **** //!
1733:C:/StellarisWare/driverlib\usb.c **** //! When configuring the IN portion of an endpoint, the \b USB_EP_AUTO_REQUEST
1734:C:/StellarisWare/driverlib\usb.c **** //! bit can be specified to trigger the request for more data once the FIFO has
1735:C:/StellarisWare/driverlib\usb.c **** //! been drained enough to fit \e ulMaxPayload bytes.  The \b USB_EP_AUTO_CLEAR
1736:C:/StellarisWare/driverlib\usb.c **** //! bit can be used to clear the data packet ready flag automatically once the
1737:C:/StellarisWare/driverlib\usb.c **** //! data has been read from the FIFO.  If this option is not used, this flag
1738:C:/StellarisWare/driverlib\usb.c **** //! must be manually cleared via a call to USBDevEndpointStatusClear() or
1739:C:/StellarisWare/driverlib\usb.c **** //! USBHostEndpointStatusClear().
1740:C:/StellarisWare/driverlib\usb.c **** //!
1741:C:/StellarisWare/driverlib\usb.c **** //! \note This function should only be called in host mode.
1742:C:/StellarisWare/driverlib\usb.c **** //!
1743:C:/StellarisWare/driverlib\usb.c **** //! \return None.
1744:C:/StellarisWare/driverlib\usb.c **** //
1745:C:/StellarisWare/driverlib\usb.c **** //*****************************************************************************
1746:C:/StellarisWare/driverlib\usb.c **** void
1747:C:/StellarisWare/driverlib\usb.c **** USBHostEndpointConfig(unsigned long ulBase, unsigned long ulEndpoint,
1748:C:/StellarisWare/driverlib\usb.c ****                       unsigned long ulMaxPayload,
1749:C:/StellarisWare/driverlib\usb.c ****                       unsigned long ulNAKPollInterval,
1750:C:/StellarisWare/driverlib\usb.c ****                       unsigned long ulTargetEndpoint, unsigned long ulFlags)
1751:C:/StellarisWare/driverlib\usb.c **** {
 2096              		.loc 1 1751 0
 2097              		.cfi_startproc
 2098              		@ args = 8, pretend = 0, frame = 24
 2099              		@ frame_needed = 1, uses_anonymous_args = 0
 2100              		@ link register save eliminated.
 2101 0000 80B4     		push	{r7}
 2102              	.LCFI84:
 2103              		.cfi_def_cfa_offset 4
 2104              		.cfi_offset 7, -4
 2105 0002 87B0     		sub	sp, sp, #28
 2106              	.LCFI85:
 2107              		.cfi_def_cfa_offset 32
 2108 0004 00AF     		add	r7, sp, #0
 2109              	.LCFI86:
 2110              		.cfi_def_cfa_register 7
 2111 0006 F860     		str	r0, [r7, #12]
 2112 0008 B960     		str	r1, [r7, #8]
 2113 000a 7A60     		str	r2, [r7, #4]
 2114 000c 3B60     		str	r3, [r7, #0]
1752:C:/StellarisWare/driverlib\usb.c ****     unsigned long ulRegister;
1753:C:/StellarisWare/driverlib\usb.c **** 
1754:C:/StellarisWare/driverlib\usb.c ****     //
1755:C:/StellarisWare/driverlib\usb.c ****     // Check the arguments.
1756:C:/StellarisWare/driverlib\usb.c ****     //
1757:C:/StellarisWare/driverlib\usb.c ****     ASSERT(ulBase == USB0_BASE);
1758:C:/StellarisWare/driverlib\usb.c ****     ASSERT((ulEndpoint == USB_EP_0) || (ulEndpoint == USB_EP_1) ||
1759:C:/StellarisWare/driverlib\usb.c ****            (ulEndpoint == USB_EP_2) || (ulEndpoint == USB_EP_3) ||
1760:C:/StellarisWare/driverlib\usb.c ****            (ulEndpoint == USB_EP_4) || (ulEndpoint == USB_EP_5) ||
1761:C:/StellarisWare/driverlib\usb.c ****            (ulEndpoint == USB_EP_6) || (ulEndpoint == USB_EP_7) ||
1762:C:/StellarisWare/driverlib\usb.c ****            (ulEndpoint == USB_EP_8) || (ulEndpoint == USB_EP_9) ||
1763:C:/StellarisWare/driverlib\usb.c ****            (ulEndpoint == USB_EP_10) || (ulEndpoint == USB_EP_11) ||
1764:C:/StellarisWare/driverlib\usb.c ****            (ulEndpoint == USB_EP_12) || (ulEndpoint == USB_EP_13) ||
1765:C:/StellarisWare/driverlib\usb.c ****            (ulEndpoint == USB_EP_14) || (ulEndpoint == USB_EP_15));
1766:C:/StellarisWare/driverlib\usb.c ****     ASSERT(ulNAKPollInterval <= MAX_NAK_LIMIT);
1767:C:/StellarisWare/driverlib\usb.c **** 
1768:C:/StellarisWare/driverlib\usb.c ****     //
1769:C:/StellarisWare/driverlib\usb.c ****     // Endpoint zero is configured differently than the other endpoints, so see
1770:C:/StellarisWare/driverlib\usb.c ****     // if this is endpoint zero.
1771:C:/StellarisWare/driverlib\usb.c ****     //
1772:C:/StellarisWare/driverlib\usb.c ****     if(ulEndpoint == USB_EP_0)
 2115              		.loc 1 1772 0
 2116 000e BB68     		ldr	r3, [r7, #8]
 2117 0010 002B     		cmp	r3, #0
 2118 0012 17D1     		bne	.L81
1773:C:/StellarisWare/driverlib\usb.c ****     {
1774:C:/StellarisWare/driverlib\usb.c ****         //
1775:C:/StellarisWare/driverlib\usb.c ****         // Set the NAK timeout.
1776:C:/StellarisWare/driverlib\usb.c ****         //
1777:C:/StellarisWare/driverlib\usb.c ****         HWREGB(ulBase + USB_O_NAKLMT) = ulNAKPollInterval;
 2119              		.loc 1 1777 0
 2120 0014 FB68     		ldr	r3, [r7, #12]
 2121 0016 03F58473 		add	r3, r3, #264
 2122 001a 03F10303 		add	r3, r3, #3
 2123 001e 3A68     		ldr	r2, [r7, #0]
 2124 0020 D2B2     		uxtb	r2, r2
 2125 0022 1A70     		strb	r2, [r3, #0]
1778:C:/StellarisWare/driverlib\usb.c **** 
1779:C:/StellarisWare/driverlib\usb.c ****         //
1780:C:/StellarisWare/driverlib\usb.c ****         // Set the transfer type information.
1781:C:/StellarisWare/driverlib\usb.c ****         //
1782:C:/StellarisWare/driverlib\usb.c ****         HWREGB(ulBase + USB_O_TYPE0) =
 2126              		.loc 1 1782 0
 2127 0024 FB68     		ldr	r3, [r7, #12]
 2128 0026 03F58573 		add	r3, r3, #266
 2129 002a 1A46     		mov	r2, r3
1783:C:/StellarisWare/driverlib\usb.c ****             ((ulFlags & USB_EP_SPEED_FULL) ? USB_TYPE0_SPEED_FULL :
 2130              		.loc 1 1783 0
 2131 002c 7B6A     		ldr	r3, [r7, #36]
 2132 002e 03F48053 		and	r3, r3, #4096
1782:C:/StellarisWare/driverlib\usb.c ****         HWREGB(ulBase + USB_O_TYPE0) =
 2133              		.loc 1 1782 0
 2134 0032 002B     		cmp	r3, #0
 2135 0034 02D0     		beq	.L82
1782:C:/StellarisWare/driverlib\usb.c ****         HWREGB(ulBase + USB_O_TYPE0) =
 2136              		.loc 1 1782 0 is_stmt 0 discriminator 1
 2137 0036 4FF08003 		mov	r3, #128
 2138 003a 01E0     		b	.L83
 2139              	.L82:
1782:C:/StellarisWare/driverlib\usb.c ****         HWREGB(ulBase + USB_O_TYPE0) =
 2140              		.loc 1 1782 0 discriminator 2
 2141 003c 4FF0C003 		mov	r3, #192
 2142              	.L83:
1782:C:/StellarisWare/driverlib\usb.c ****         HWREGB(ulBase + USB_O_TYPE0) =
 2143              		.loc 1 1782 0 discriminator 3
 2144 0040 1370     		strb	r3, [r2, #0]
 2145 0042 BDE0     		b	.L80
 2146              	.L81:
1784:C:/StellarisWare/driverlib\usb.c ****              USB_TYPE0_SPEED_LOW);
1785:C:/StellarisWare/driverlib\usb.c ****     }
1786:C:/StellarisWare/driverlib\usb.c ****     else
1787:C:/StellarisWare/driverlib\usb.c ****     {
1788:C:/StellarisWare/driverlib\usb.c ****         //
1789:C:/StellarisWare/driverlib\usb.c ****         // Start with the target endpoint.
1790:C:/StellarisWare/driverlib\usb.c ****         //
1791:C:/StellarisWare/driverlib\usb.c ****         ulRegister = ulTargetEndpoint;
 2147              		.loc 1 1791 0 is_stmt 1
 2148 0044 3B6A     		ldr	r3, [r7, #32]
 2149 0046 7B61     		str	r3, [r7, #20]
1792:C:/StellarisWare/driverlib\usb.c **** 
1793:C:/StellarisWare/driverlib\usb.c ****         //
1794:C:/StellarisWare/driverlib\usb.c ****         // Set the speed for the device using this endpoint.
1795:C:/StellarisWare/driverlib\usb.c ****         //
1796:C:/StellarisWare/driverlib\usb.c ****         if(ulFlags & USB_EP_SPEED_FULL)
 2150              		.loc 1 1796 0
 2151 0048 7B6A     		ldr	r3, [r7, #36]
 2152 004a 03F48053 		and	r3, r3, #4096
 2153 004e 002B     		cmp	r3, #0
 2154 0050 04D0     		beq	.L85
1797:C:/StellarisWare/driverlib\usb.c ****         {
1798:C:/StellarisWare/driverlib\usb.c ****             ulRegister |= USB_TXTYPE1_SPEED_FULL;
 2155              		.loc 1 1798 0
 2156 0052 7B69     		ldr	r3, [r7, #20]
 2157 0054 43F08003 		orr	r3, r3, #128
 2158 0058 7B61     		str	r3, [r7, #20]
 2159 005a 03E0     		b	.L86
 2160              	.L85:
1799:C:/StellarisWare/driverlib\usb.c ****         }
1800:C:/StellarisWare/driverlib\usb.c ****         else
1801:C:/StellarisWare/driverlib\usb.c ****         {
1802:C:/StellarisWare/driverlib\usb.c ****             ulRegister |= USB_TXTYPE1_SPEED_LOW;
 2161              		.loc 1 1802 0
 2162 005c 7B69     		ldr	r3, [r7, #20]
 2163 005e 43F0C003 		orr	r3, r3, #192
 2164 0062 7B61     		str	r3, [r7, #20]
 2165              	.L86:
1803:C:/StellarisWare/driverlib\usb.c ****         }
1804:C:/StellarisWare/driverlib\usb.c **** 
1805:C:/StellarisWare/driverlib\usb.c ****         //
1806:C:/StellarisWare/driverlib\usb.c ****         // Set the protocol for the device using this endpoint.
1807:C:/StellarisWare/driverlib\usb.c ****         //
1808:C:/StellarisWare/driverlib\usb.c ****         switch(ulFlags & USB_EP_MODE_MASK)
 2166              		.loc 1 1808 0
 2167 0064 7B6A     		ldr	r3, [r7, #36]
 2168 0066 03F44073 		and	r3, r3, #768
 2169 006a B3F5807F 		cmp	r3, #256
 2170 006e 0BD0     		beq	.L89
 2171 0070 B3F5807F 		cmp	r3, #256
 2172 0074 02D8     		bhi	.L92
 2173 0076 002B     		cmp	r3, #0
 2174 0078 0BD0     		beq	.L88
 2175 007a 14E0     		b	.L87
 2176              	.L92:
 2177 007c B3F5007F 		cmp	r3, #512
 2178 0080 0CD0     		beq	.L90
 2179 0082 B3F5407F 		cmp	r3, #768
1809:C:/StellarisWare/driverlib\usb.c ****         {
1810:C:/StellarisWare/driverlib\usb.c ****             //
1811:C:/StellarisWare/driverlib\usb.c ****             // The bulk protocol is being used.
1812:C:/StellarisWare/driverlib\usb.c ****             //
1813:C:/StellarisWare/driverlib\usb.c ****             case USB_EP_MODE_BULK:
1814:C:/StellarisWare/driverlib\usb.c ****             {
1815:C:/StellarisWare/driverlib\usb.c ****                 ulRegister |= USB_TXTYPE1_PROTO_BULK;
1816:C:/StellarisWare/driverlib\usb.c ****                 break;
1817:C:/StellarisWare/driverlib\usb.c ****             }
1818:C:/StellarisWare/driverlib\usb.c **** 
1819:C:/StellarisWare/driverlib\usb.c ****             //
1820:C:/StellarisWare/driverlib\usb.c ****             // The isochronous protocol is being used.
1821:C:/StellarisWare/driverlib\usb.c ****             //
1822:C:/StellarisWare/driverlib\usb.c ****             case USB_EP_MODE_ISOC:
1823:C:/StellarisWare/driverlib\usb.c ****             {
1824:C:/StellarisWare/driverlib\usb.c ****                 ulRegister |= USB_TXTYPE1_PROTO_ISOC;
1825:C:/StellarisWare/driverlib\usb.c ****                 break;
1826:C:/StellarisWare/driverlib\usb.c ****             }
1827:C:/StellarisWare/driverlib\usb.c **** 
1828:C:/StellarisWare/driverlib\usb.c ****             //
1829:C:/StellarisWare/driverlib\usb.c ****             // The interrupt protocol is being used.
1830:C:/StellarisWare/driverlib\usb.c ****             //
1831:C:/StellarisWare/driverlib\usb.c ****             case USB_EP_MODE_INT:
1832:C:/StellarisWare/driverlib\usb.c ****             {
1833:C:/StellarisWare/driverlib\usb.c ****                 ulRegister |= USB_TXTYPE1_PROTO_INT;
1834:C:/StellarisWare/driverlib\usb.c ****                 break;
1835:C:/StellarisWare/driverlib\usb.c ****             }
1836:C:/StellarisWare/driverlib\usb.c **** 
1837:C:/StellarisWare/driverlib\usb.c ****             //
1838:C:/StellarisWare/driverlib\usb.c ****             // The control protocol is being used.
1839:C:/StellarisWare/driverlib\usb.c ****             //
1840:C:/StellarisWare/driverlib\usb.c ****             case USB_EP_MODE_CTRL:
1841:C:/StellarisWare/driverlib\usb.c ****             {
1842:C:/StellarisWare/driverlib\usb.c ****                 ulRegister |= USB_TXTYPE1_PROTO_CTRL;
1843:C:/StellarisWare/driverlib\usb.c ****                 break;
 2180              		.loc 1 1843 0
 2181 0086 0EE0     		b	.L87
 2182              	.L89:
1815:C:/StellarisWare/driverlib\usb.c ****                 ulRegister |= USB_TXTYPE1_PROTO_BULK;
 2183              		.loc 1 1815 0
 2184 0088 7B69     		ldr	r3, [r7, #20]
 2185 008a 43F02003 		orr	r3, r3, #32
 2186 008e 7B61     		str	r3, [r7, #20]
1816:C:/StellarisWare/driverlib\usb.c ****                 break;
 2187              		.loc 1 1816 0
 2188 0090 09E0     		b	.L87
 2189              	.L88:
1824:C:/StellarisWare/driverlib\usb.c ****                 ulRegister |= USB_TXTYPE1_PROTO_ISOC;
 2190              		.loc 1 1824 0
 2191 0092 7B69     		ldr	r3, [r7, #20]
 2192 0094 43F01003 		orr	r3, r3, #16
 2193 0098 7B61     		str	r3, [r7, #20]
1825:C:/StellarisWare/driverlib\usb.c ****                 break;
 2194              		.loc 1 1825 0
 2195 009a 04E0     		b	.L87
 2196              	.L90:
1833:C:/StellarisWare/driverlib\usb.c ****                 ulRegister |= USB_TXTYPE1_PROTO_INT;
 2197              		.loc 1 1833 0
 2198 009c 7B69     		ldr	r3, [r7, #20]
 2199 009e 43F03003 		orr	r3, r3, #48
 2200 00a2 7B61     		str	r3, [r7, #20]
1834:C:/StellarisWare/driverlib\usb.c ****                 break;
 2201              		.loc 1 1834 0
 2202 00a4 00BF     		nop
 2203              	.L87:
1844:C:/StellarisWare/driverlib\usb.c ****             }
1845:C:/StellarisWare/driverlib\usb.c ****         }
1846:C:/StellarisWare/driverlib\usb.c **** 
1847:C:/StellarisWare/driverlib\usb.c ****         //
1848:C:/StellarisWare/driverlib\usb.c ****         // See if the transmit or receive endpoint is being configured.
1849:C:/StellarisWare/driverlib\usb.c ****         //
1850:C:/StellarisWare/driverlib\usb.c ****         if(ulFlags & USB_EP_HOST_OUT)
 2204              		.loc 1 1850 0
 2205 00a6 7B6A     		ldr	r3, [r7, #36]
 2206 00a8 03F40053 		and	r3, r3, #8192
 2207 00ac 002B     		cmp	r3, #0
 2208 00ae 44D0     		beq	.L93
1851:C:/StellarisWare/driverlib\usb.c ****         {
1852:C:/StellarisWare/driverlib\usb.c ****             //
1853:C:/StellarisWare/driverlib\usb.c ****             // Set the transfer type information.
1854:C:/StellarisWare/driverlib\usb.c ****             //
1855:C:/StellarisWare/driverlib\usb.c ****             HWREGB(ulBase + EP_OFFSET(ulEndpoint) + USB_O_TXTYPE1) =
 2209              		.loc 1 1855 0
 2210 00b0 BA68     		ldr	r2, [r7, #8]
 2211 00b2 FB68     		ldr	r3, [r7, #12]
 2212 00b4 D318     		adds	r3, r2, r3
 2213 00b6 03F58573 		add	r3, r3, #266
 2214 00ba 7A69     		ldr	r2, [r7, #20]
 2215 00bc D2B2     		uxtb	r2, r2
 2216 00be 1A70     		strb	r2, [r3, #0]
1856:C:/StellarisWare/driverlib\usb.c ****                 ulRegister;
1857:C:/StellarisWare/driverlib\usb.c **** 
1858:C:/StellarisWare/driverlib\usb.c ****             //
1859:C:/StellarisWare/driverlib\usb.c ****             // Set the NAK timeout or polling interval.
1860:C:/StellarisWare/driverlib\usb.c ****             //
1861:C:/StellarisWare/driverlib\usb.c ****             HWREGB(ulBase + EP_OFFSET(ulEndpoint) + USB_O_TXINTERVAL1) =
 2217              		.loc 1 1861 0
 2218 00c0 BA68     		ldr	r2, [r7, #8]
 2219 00c2 FB68     		ldr	r3, [r7, #12]
 2220 00c4 D318     		adds	r3, r2, r3
 2221 00c6 03F58473 		add	r3, r3, #264
 2222 00ca 03F10303 		add	r3, r3, #3
 2223 00ce 3A68     		ldr	r2, [r7, #0]
 2224 00d0 D2B2     		uxtb	r2, r2
 2225 00d2 1A70     		strb	r2, [r3, #0]
1862:C:/StellarisWare/driverlib\usb.c ****                 ulNAKPollInterval;
1863:C:/StellarisWare/driverlib\usb.c **** 
1864:C:/StellarisWare/driverlib\usb.c ****             //
1865:C:/StellarisWare/driverlib\usb.c ****             // Set the Maximum Payload per transaction.
1866:C:/StellarisWare/driverlib\usb.c ****             //
1867:C:/StellarisWare/driverlib\usb.c ****             HWREGH(ulBase + EP_OFFSET(ulEndpoint) + USB_O_TXMAXP1) =
 2226              		.loc 1 1867 0
 2227 00d4 BA68     		ldr	r2, [r7, #8]
 2228 00d6 FB68     		ldr	r3, [r7, #12]
 2229 00d8 D318     		adds	r3, r2, r3
 2230 00da 03F58073 		add	r3, r3, #256
 2231 00de 7A68     		ldr	r2, [r7, #4]
 2232 00e0 92B2     		uxth	r2, r2
 2233 00e2 1A80     		strh	r2, [r3, #0]	@ movhi
1868:C:/StellarisWare/driverlib\usb.c ****                 ulMaxPayload;
1869:C:/StellarisWare/driverlib\usb.c **** 
1870:C:/StellarisWare/driverlib\usb.c ****             //
1871:C:/StellarisWare/driverlib\usb.c ****             // Set the transmit control value to zero.
1872:C:/StellarisWare/driverlib\usb.c ****             //
1873:C:/StellarisWare/driverlib\usb.c ****             ulRegister = 0;
 2234              		.loc 1 1873 0
 2235 00e4 4FF00003 		mov	r3, #0
 2236 00e8 7B61     		str	r3, [r7, #20]
1874:C:/StellarisWare/driverlib\usb.c **** 
1875:C:/StellarisWare/driverlib\usb.c ****             //
1876:C:/StellarisWare/driverlib\usb.c ****             // Allow auto setting of TxPktRdy when max packet size has been
1877:C:/StellarisWare/driverlib\usb.c ****             // loaded into the FIFO.
1878:C:/StellarisWare/driverlib\usb.c ****             //
1879:C:/StellarisWare/driverlib\usb.c ****             if(ulFlags & USB_EP_AUTO_SET)
 2237              		.loc 1 1879 0
 2238 00ea 7B6A     		ldr	r3, [r7, #36]
 2239 00ec 03F00103 		and	r3, r3, #1
 2240 00f0 DBB2     		uxtb	r3, r3
 2241 00f2 002B     		cmp	r3, #0
 2242 00f4 03D0     		beq	.L94
1880:C:/StellarisWare/driverlib\usb.c ****             {
1881:C:/StellarisWare/driverlib\usb.c ****                 ulRegister |= USB_TXCSRH1_AUTOSET;
 2243              		.loc 1 1881 0
 2244 00f6 7B69     		ldr	r3, [r7, #20]
 2245 00f8 43F08003 		orr	r3, r3, #128
 2246 00fc 7B61     		str	r3, [r7, #20]
 2247              	.L94:
1882:C:/StellarisWare/driverlib\usb.c ****             }
1883:C:/StellarisWare/driverlib\usb.c **** 
1884:C:/StellarisWare/driverlib\usb.c ****             //
1885:C:/StellarisWare/driverlib\usb.c ****             // Configure the DMA Mode.
1886:C:/StellarisWare/driverlib\usb.c ****             //
1887:C:/StellarisWare/driverlib\usb.c ****             if(ulFlags & USB_EP_DMA_MODE_1)
 2248              		.loc 1 1887 0
 2249 00fe 7B6A     		ldr	r3, [r7, #36]
 2250 0100 03F01003 		and	r3, r3, #16
 2251 0104 002B     		cmp	r3, #0
 2252 0106 04D0     		beq	.L95
1888:C:/StellarisWare/driverlib\usb.c ****             {
1889:C:/StellarisWare/driverlib\usb.c ****                 ulRegister |= USB_TXCSRH1_DMAEN | USB_TXCSRH1_DMAMOD;
 2253              		.loc 1 1889 0
 2254 0108 7B69     		ldr	r3, [r7, #20]
 2255 010a 43F01403 		orr	r3, r3, #20
 2256 010e 7B61     		str	r3, [r7, #20]
 2257 0110 08E0     		b	.L96
 2258              	.L95:
1890:C:/StellarisWare/driverlib\usb.c ****             }
1891:C:/StellarisWare/driverlib\usb.c ****             else if(ulFlags & USB_EP_DMA_MODE_0)
 2259              		.loc 1 1891 0
 2260 0112 7B6A     		ldr	r3, [r7, #36]
 2261 0114 03F00803 		and	r3, r3, #8
 2262 0118 002B     		cmp	r3, #0
 2263 011a 03D0     		beq	.L96
1892:C:/StellarisWare/driverlib\usb.c ****             {
1893:C:/StellarisWare/driverlib\usb.c ****                 ulRegister |= USB_TXCSRH1_DMAEN;
 2264              		.loc 1 1893 0
 2265 011c 7B69     		ldr	r3, [r7, #20]
 2266 011e 43F01003 		orr	r3, r3, #16
 2267 0122 7B61     		str	r3, [r7, #20]
 2268              	.L96:
1894:C:/StellarisWare/driverlib\usb.c ****             }
1895:C:/StellarisWare/driverlib\usb.c **** 
1896:C:/StellarisWare/driverlib\usb.c ****             //
1897:C:/StellarisWare/driverlib\usb.c ****             // Write out the transmit control value.
1898:C:/StellarisWare/driverlib\usb.c ****             //
1899:C:/StellarisWare/driverlib\usb.c ****             HWREGB(ulBase + EP_OFFSET(ulEndpoint) + USB_O_TXCSRH1) =
 2269              		.loc 1 1899 0
 2270 0124 BA68     		ldr	r2, [r7, #8]
 2271 0126 FB68     		ldr	r3, [r7, #12]
 2272 0128 D318     		adds	r3, r2, r3
 2273 012a 03F58073 		add	r3, r3, #256
 2274 012e 03F10303 		add	r3, r3, #3
1900:C:/StellarisWare/driverlib\usb.c ****                 (unsigned char)ulRegister;
 2275              		.loc 1 1900 0
 2276 0132 7A69     		ldr	r2, [r7, #20]
 2277 0134 D2B2     		uxtb	r2, r2
1899:C:/StellarisWare/driverlib\usb.c ****             HWREGB(ulBase + EP_OFFSET(ulEndpoint) + USB_O_TXCSRH1) =
 2278              		.loc 1 1899 0
 2279 0136 1A70     		strb	r2, [r3, #0]
 2280 0138 42E0     		b	.L80
 2281              	.L93:
1901:C:/StellarisWare/driverlib\usb.c ****         }
1902:C:/StellarisWare/driverlib\usb.c ****         else
1903:C:/StellarisWare/driverlib\usb.c ****         {
1904:C:/StellarisWare/driverlib\usb.c ****             //
1905:C:/StellarisWare/driverlib\usb.c ****             // Set the transfer type information.
1906:C:/StellarisWare/driverlib\usb.c ****             //
1907:C:/StellarisWare/driverlib\usb.c ****             HWREGB(ulBase + EP_OFFSET(ulEndpoint) + USB_O_RXTYPE1) =
 2282              		.loc 1 1907 0
 2283 013a BA68     		ldr	r2, [r7, #8]
 2284 013c FB68     		ldr	r3, [r7, #12]
 2285 013e D318     		adds	r3, r2, r3
 2286 0140 03F58673 		add	r3, r3, #268
 2287 0144 7A69     		ldr	r2, [r7, #20]
 2288 0146 D2B2     		uxtb	r2, r2
 2289 0148 1A70     		strb	r2, [r3, #0]
1908:C:/StellarisWare/driverlib\usb.c ****                 ulRegister;
1909:C:/StellarisWare/driverlib\usb.c **** 
1910:C:/StellarisWare/driverlib\usb.c ****             //
1911:C:/StellarisWare/driverlib\usb.c ****             // Set the NAK timeout or polling interval.
1912:C:/StellarisWare/driverlib\usb.c ****             //
1913:C:/StellarisWare/driverlib\usb.c ****             HWREGB(ulBase + EP_OFFSET(ulEndpoint) + USB_O_RXINTERVAL1) =
 2290              		.loc 1 1913 0
 2291 014a BA68     		ldr	r2, [r7, #8]
 2292 014c FB68     		ldr	r3, [r7, #12]
 2293 014e D318     		adds	r3, r2, r3
 2294 0150 03F58673 		add	r3, r3, #268
 2295 0154 03F10103 		add	r3, r3, #1
 2296 0158 3A68     		ldr	r2, [r7, #0]
 2297 015a D2B2     		uxtb	r2, r2
 2298 015c 1A70     		strb	r2, [r3, #0]
1914:C:/StellarisWare/driverlib\usb.c ****                 ulNAKPollInterval;
1915:C:/StellarisWare/driverlib\usb.c **** 
1916:C:/StellarisWare/driverlib\usb.c ****             //
1917:C:/StellarisWare/driverlib\usb.c ****             // Set the Maximum Payload per transaction.
1918:C:/StellarisWare/driverlib\usb.c ****             //
1919:C:/StellarisWare/driverlib\usb.c ****             HWREGH(ulBase + EP_OFFSET(ulEndpoint) + USB_O_RXMAXP1) =
 2299              		.loc 1 1919 0
 2300 015e BA68     		ldr	r2, [r7, #8]
 2301 0160 FB68     		ldr	r3, [r7, #12]
 2302 0162 D318     		adds	r3, r2, r3
 2303 0164 03F58273 		add	r3, r3, #260
 2304 0168 7A68     		ldr	r2, [r7, #4]
 2305 016a 92B2     		uxth	r2, r2
 2306 016c 1A80     		strh	r2, [r3, #0]	@ movhi
1920:C:/StellarisWare/driverlib\usb.c ****                 ulMaxPayload;
1921:C:/StellarisWare/driverlib\usb.c **** 
1922:C:/StellarisWare/driverlib\usb.c ****             //
1923:C:/StellarisWare/driverlib\usb.c ****             // Set the receive control value to zero.
1924:C:/StellarisWare/driverlib\usb.c ****             //
1925:C:/StellarisWare/driverlib\usb.c ****             ulRegister = 0;
 2307              		.loc 1 1925 0
 2308 016e 4FF00003 		mov	r3, #0
 2309 0172 7B61     		str	r3, [r7, #20]
1926:C:/StellarisWare/driverlib\usb.c **** 
1927:C:/StellarisWare/driverlib\usb.c ****             //
1928:C:/StellarisWare/driverlib\usb.c ****             // Allow auto clearing of RxPktRdy when packet of size max packet
1929:C:/StellarisWare/driverlib\usb.c ****             // has been unloaded from the FIFO.
1930:C:/StellarisWare/driverlib\usb.c ****             //
1931:C:/StellarisWare/driverlib\usb.c ****             if(ulFlags & USB_EP_AUTO_CLEAR)
 2310              		.loc 1 1931 0
 2311 0174 7B6A     		ldr	r3, [r7, #36]
 2312 0176 03F00403 		and	r3, r3, #4
 2313 017a 002B     		cmp	r3, #0
 2314 017c 03D0     		beq	.L97
1932:C:/StellarisWare/driverlib\usb.c ****             {
1933:C:/StellarisWare/driverlib\usb.c ****                 ulRegister |= USB_RXCSRH1_AUTOCL;
 2315              		.loc 1 1933 0
 2316 017e 7B69     		ldr	r3, [r7, #20]
 2317 0180 43F08003 		orr	r3, r3, #128
 2318 0184 7B61     		str	r3, [r7, #20]
 2319              	.L97:
1934:C:/StellarisWare/driverlib\usb.c ****             }
1935:C:/StellarisWare/driverlib\usb.c **** 
1936:C:/StellarisWare/driverlib\usb.c ****             //
1937:C:/StellarisWare/driverlib\usb.c ****             // Configure the DMA Mode.
1938:C:/StellarisWare/driverlib\usb.c ****             //
1939:C:/StellarisWare/driverlib\usb.c ****             if(ulFlags & USB_EP_DMA_MODE_1)
 2320              		.loc 1 1939 0
 2321 0186 7B6A     		ldr	r3, [r7, #36]
 2322 0188 03F01003 		and	r3, r3, #16
 2323 018c 002B     		cmp	r3, #0
 2324 018e 04D0     		beq	.L98
1940:C:/StellarisWare/driverlib\usb.c ****             {
1941:C:/StellarisWare/driverlib\usb.c ****                 ulRegister |= USB_RXCSRH1_DMAEN | USB_RXCSRH1_DMAMOD;
 2325              		.loc 1 1941 0
 2326 0190 7B69     		ldr	r3, [r7, #20]
 2327 0192 43F02803 		orr	r3, r3, #40
 2328 0196 7B61     		str	r3, [r7, #20]
 2329 0198 08E0     		b	.L99
 2330              	.L98:
1942:C:/StellarisWare/driverlib\usb.c ****             }
1943:C:/StellarisWare/driverlib\usb.c ****             else if(ulFlags & USB_EP_DMA_MODE_0)
 2331              		.loc 1 1943 0
 2332 019a 7B6A     		ldr	r3, [r7, #36]
 2333 019c 03F00803 		and	r3, r3, #8
 2334 01a0 002B     		cmp	r3, #0
 2335 01a2 03D0     		beq	.L99
1944:C:/StellarisWare/driverlib\usb.c ****             {
1945:C:/StellarisWare/driverlib\usb.c ****                 ulRegister |= USB_RXCSRH1_DMAEN;
 2336              		.loc 1 1945 0
 2337 01a4 7B69     		ldr	r3, [r7, #20]
 2338 01a6 43F02003 		orr	r3, r3, #32
 2339 01aa 7B61     		str	r3, [r7, #20]
 2340              	.L99:
1946:C:/StellarisWare/driverlib\usb.c ****             }
1947:C:/StellarisWare/driverlib\usb.c **** 
1948:C:/StellarisWare/driverlib\usb.c ****             //
1949:C:/StellarisWare/driverlib\usb.c ****             // Write out the receive control value.
1950:C:/StellarisWare/driverlib\usb.c ****             //
1951:C:/StellarisWare/driverlib\usb.c ****             HWREGB(ulBase + EP_OFFSET(ulEndpoint) + USB_O_RXCSRH1) =
 2341              		.loc 1 1951 0
 2342 01ac BA68     		ldr	r2, [r7, #8]
 2343 01ae FB68     		ldr	r3, [r7, #12]
 2344 01b0 D318     		adds	r3, r2, r3
 2345 01b2 03F58273 		add	r3, r3, #260
 2346 01b6 03F10303 		add	r3, r3, #3
1952:C:/StellarisWare/driverlib\usb.c ****                 (unsigned char)ulRegister;
 2347              		.loc 1 1952 0
 2348 01ba 7A69     		ldr	r2, [r7, #20]
 2349 01bc D2B2     		uxtb	r2, r2
1951:C:/StellarisWare/driverlib\usb.c ****             HWREGB(ulBase + EP_OFFSET(ulEndpoint) + USB_O_RXCSRH1) =
 2350              		.loc 1 1951 0
 2351 01be 1A70     		strb	r2, [r3, #0]
 2352              	.L80:
1953:C:/StellarisWare/driverlib\usb.c ****         }
1954:C:/StellarisWare/driverlib\usb.c ****     }
1955:C:/StellarisWare/driverlib\usb.c **** }
 2353              		.loc 1 1955 0
 2354 01c0 07F11C07 		add	r7, r7, #28
 2355 01c4 BD46     		mov	sp, r7
 2356 01c6 80BC     		pop	{r7}
 2357 01c8 7047     		bx	lr
 2358              		.cfi_endproc
 2359              	.LFE28:
 2361 01ca 00BF     		.section	.text.USBDevEndpointConfigSet,"ax",%progbits
 2362              		.align	2
 2363              		.global	USBDevEndpointConfigSet
 2364              		.thumb
 2365              		.thumb_func
 2367              	USBDevEndpointConfigSet:
 2368              	.LFB29:
1956:C:/StellarisWare/driverlib\usb.c **** 
1957:C:/StellarisWare/driverlib\usb.c **** //*****************************************************************************
1958:C:/StellarisWare/driverlib\usb.c **** //
1959:C:/StellarisWare/driverlib\usb.c **** //! Sets the configuration for an endpoint.
1960:C:/StellarisWare/driverlib\usb.c **** //!
1961:C:/StellarisWare/driverlib\usb.c **** //! \param ulBase specifies the USB module base address.
1962:C:/StellarisWare/driverlib\usb.c **** //! \param ulEndpoint is the endpoint to access.
1963:C:/StellarisWare/driverlib\usb.c **** //! \param ulMaxPacketSize is the maximum packet size for this endpoint.
1964:C:/StellarisWare/driverlib\usb.c **** //! \param ulFlags are used to configure other endpoint settings.
1965:C:/StellarisWare/driverlib\usb.c **** //!
1966:C:/StellarisWare/driverlib\usb.c **** //! This function sets the basic configuration for an endpoint in device mode.
1967:C:/StellarisWare/driverlib\usb.c **** //! Endpoint zero does not have a dynamic configuration, so this function
1968:C:/StellarisWare/driverlib\usb.c **** //! should not be called for endpoint zero.  The \e ulFlags parameter
1969:C:/StellarisWare/driverlib\usb.c **** //! determines some of the configuration while the other parameters provide the
1970:C:/StellarisWare/driverlib\usb.c **** //! rest.
1971:C:/StellarisWare/driverlib\usb.c **** //!
1972:C:/StellarisWare/driverlib\usb.c **** //! The \b USB_EP_MODE_ flags define what the type is for the given endpoint.
1973:C:/StellarisWare/driverlib\usb.c **** //!
1974:C:/StellarisWare/driverlib\usb.c **** //! - \b USB_EP_MODE_CTRL is a control endpoint.
1975:C:/StellarisWare/driverlib\usb.c **** //! - \b USB_EP_MODE_ISOC is an isochronous endpoint.
1976:C:/StellarisWare/driverlib\usb.c **** //! - \b USB_EP_MODE_BULK is a bulk endpoint.
1977:C:/StellarisWare/driverlib\usb.c **** //! - \b USB_EP_MODE_INT is an interrupt endpoint.
1978:C:/StellarisWare/driverlib\usb.c **** //!
1979:C:/StellarisWare/driverlib\usb.c **** //! The \b USB_EP_DMA_MODE_ flags determine the type of DMA access to the
1980:C:/StellarisWare/driverlib\usb.c **** //! endpoint data FIFOs.  The choice of the DMA mode depends on how the DMA
1981:C:/StellarisWare/driverlib\usb.c **** //! controller is configured and how it is being used.  See the ``Using USB
1982:C:/StellarisWare/driverlib\usb.c **** //! with the uDMA Controller'' section for more information on DMA
1983:C:/StellarisWare/driverlib\usb.c **** //! configuration.
1984:C:/StellarisWare/driverlib\usb.c **** //!
1985:C:/StellarisWare/driverlib\usb.c **** //! When configuring an IN endpoint, the \b USB_EP_AUTO_SET bit can be
1986:C:/StellarisWare/driverlib\usb.c **** //! specified to cause the automatic transmission of data on the USB bus as
1987:C:/StellarisWare/driverlib\usb.c **** //! soon as \e ulMaxPacketSize bytes of data are written into the FIFO for
1988:C:/StellarisWare/driverlib\usb.c **** //! this endpoint.  This option is commonly used with DMA as no interaction is
1989:C:/StellarisWare/driverlib\usb.c **** //! required to start the transmission of data.
1990:C:/StellarisWare/driverlib\usb.c **** //!
1991:C:/StellarisWare/driverlib\usb.c **** //! When configuring an OUT endpoint, the \b USB_EP_AUTO_REQUEST bit is
1992:C:/StellarisWare/driverlib\usb.c **** //! specified to trigger the request for more data once the FIFO has been
1993:C:/StellarisWare/driverlib\usb.c **** //! drained enough to receive \e ulMaxPacketSize more bytes of data.  Also for
1994:C:/StellarisWare/driverlib\usb.c **** //! OUT endpoints, the \b USB_EP_AUTO_CLEAR bit can be used to clear the data
1995:C:/StellarisWare/driverlib\usb.c **** //! packet ready flag automatically once the data has been read from the FIFO.
1996:C:/StellarisWare/driverlib\usb.c **** //! If this option is not used, this flag must be manually cleared via a call
1997:C:/StellarisWare/driverlib\usb.c **** //! to USBDevEndpointStatusClear().  Both of these settings can be used to
1998:C:/StellarisWare/driverlib\usb.c **** //! remove the need for extra calls when using the controller in DMA mode.
1999:C:/StellarisWare/driverlib\usb.c **** //!
2000:C:/StellarisWare/driverlib\usb.c **** //! \note This function should only be called in device mode.
2001:C:/StellarisWare/driverlib\usb.c **** //!
2002:C:/StellarisWare/driverlib\usb.c **** //! \return None.
2003:C:/StellarisWare/driverlib\usb.c **** //
2004:C:/StellarisWare/driverlib\usb.c **** //*****************************************************************************
2005:C:/StellarisWare/driverlib\usb.c **** void
2006:C:/StellarisWare/driverlib\usb.c **** USBDevEndpointConfigSet(unsigned long ulBase, unsigned long ulEndpoint,
2007:C:/StellarisWare/driverlib\usb.c ****                         unsigned long ulMaxPacketSize, unsigned long ulFlags)
2008:C:/StellarisWare/driverlib\usb.c **** {
 2369              		.loc 1 2008 0
 2370              		.cfi_startproc
 2371              		@ args = 0, pretend = 0, frame = 24
 2372              		@ frame_needed = 1, uses_anonymous_args = 0
 2373              		@ link register save eliminated.
 2374 0000 80B4     		push	{r7}
 2375              	.LCFI87:
 2376              		.cfi_def_cfa_offset 4
 2377              		.cfi_offset 7, -4
 2378 0002 87B0     		sub	sp, sp, #28
 2379              	.LCFI88:
 2380              		.cfi_def_cfa_offset 32
 2381 0004 00AF     		add	r7, sp, #0
 2382              	.LCFI89:
 2383              		.cfi_def_cfa_register 7
 2384 0006 F860     		str	r0, [r7, #12]
 2385 0008 B960     		str	r1, [r7, #8]
 2386 000a 7A60     		str	r2, [r7, #4]
 2387 000c 3B60     		str	r3, [r7, #0]
2009:C:/StellarisWare/driverlib\usb.c ****     unsigned long ulRegister;
2010:C:/StellarisWare/driverlib\usb.c **** 
2011:C:/StellarisWare/driverlib\usb.c ****     //
2012:C:/StellarisWare/driverlib\usb.c ****     // Check the arguments.
2013:C:/StellarisWare/driverlib\usb.c ****     //
2014:C:/StellarisWare/driverlib\usb.c ****     ASSERT(ulBase == USB0_BASE);
2015:C:/StellarisWare/driverlib\usb.c ****     ASSERT((ulEndpoint == USB_EP_1) || (ulEndpoint == USB_EP_2) ||
2016:C:/StellarisWare/driverlib\usb.c ****            (ulEndpoint == USB_EP_3) || (ulEndpoint == USB_EP_4) ||
2017:C:/StellarisWare/driverlib\usb.c ****            (ulEndpoint == USB_EP_5) || (ulEndpoint == USB_EP_6) ||
2018:C:/StellarisWare/driverlib\usb.c ****            (ulEndpoint == USB_EP_7) || (ulEndpoint == USB_EP_8) ||
2019:C:/StellarisWare/driverlib\usb.c ****            (ulEndpoint == USB_EP_9) || (ulEndpoint == USB_EP_10) ||
2020:C:/StellarisWare/driverlib\usb.c ****            (ulEndpoint == USB_EP_11) || (ulEndpoint == USB_EP_12) ||
2021:C:/StellarisWare/driverlib\usb.c ****            (ulEndpoint == USB_EP_13) || (ulEndpoint == USB_EP_14) ||
2022:C:/StellarisWare/driverlib\usb.c ****            (ulEndpoint == USB_EP_15));
2023:C:/StellarisWare/driverlib\usb.c **** 
2024:C:/StellarisWare/driverlib\usb.c ****     //
2025:C:/StellarisWare/driverlib\usb.c ****     // Determine if a transmit or receive endpoint is being configured.
2026:C:/StellarisWare/driverlib\usb.c ****     //
2027:C:/StellarisWare/driverlib\usb.c ****     if(ulFlags & USB_EP_DEV_IN)
 2388              		.loc 1 2027 0
 2389 000e 3B68     		ldr	r3, [r7, #0]
 2390 0010 03F40053 		and	r3, r3, #8192
 2391 0014 002B     		cmp	r3, #0
 2392 0016 43D0     		beq	.L101
2028:C:/StellarisWare/driverlib\usb.c ****     {
2029:C:/StellarisWare/driverlib\usb.c ****         //
2030:C:/StellarisWare/driverlib\usb.c ****         // Set the maximum packet size.
2031:C:/StellarisWare/driverlib\usb.c ****         //
2032:C:/StellarisWare/driverlib\usb.c ****         HWREGH(ulBase + EP_OFFSET(ulEndpoint) + USB_O_TXMAXP1) =
 2393              		.loc 1 2032 0
 2394 0018 BA68     		ldr	r2, [r7, #8]
 2395 001a FB68     		ldr	r3, [r7, #12]
 2396 001c D318     		adds	r3, r2, r3
 2397 001e 03F58073 		add	r3, r3, #256
 2398 0022 7A68     		ldr	r2, [r7, #4]
 2399 0024 92B2     		uxth	r2, r2
 2400 0026 1A80     		strh	r2, [r3, #0]	@ movhi
2033:C:/StellarisWare/driverlib\usb.c ****             ulMaxPacketSize;
2034:C:/StellarisWare/driverlib\usb.c **** 
2035:C:/StellarisWare/driverlib\usb.c ****         //
2036:C:/StellarisWare/driverlib\usb.c ****         // The transmit control value is zero unless options are enabled.
2037:C:/StellarisWare/driverlib\usb.c ****         //
2038:C:/StellarisWare/driverlib\usb.c ****         ulRegister = 0;
 2401              		.loc 1 2038 0
 2402 0028 4FF00003 		mov	r3, #0
 2403 002c 7B61     		str	r3, [r7, #20]
2039:C:/StellarisWare/driverlib\usb.c **** 
2040:C:/StellarisWare/driverlib\usb.c ****         //
2041:C:/StellarisWare/driverlib\usb.c ****         // Allow auto setting of TxPktRdy when max packet size has been loaded
2042:C:/StellarisWare/driverlib\usb.c ****         // into the FIFO.
2043:C:/StellarisWare/driverlib\usb.c ****         //
2044:C:/StellarisWare/driverlib\usb.c ****         if(ulFlags & USB_EP_AUTO_SET)
 2404              		.loc 1 2044 0
 2405 002e 3B68     		ldr	r3, [r7, #0]
 2406 0030 03F00103 		and	r3, r3, #1
 2407 0034 DBB2     		uxtb	r3, r3
 2408 0036 002B     		cmp	r3, #0
 2409 0038 03D0     		beq	.L102
2045:C:/StellarisWare/driverlib\usb.c ****         {
2046:C:/StellarisWare/driverlib\usb.c ****             ulRegister |= USB_TXCSRH1_AUTOSET;
 2410              		.loc 1 2046 0
 2411 003a 7B69     		ldr	r3, [r7, #20]
 2412 003c 43F08003 		orr	r3, r3, #128
 2413 0040 7B61     		str	r3, [r7, #20]
 2414              	.L102:
2047:C:/StellarisWare/driverlib\usb.c ****         }
2048:C:/StellarisWare/driverlib\usb.c **** 
2049:C:/StellarisWare/driverlib\usb.c ****         //
2050:C:/StellarisWare/driverlib\usb.c ****         // Configure the DMA mode.
2051:C:/StellarisWare/driverlib\usb.c ****         //
2052:C:/StellarisWare/driverlib\usb.c ****         if(ulFlags & USB_EP_DMA_MODE_1)
 2415              		.loc 1 2052 0
 2416 0042 3B68     		ldr	r3, [r7, #0]
 2417 0044 03F01003 		and	r3, r3, #16
 2418 0048 002B     		cmp	r3, #0
 2419 004a 04D0     		beq	.L103
2053:C:/StellarisWare/driverlib\usb.c ****         {
2054:C:/StellarisWare/driverlib\usb.c ****             ulRegister |= USB_TXCSRH1_DMAEN | USB_TXCSRH1_DMAMOD;
 2420              		.loc 1 2054 0
 2421 004c 7B69     		ldr	r3, [r7, #20]
 2422 004e 43F01403 		orr	r3, r3, #20
 2423 0052 7B61     		str	r3, [r7, #20]
 2424 0054 08E0     		b	.L104
 2425              	.L103:
2055:C:/StellarisWare/driverlib\usb.c ****         }
2056:C:/StellarisWare/driverlib\usb.c ****         else if(ulFlags & USB_EP_DMA_MODE_0)
 2426              		.loc 1 2056 0
 2427 0056 3B68     		ldr	r3, [r7, #0]
 2428 0058 03F00803 		and	r3, r3, #8
 2429 005c 002B     		cmp	r3, #0
 2430 005e 03D0     		beq	.L104
2057:C:/StellarisWare/driverlib\usb.c ****         {
2058:C:/StellarisWare/driverlib\usb.c ****             ulRegister |= USB_TXCSRH1_DMAEN;
 2431              		.loc 1 2058 0
 2432 0060 7B69     		ldr	r3, [r7, #20]
 2433 0062 43F01003 		orr	r3, r3, #16
 2434 0066 7B61     		str	r3, [r7, #20]
 2435              	.L104:
2059:C:/StellarisWare/driverlib\usb.c ****         }
2060:C:/StellarisWare/driverlib\usb.c **** 
2061:C:/StellarisWare/driverlib\usb.c ****         //
2062:C:/StellarisWare/driverlib\usb.c ****         // Enable isochronous mode if requested.
2063:C:/StellarisWare/driverlib\usb.c ****         //
2064:C:/StellarisWare/driverlib\usb.c ****         if((ulFlags & USB_EP_MODE_MASK) == USB_EP_MODE_ISOC)
 2436              		.loc 1 2064 0
 2437 0068 3B68     		ldr	r3, [r7, #0]
 2438 006a 03F44073 		and	r3, r3, #768
 2439 006e 002B     		cmp	r3, #0
 2440 0070 03D1     		bne	.L105
2065:C:/StellarisWare/driverlib\usb.c ****         {
2066:C:/StellarisWare/driverlib\usb.c ****             ulRegister |= USB_TXCSRH1_ISO;
 2441              		.loc 1 2066 0
 2442 0072 7B69     		ldr	r3, [r7, #20]
 2443 0074 43F04003 		orr	r3, r3, #64
 2444 0078 7B61     		str	r3, [r7, #20]
 2445              	.L105:
2067:C:/StellarisWare/driverlib\usb.c ****         }
2068:C:/StellarisWare/driverlib\usb.c **** 
2069:C:/StellarisWare/driverlib\usb.c ****         //
2070:C:/StellarisWare/driverlib\usb.c ****         // Write the transmit control value.
2071:C:/StellarisWare/driverlib\usb.c ****         //
2072:C:/StellarisWare/driverlib\usb.c ****         HWREGB(ulBase + EP_OFFSET(ulEndpoint) + USB_O_TXCSRH1) =
 2446              		.loc 1 2072 0
 2447 007a BA68     		ldr	r2, [r7, #8]
 2448 007c FB68     		ldr	r3, [r7, #12]
 2449 007e D318     		adds	r3, r2, r3
 2450 0080 03F58073 		add	r3, r3, #256
 2451 0084 03F10303 		add	r3, r3, #3
2073:C:/StellarisWare/driverlib\usb.c ****             (unsigned char)ulRegister;
 2452              		.loc 1 2073 0
 2453 0088 7A69     		ldr	r2, [r7, #20]
 2454 008a D2B2     		uxtb	r2, r2
2072:C:/StellarisWare/driverlib\usb.c ****         HWREGB(ulBase + EP_OFFSET(ulEndpoint) + USB_O_TXCSRH1) =
 2455              		.loc 1 2072 0
 2456 008c 1A70     		strb	r2, [r3, #0]
2074:C:/StellarisWare/driverlib\usb.c **** 
2075:C:/StellarisWare/driverlib\usb.c ****         //
2076:C:/StellarisWare/driverlib\usb.c ****         // Reset the Data toggle to zero.
2077:C:/StellarisWare/driverlib\usb.c ****         //
2078:C:/StellarisWare/driverlib\usb.c ****         HWREGB(ulBase + EP_OFFSET(ulEndpoint) + USB_O_TXCSRL1) =
 2457              		.loc 1 2078 0
 2458 008e BA68     		ldr	r2, [r7, #8]
 2459 0090 FB68     		ldr	r3, [r7, #12]
 2460 0092 D318     		adds	r3, r2, r3
 2461 0094 03F58173 		add	r3, r3, #258
 2462 0098 4FF04002 		mov	r2, #64
 2463 009c 1A70     		strb	r2, [r3, #0]
 2464 009e 40E0     		b	.L100
 2465              	.L101:
2079:C:/StellarisWare/driverlib\usb.c ****             USB_TXCSRL1_CLRDT;
2080:C:/StellarisWare/driverlib\usb.c ****     }
2081:C:/StellarisWare/driverlib\usb.c ****     else
2082:C:/StellarisWare/driverlib\usb.c ****     {
2083:C:/StellarisWare/driverlib\usb.c ****         //
2084:C:/StellarisWare/driverlib\usb.c ****         // Set the MaxPacketSize.
2085:C:/StellarisWare/driverlib\usb.c ****         //
2086:C:/StellarisWare/driverlib\usb.c ****         HWREGH(ulBase + EP_OFFSET(ulEndpoint) + USB_O_RXMAXP1) =
 2466              		.loc 1 2086 0
 2467 00a0 BA68     		ldr	r2, [r7, #8]
 2468 00a2 FB68     		ldr	r3, [r7, #12]
 2469 00a4 D318     		adds	r3, r2, r3
 2470 00a6 03F58273 		add	r3, r3, #260
 2471 00aa 7A68     		ldr	r2, [r7, #4]
 2472 00ac 92B2     		uxth	r2, r2
 2473 00ae 1A80     		strh	r2, [r3, #0]	@ movhi
2087:C:/StellarisWare/driverlib\usb.c ****             ulMaxPacketSize;
2088:C:/StellarisWare/driverlib\usb.c **** 
2089:C:/StellarisWare/driverlib\usb.c ****         //
